
hello:     file format elf32-i386


Disassembly of section .text:

080480a0 <syscall>:
 80480a0:	55                   	push   %ebp
 80480a1:	89 e5                	mov    %esp,%ebp
 80480a3:	53                   	push   %ebx
 80480a4:	83 ec 10             	sub    $0x10,%esp
 80480a7:	8d 45 08             	lea    0x8(%ebp),%eax
 80480aa:	89 45 f8             	mov    %eax,-0x8(%ebp)
 80480ad:	8b 45 f8             	mov    -0x8(%ebp),%eax
 80480b0:	8b 00                	mov    (%eax),%eax
 80480b2:	8b 55 f8             	mov    -0x8(%ebp),%edx
 80480b5:	83 c2 04             	add    $0x4,%edx
 80480b8:	8b 1a                	mov    (%edx),%ebx
 80480ba:	8b 55 f8             	mov    -0x8(%ebp),%edx
 80480bd:	83 c2 08             	add    $0x8,%edx
 80480c0:	8b 0a                	mov    (%edx),%ecx
 80480c2:	8b 55 f8             	mov    -0x8(%ebp),%edx
 80480c5:	83 c2 0c             	add    $0xc,%edx
 80480c8:	8b 12                	mov    (%edx),%edx
 80480ca:	cd 80                	int    $0x80
 80480cc:	89 45 f4             	mov    %eax,-0xc(%ebp)
 80480cf:	8b 45 f4             	mov    -0xc(%ebp),%eax
 80480d2:	83 c4 10             	add    $0x10,%esp
 80480d5:	5b                   	pop    %ebx
 80480d6:	5d                   	pop    %ebp
 80480d7:	c3                   	ret    

080480d8 <read>:
 80480d8:	55                   	push   %ebp
 80480d9:	89 e5                	mov    %esp,%ebp
 80480db:	b8 00 00 00 00       	mov    $0x0,%eax
 80480e0:	5d                   	pop    %ebp
 80480e1:	c3                   	ret    

080480e2 <write>:
 80480e2:	55                   	push   %ebp
 80480e3:	89 e5                	mov    %esp,%ebp
 80480e5:	83 ec 10             	sub    $0x10,%esp
 80480e8:	8b 45 10             	mov    0x10(%ebp),%eax
 80480eb:	89 44 24 0c          	mov    %eax,0xc(%esp)
 80480ef:	8b 45 0c             	mov    0xc(%ebp),%eax
 80480f2:	89 44 24 08          	mov    %eax,0x8(%esp)
 80480f6:	8b 45 08             	mov    0x8(%ebp),%eax
 80480f9:	89 44 24 04          	mov    %eax,0x4(%esp)
 80480fd:	c7 04 24 04 00 00 00 	movl   $0x4,(%esp)
 8048104:	e8 97 ff ff ff       	call   80480a0 <syscall>
 8048109:	c9                   	leave  
 804810a:	c3                   	ret    

0804810b <lseek>:
 804810b:	55                   	push   %ebp
 804810c:	89 e5                	mov    %esp,%ebp
 804810e:	b8 00 00 00 00       	mov    $0x0,%eax
 8048113:	5d                   	pop    %ebp
 8048114:	c3                   	ret    

08048115 <sbrk>:
 8048115:	55                   	push   %ebp
 8048116:	89 e5                	mov    %esp,%ebp
 8048118:	83 ec 18             	sub    $0x18,%esp
 804811b:	a1 20 29 05 08       	mov    0x8052920,%eax
 8048120:	85 c0                	test   %eax,%eax
 8048122:	75 0a                	jne    804812e <sbrk+0x19>
 8048124:	c7 05 20 29 05 08 78 	movl   $0x8052978,0x8052920
 804812b:	29 05 08 
 804812e:	a1 20 29 05 08       	mov    0x8052920,%eax
 8048133:	89 45 fc             	mov    %eax,-0x4(%ebp)
 8048136:	8b 15 20 29 05 08    	mov    0x8052920,%edx
 804813c:	8b 45 08             	mov    0x8(%ebp),%eax
 804813f:	01 d0                	add    %edx,%eax
 8048141:	89 44 24 04          	mov    %eax,0x4(%esp)
 8048145:	c7 04 24 2d 00 00 00 	movl   $0x2d,(%esp)
 804814c:	e8 4f ff ff ff       	call   80480a0 <syscall>
 8048151:	85 c0                	test   %eax,%eax
 8048153:	75 10                	jne    8048165 <sbrk+0x50>
 8048155:	8b 15 20 29 05 08    	mov    0x8052920,%edx
 804815b:	8b 45 08             	mov    0x8(%ebp),%eax
 804815e:	01 d0                	add    %edx,%eax
 8048160:	a3 20 29 05 08       	mov    %eax,0x8052920
 8048165:	8b 45 fc             	mov    -0x4(%ebp),%eax
 8048168:	c9                   	leave  
 8048169:	c3                   	ret    

0804816a <close>:
 804816a:	55                   	push   %ebp
 804816b:	89 e5                	mov    %esp,%ebp
 804816d:	b8 00 00 00 00       	mov    $0x0,%eax
 8048172:	5d                   	pop    %ebp
 8048173:	c3                   	ret    

08048174 <fstat>:
 8048174:	55                   	push   %ebp
 8048175:	89 e5                	mov    %esp,%ebp
 8048177:	b8 00 00 00 00       	mov    $0x0,%eax
 804817c:	5d                   	pop    %ebp
 804817d:	c3                   	ret    

0804817e <isatty>:
 804817e:	55                   	push   %ebp
 804817f:	89 e5                	mov    %esp,%ebp
 8048181:	b8 00 00 00 00       	mov    $0x0,%eax
 8048186:	5d                   	pop    %ebp
 8048187:	c3                   	ret    

08048188 <main>:
 8048188:	55                   	push   %ebp
 8048189:	89 e5                	mov    %esp,%ebp
 804818b:	83 e4 f0             	and    $0xfffffff0,%esp
 804818e:	83 ec 10             	sub    $0x10,%esp
 8048191:	c7 04 24 60 05 05 08 	movl   $0x8050560,(%esp)
 8048198:	e8 23 01 00 00       	call   80482c0 <puts>
 804819d:	c7 04 24 60 05 05 08 	movl   $0x8050560,(%esp)
 80481a4:	e8 17 01 00 00       	call   80482c0 <puts>
 80481a9:	c7 44 24 0c 02 00 00 	movl   $0x2,0xc(%esp)
 80481b0:	00 
 80481b1:	c7 44 24 08 01 00 00 	movl   $0x1,0x8(%esp)
 80481b8:	00 
 80481b9:	c7 44 24 04 01 00 00 	movl   $0x1,0x4(%esp)
 80481c0:	00 
 80481c1:	c7 04 24 6d 05 05 08 	movl   $0x805056d,(%esp)
 80481c8:	e8 43 00 00 00       	call   8048210 <printf>
 80481cd:	b8 00 00 00 00       	mov    $0x0,%eax
 80481d2:	c9                   	leave  
 80481d3:	c3                   	ret    
 80481d4:	66 90                	xchg   %ax,%ax
 80481d6:	66 90                	xchg   %ax,%ax
 80481d8:	66 90                	xchg   %ax,%ax
 80481da:	66 90                	xchg   %ax,%ax
 80481dc:	66 90                	xchg   %ax,%ax
 80481de:	66 90                	xchg   %ax,%ax

080481e0 <_printf_r>:
 80481e0:	55                   	push   %ebp
 80481e1:	89 e5                	mov    %esp,%ebp
 80481e3:	83 ec 18             	sub    $0x18,%esp
 80481e6:	8d 55 10             	lea    0x10(%ebp),%edx
 80481e9:	8b 45 08             	mov    0x8(%ebp),%eax
 80481ec:	89 54 24 0c          	mov    %edx,0xc(%esp)
 80481f0:	8b 55 0c             	mov    0xc(%ebp),%edx
 80481f3:	89 54 24 08          	mov    %edx,0x8(%esp)
 80481f7:	8b 50 08             	mov    0x8(%eax),%edx
 80481fa:	89 04 24             	mov    %eax,(%esp)
 80481fd:	89 54 24 04          	mov    %edx,0x4(%esp)
 8048201:	e8 5a 01 00 00       	call   8048360 <_vfprintf_r>
 8048206:	c9                   	leave  
 8048207:	c3                   	ret    
 8048208:	90                   	nop
 8048209:	8d b4 26 00 00 00 00 	lea    0x0(%esi,%eiz,1),%esi

08048210 <printf>:
 8048210:	55                   	push   %ebp
 8048211:	89 e5                	mov    %esp,%ebp
 8048213:	83 ec 18             	sub    $0x18,%esp
 8048216:	e8 a5 46 00 00       	call   804c8c0 <__getreent>
 804821b:	8d 55 0c             	lea    0xc(%ebp),%edx
 804821e:	89 54 24 0c          	mov    %edx,0xc(%esp)
 8048222:	8b 55 08             	mov    0x8(%ebp),%edx
 8048225:	89 54 24 08          	mov    %edx,0x8(%esp)
 8048229:	8b 50 08             	mov    0x8(%eax),%edx
 804822c:	89 04 24             	mov    %eax,(%esp)
 804822f:	89 54 24 04          	mov    %edx,0x4(%esp)
 8048233:	e8 28 01 00 00       	call   8048360 <_vfprintf_r>
 8048238:	c9                   	leave  
 8048239:	c3                   	ret    
 804823a:	66 90                	xchg   %ax,%ax
 804823c:	66 90                	xchg   %ax,%ax
 804823e:	66 90                	xchg   %ax,%ax

08048240 <_puts_r>:
 8048240:	55                   	push   %ebp
 8048241:	89 e5                	mov    %esp,%ebp
 8048243:	56                   	push   %esi
 8048244:	53                   	push   %ebx
 8048245:	83 ec 30             	sub    $0x30,%esp
 8048248:	8b 75 0c             	mov    0xc(%ebp),%esi
 804824b:	8b 5d 08             	mov    0x8(%ebp),%ebx
 804824e:	89 34 24             	mov    %esi,(%esp)
 8048251:	e8 8a 00 00 00       	call   80482e0 <strlen>
 8048256:	89 75 e8             	mov    %esi,-0x18(%ebp)
 8048259:	c7 45 f0 7b 05 05 08 	movl   $0x805057b,-0x10(%ebp)
 8048260:	c7 45 f4 01 00 00 00 	movl   $0x1,-0xc(%ebp)
 8048267:	c7 45 e0 02 00 00 00 	movl   $0x2,-0x20(%ebp)
 804826e:	89 45 ec             	mov    %eax,-0x14(%ebp)
 8048271:	83 c0 01             	add    $0x1,%eax
 8048274:	89 45 e4             	mov    %eax,-0x1c(%ebp)
 8048277:	8d 45 e8             	lea    -0x18(%ebp),%eax
 804827a:	89 45 dc             	mov    %eax,-0x24(%ebp)
 804827d:	8b 43 08             	mov    0x8(%ebx),%eax
 8048280:	0f b7 50 0c          	movzwl 0xc(%eax),%edx
 8048284:	f6 c6 20             	test   $0x20,%dh
 8048287:	75 0e                	jne    8048297 <_puts_r+0x57>
 8048289:	81 60 64 ff df ff ff 	andl   $0xffffdfff,0x64(%eax)
 8048290:	80 ce 20             	or     $0x20,%dh
 8048293:	66 89 50 0c          	mov    %dx,0xc(%eax)
 8048297:	8d 55 dc             	lea    -0x24(%ebp),%edx
 804829a:	89 1c 24             	mov    %ebx,(%esp)
 804829d:	89 54 24 08          	mov    %edx,0x8(%esp)
 80482a1:	89 44 24 04          	mov    %eax,0x4(%esp)
 80482a5:	e8 56 40 00 00       	call   804c300 <__sfvwrite_r>
 80482aa:	83 f8 01             	cmp    $0x1,%eax
 80482ad:	19 c0                	sbb    %eax,%eax
 80482af:	83 c4 30             	add    $0x30,%esp
 80482b2:	83 e0 0b             	and    $0xb,%eax
 80482b5:	5b                   	pop    %ebx
 80482b6:	83 e8 01             	sub    $0x1,%eax
 80482b9:	5e                   	pop    %esi
 80482ba:	5d                   	pop    %ebp
 80482bb:	c3                   	ret    
 80482bc:	8d 74 26 00          	lea    0x0(%esi,%eiz,1),%esi

080482c0 <puts>:
 80482c0:	55                   	push   %ebp
 80482c1:	89 e5                	mov    %esp,%ebp
 80482c3:	83 ec 18             	sub    $0x18,%esp
 80482c6:	e8 f5 45 00 00       	call   804c8c0 <__getreent>
 80482cb:	8b 55 08             	mov    0x8(%ebp),%edx
 80482ce:	89 54 24 04          	mov    %edx,0x4(%esp)
 80482d2:	89 04 24             	mov    %eax,(%esp)
 80482d5:	e8 66 ff ff ff       	call   8048240 <_puts_r>
 80482da:	c9                   	leave  
 80482db:	c3                   	ret    
 80482dc:	66 90                	xchg   %ax,%ax
 80482de:	66 90                	xchg   %ax,%ax

080482e0 <strlen>:
 80482e0:	55                   	push   %ebp
 80482e1:	89 e5                	mov    %esp,%ebp
 80482e3:	57                   	push   %edi
 80482e4:	8b 55 08             	mov    0x8(%ebp),%edx
 80482e7:	89 d7                	mov    %edx,%edi
 80482e9:	f7 c7 03 00 00 00    	test   $0x3,%edi
 80482ef:	74 25                	je     8048316 <L5>
 80482f1:	8a 0f                	mov    (%edi),%cl
 80482f3:	47                   	inc    %edi
 80482f4:	84 c9                	test   %cl,%cl
 80482f6:	74 56                	je     804834e <L15>
 80482f8:	f7 c7 03 00 00 00    	test   $0x3,%edi
 80482fe:	74 16                	je     8048316 <L5>
 8048300:	8a 0f                	mov    (%edi),%cl
 8048302:	47                   	inc    %edi
 8048303:	84 c9                	test   %cl,%cl
 8048305:	74 47                	je     804834e <L15>
 8048307:	f7 c7 03 00 00 00    	test   $0x3,%edi
 804830d:	74 07                	je     8048316 <L5>
 804830f:	8a 0f                	mov    (%edi),%cl
 8048311:	47                   	inc    %edi
 8048312:	84 c9                	test   %cl,%cl
 8048314:	74 38                	je     804834e <L15>

08048316 <L5>:
 8048316:	83 ef 04             	sub    $0x4,%edi
 8048319:	8d b4 26 00 00 00 00 	lea    0x0(%esi,%eiz,1),%esi

08048320 <L10>:
 8048320:	83 c7 04             	add    $0x4,%edi
 8048323:	8b 0f                	mov    (%edi),%ecx
 8048325:	8d 81 ff fe fe fe    	lea    -0x1010101(%ecx),%eax
 804832b:	f7 d1                	not    %ecx
 804832d:	21 c8                	and    %ecx,%eax
 804832f:	a9 80 80 80 80       	test   $0x80808080,%eax
 8048334:	74 ea                	je     8048320 <L10>
 8048336:	f7 d1                	not    %ecx
 8048338:	47                   	inc    %edi
 8048339:	84 c9                	test   %cl,%cl
 804833b:	74 11                	je     804834e <L15>
 804833d:	47                   	inc    %edi
 804833e:	c1 e9 08             	shr    $0x8,%ecx
 8048341:	84 c9                	test   %cl,%cl
 8048343:	74 09                	je     804834e <L15>
 8048345:	47                   	inc    %edi
 8048346:	c1 e9 08             	shr    $0x8,%ecx
 8048349:	84 c9                	test   %cl,%cl
 804834b:	74 01                	je     804834e <L15>
 804834d:	47                   	inc    %edi

0804834e <L15>:
 804834e:	29 d7                	sub    %edx,%edi
 8048350:	8d 47 ff             	lea    -0x1(%edi),%eax
 8048353:	8d 65 fc             	lea    -0x4(%ebp),%esp
 8048356:	5f                   	pop    %edi
 8048357:	c9                   	leave  
 8048358:	c3                   	ret    
 8048359:	66 90                	xchg   %ax,%ax
 804835b:	66 90                	xchg   %ax,%ax
 804835d:	66 90                	xchg   %ax,%ax
 804835f:	90                   	nop

08048360 <_vfprintf_r>:
 8048360:	55                   	push   %ebp
 8048361:	89 e5                	mov    %esp,%ebp
 8048363:	57                   	push   %edi
 8048364:	56                   	push   %esi
 8048365:	53                   	push   %ebx
 8048366:	81 ec 1c 01 00 00    	sub    $0x11c,%esp
 804836c:	8b 45 08             	mov    0x8(%ebp),%eax
 804836f:	89 04 24             	mov    %eax,(%esp)
 8048372:	e8 09 46 00 00       	call   804c980 <_localeconv_r>
 8048377:	8b 00                	mov    (%eax),%eax
 8048379:	89 04 24             	mov    %eax,(%esp)
 804837c:	89 85 18 ff ff ff    	mov    %eax,-0xe8(%ebp)
 8048382:	e8 59 ff ff ff       	call   80482e0 <strlen>
 8048387:	8b 5d 08             	mov    0x8(%ebp),%ebx
 804838a:	85 db                	test   %ebx,%ebx
 804838c:	89 85 0c ff ff ff    	mov    %eax,-0xf4(%ebp)
 8048392:	74 0e                	je     80483a2 <_vfprintf_r+0x42>
 8048394:	8b 45 08             	mov    0x8(%ebp),%eax
 8048397:	8b 48 38             	mov    0x38(%eax),%ecx
 804839a:	85 c9                	test   %ecx,%ecx
 804839c:	0f 84 56 02 00 00    	je     80485f8 <_vfprintf_r+0x298>
 80483a2:	8b 45 0c             	mov    0xc(%ebp),%eax
 80483a5:	0f b7 40 0c          	movzwl 0xc(%eax),%eax
 80483a9:	f6 c4 20             	test   $0x20,%ah
 80483ac:	75 11                	jne    80483bf <_vfprintf_r+0x5f>
 80483ae:	8b 55 0c             	mov    0xc(%ebp),%edx
 80483b1:	80 cc 20             	or     $0x20,%ah
 80483b4:	81 62 64 ff df ff ff 	andl   $0xffffdfff,0x64(%edx)
 80483bb:	66 89 42 0c          	mov    %ax,0xc(%edx)
 80483bf:	a8 08                	test   $0x8,%al
 80483c1:	0f 84 59 01 00 00    	je     8048520 <_vfprintf_r+0x1c0>
 80483c7:	8b 55 0c             	mov    0xc(%ebp),%edx
 80483ca:	8b 52 10             	mov    0x10(%edx),%edx
 80483cd:	85 d2                	test   %edx,%edx
 80483cf:	0f 84 4b 01 00 00    	je     8048520 <_vfprintf_r+0x1c0>
 80483d5:	83 e0 1a             	and    $0x1a,%eax
 80483d8:	66 83 f8 0a          	cmp    $0xa,%ax
 80483dc:	0f 84 68 01 00 00    	je     804854a <_vfprintf_r+0x1ea>
 80483e2:	8d 45 a8             	lea    -0x58(%ebp),%eax
 80483e5:	8d 55 a7             	lea    -0x59(%ebp),%edx
 80483e8:	89 c7                	mov    %eax,%edi
 80483ea:	89 85 74 ff ff ff    	mov    %eax,-0x8c(%ebp)
 80483f0:	d9 ee                	fldz   
 80483f2:	29 d0                	sub    %edx,%eax
 80483f4:	c7 85 7c ff ff ff 00 	movl   $0x0,-0x84(%ebp)
 80483fb:	00 00 00 
 80483fe:	dd 9d 10 ff ff ff    	fstpl  -0xf0(%ebp)
 8048404:	c7 85 78 ff ff ff 00 	movl   $0x0,-0x88(%ebp)
 804840b:	00 00 00 
 804840e:	c7 85 1c ff ff ff 00 	movl   $0x0,-0xe4(%ebp)
 8048415:	00 00 00 
 8048418:	c7 85 08 ff ff ff 00 	movl   $0x0,-0xf8(%ebp)
 804841f:	00 00 00 
 8048422:	c7 85 04 ff ff ff 00 	movl   $0x0,-0xfc(%ebp)
 8048429:	00 00 00 
 804842c:	c7 85 28 ff ff ff 00 	movl   $0x0,-0xd8(%ebp)
 8048433:	00 00 00 
 8048436:	89 85 00 ff ff ff    	mov    %eax,-0x100(%ebp)
 804843c:	8b 45 10             	mov    0x10(%ebp),%eax
 804843f:	8b 5d 10             	mov    0x10(%ebp),%ebx
 8048442:	0f b6 00             	movzbl (%eax),%eax
 8048445:	3c 25                	cmp    $0x25,%al
 8048447:	74 4c                	je     8048495 <_vfprintf_r+0x135>
 8048449:	84 c0                	test   %al,%al
 804844b:	75 07                	jne    8048454 <_vfprintf_r+0xf4>
 804844d:	eb 46                	jmp    8048495 <_vfprintf_r+0x135>
 804844f:	90                   	nop
 8048450:	84 c0                	test   %al,%al
 8048452:	74 0a                	je     804845e <_vfprintf_r+0xfe>
 8048454:	83 c3 01             	add    $0x1,%ebx
 8048457:	0f b6 03             	movzbl (%ebx),%eax
 804845a:	3c 25                	cmp    $0x25,%al
 804845c:	75 f2                	jne    8048450 <_vfprintf_r+0xf0>
 804845e:	89 de                	mov    %ebx,%esi
 8048460:	2b 75 10             	sub    0x10(%ebp),%esi
 8048463:	74 30                	je     8048495 <_vfprintf_r+0x135>
 8048465:	8b 45 10             	mov    0x10(%ebp),%eax
 8048468:	83 c7 08             	add    $0x8,%edi
 804846b:	89 77 fc             	mov    %esi,-0x4(%edi)
 804846e:	01 b5 7c ff ff ff    	add    %esi,-0x84(%ebp)
 8048474:	89 47 f8             	mov    %eax,-0x8(%edi)
 8048477:	8b 85 78 ff ff ff    	mov    -0x88(%ebp),%eax
 804847d:	83 c0 01             	add    $0x1,%eax
 8048480:	83 f8 07             	cmp    $0x7,%eax
 8048483:	89 85 78 ff ff ff    	mov    %eax,-0x88(%ebp)
 8048489:	0f 8f f9 00 00 00    	jg     8048588 <_vfprintf_r+0x228>
 804848f:	01 b5 28 ff ff ff    	add    %esi,-0xd8(%ebp)
 8048495:	80 3b 00             	cmpb   $0x0,(%ebx)
 8048498:	0f 84 12 01 00 00    	je     80485b0 <_vfprintf_r+0x250>
 804849e:	8d 43 01             	lea    0x1(%ebx),%eax
 80484a1:	be 20 00 00 00       	mov    $0x20,%esi
 80484a6:	c6 85 59 ff ff ff 00 	movb   $0x0,-0xa7(%ebp)
 80484ad:	31 db                	xor    %ebx,%ebx
 80484af:	c7 85 44 ff ff ff ff 	movl   $0xffffffff,-0xbc(%ebp)
 80484b6:	ff ff ff 
 80484b9:	c7 85 40 ff ff ff 00 	movl   $0x0,-0xc0(%ebp)
 80484c0:	00 00 00 
 80484c3:	c7 85 4c ff ff ff 00 	movl   $0x0,-0xb4(%ebp)
 80484ca:	00 00 00 
 80484cd:	8d 48 01             	lea    0x1(%eax),%ecx
 80484d0:	0f be 00             	movsbl (%eax),%eax
 80484d3:	8d 50 e0             	lea    -0x20(%eax),%edx
 80484d6:	83 fa 58             	cmp    $0x58,%edx
 80484d9:	0f 87 f2 07 00 00    	ja     8048cd1 <_vfprintf_r+0x971>
 80484df:	ff 24 95 b8 05 05 08 	jmp    *0x80505b8(,%edx,4)
 80484e6:	66 90                	xchg   %ax,%ax
 80484e8:	83 8d 4c ff ff ff 10 	orl    $0x10,-0xb4(%ebp)
 80484ef:	89 c8                	mov    %ecx,%eax
 80484f1:	eb da                	jmp    80484cd <_vfprintf_r+0x16d>
 80484f3:	8b 45 14             	mov    0x14(%ebp),%eax
 80484f6:	8b 55 14             	mov    0x14(%ebp),%edx
 80484f9:	8b 00                	mov    (%eax),%eax
 80484fb:	83 c2 04             	add    $0x4,%edx
 80484fe:	89 55 14             	mov    %edx,0x14(%ebp)
 8048501:	85 c0                	test   %eax,%eax
 8048503:	89 85 40 ff ff ff    	mov    %eax,-0xc0(%ebp)
 8048509:	79 e4                	jns    80484ef <_vfprintf_r+0x18f>
 804850b:	f7 9d 40 ff ff ff    	negl   -0xc0(%ebp)
 8048511:	83 8d 4c ff ff ff 04 	orl    $0x4,-0xb4(%ebp)
 8048518:	89 c8                	mov    %ecx,%eax
 804851a:	eb b1                	jmp    80484cd <_vfprintf_r+0x16d>
 804851c:	8d 74 26 00          	lea    0x0(%esi,%eiz,1),%esi
 8048520:	8b 45 0c             	mov    0xc(%ebp),%eax
 8048523:	89 44 24 04          	mov    %eax,0x4(%esp)
 8048527:	8b 45 08             	mov    0x8(%ebp),%eax
 804852a:	89 04 24             	mov    %eax,(%esp)
 804852d:	e8 ae 1e 00 00       	call   804a3e0 <__swsetup_r>
 8048532:	85 c0                	test   %eax,%eax
 8048534:	75 42                	jne    8048578 <_vfprintf_r+0x218>
 8048536:	8b 45 0c             	mov    0xc(%ebp),%eax
 8048539:	0f b7 40 0c          	movzwl 0xc(%eax),%eax
 804853d:	83 e0 1a             	and    $0x1a,%eax
 8048540:	66 83 f8 0a          	cmp    $0xa,%ax
 8048544:	0f 85 98 fe ff ff    	jne    80483e2 <_vfprintf_r+0x82>
 804854a:	8b 45 0c             	mov    0xc(%ebp),%eax
 804854d:	66 83 78 0e 00       	cmpw   $0x0,0xe(%eax)
 8048552:	0f 88 8a fe ff ff    	js     80483e2 <_vfprintf_r+0x82>
 8048558:	8b 45 14             	mov    0x14(%ebp),%eax
 804855b:	8b 4d 10             	mov    0x10(%ebp),%ecx
 804855e:	8b 55 0c             	mov    0xc(%ebp),%edx
 8048561:	89 04 24             	mov    %eax,(%esp)
 8048564:	8b 45 08             	mov    0x8(%ebp),%eax
 8048567:	e8 94 1d 00 00       	call   804a300 <__sbprintf>
 804856c:	81 c4 1c 01 00 00    	add    $0x11c,%esp
 8048572:	5b                   	pop    %ebx
 8048573:	5e                   	pop    %esi
 8048574:	5f                   	pop    %edi
 8048575:	5d                   	pop    %ebp
 8048576:	c3                   	ret    
 8048577:	90                   	nop
 8048578:	81 c4 1c 01 00 00    	add    $0x11c,%esp
 804857e:	b8 ff ff ff ff       	mov    $0xffffffff,%eax
 8048583:	5b                   	pop    %ebx
 8048584:	5e                   	pop    %esi
 8048585:	5f                   	pop    %edi
 8048586:	5d                   	pop    %ebp
 8048587:	c3                   	ret    
 8048588:	8d 85 74 ff ff ff    	lea    -0x8c(%ebp),%eax
 804858e:	89 44 24 08          	mov    %eax,0x8(%esp)
 8048592:	8b 45 0c             	mov    0xc(%ebp),%eax
 8048595:	89 44 24 04          	mov    %eax,0x4(%esp)
 8048599:	8b 45 08             	mov    0x8(%ebp),%eax
 804859c:	89 04 24             	mov    %eax,(%esp)
 804859f:	e8 9c 65 00 00       	call   804eb40 <__sprint_r>
 80485a4:	85 c0                	test   %eax,%eax
 80485a6:	75 30                	jne    80485d8 <_vfprintf_r+0x278>
 80485a8:	8d 7d a8             	lea    -0x58(%ebp),%edi
 80485ab:	e9 df fe ff ff       	jmp    804848f <_vfprintf_r+0x12f>
 80485b0:	8b 85 7c ff ff ff    	mov    -0x84(%ebp),%eax
 80485b6:	85 c0                	test   %eax,%eax
 80485b8:	74 1e                	je     80485d8 <_vfprintf_r+0x278>
 80485ba:	8d 85 74 ff ff ff    	lea    -0x8c(%ebp),%eax
 80485c0:	89 44 24 08          	mov    %eax,0x8(%esp)
 80485c4:	8b 45 0c             	mov    0xc(%ebp),%eax
 80485c7:	89 44 24 04          	mov    %eax,0x4(%esp)
 80485cb:	8b 45 08             	mov    0x8(%ebp),%eax
 80485ce:	89 04 24             	mov    %eax,(%esp)
 80485d1:	e8 6a 65 00 00       	call   804eb40 <__sprint_r>
 80485d6:	66 90                	xchg   %ax,%ax
 80485d8:	8b 45 0c             	mov    0xc(%ebp),%eax
 80485db:	f6 40 0c 40          	testb  $0x40,0xc(%eax)
 80485df:	75 97                	jne    8048578 <_vfprintf_r+0x218>
 80485e1:	8b 85 28 ff ff ff    	mov    -0xd8(%ebp),%eax
 80485e7:	81 c4 1c 01 00 00    	add    $0x11c,%esp
 80485ed:	5b                   	pop    %ebx
 80485ee:	5e                   	pop    %esi
 80485ef:	5f                   	pop    %edi
 80485f0:	5d                   	pop    %ebp
 80485f1:	c3                   	ret    
 80485f2:	8d b6 00 00 00 00    	lea    0x0(%esi),%esi
 80485f8:	89 04 24             	mov    %eax,(%esp)
 80485fb:	e8 50 36 00 00       	call   804bc50 <__sinit>
 8048600:	e9 9d fd ff ff       	jmp    80483a2 <_vfprintf_r+0x42>
 8048605:	bb 2b 00 00 00       	mov    $0x2b,%ebx
 804860a:	89 c8                	mov    %ecx,%eax
 804860c:	e9 bc fe ff ff       	jmp    80484cd <_vfprintf_r+0x16d>
 8048611:	89 85 24 ff ff ff    	mov    %eax,-0xdc(%ebp)
 8048617:	8b 45 14             	mov    0x14(%ebp),%eax
 804861a:	89 4d 10             	mov    %ecx,0x10(%ebp)
 804861d:	c6 85 59 ff ff ff 00 	movb   $0x0,-0xa7(%ebp)
 8048624:	8d 70 04             	lea    0x4(%eax),%esi
 8048627:	8b 00                	mov    (%eax),%eax
 8048629:	85 c0                	test   %eax,%eax
 804862b:	89 85 2c ff ff ff    	mov    %eax,-0xd4(%ebp)
 8048631:	0f 84 0a 18 00 00    	je     8049e41 <_vfprintf_r+0x1ae1>
 8048637:	8b 85 44 ff ff ff    	mov    -0xbc(%ebp),%eax
 804863d:	85 c0                	test   %eax,%eax
 804863f:	0f 88 41 17 00 00    	js     8049d86 <_vfprintf_r+0x1a26>
 8048645:	89 44 24 08          	mov    %eax,0x8(%esp)
 8048649:	8b 85 2c ff ff ff    	mov    -0xd4(%ebp),%eax
 804864f:	c7 44 24 04 00 00 00 	movl   $0x0,0x4(%esp)
 8048656:	00 
 8048657:	89 04 24             	mov    %eax,(%esp)
 804865a:	e8 01 4c 00 00       	call   804d260 <memchr>
 804865f:	85 c0                	test   %eax,%eax
 8048661:	0f 84 2b 19 00 00    	je     8049f92 <_vfprintf_r+0x1c32>
 8048667:	8b 95 44 ff ff ff    	mov    -0xbc(%ebp),%edx
 804866d:	2b 85 2c ff ff ff    	sub    -0xd4(%ebp),%eax
 8048673:	39 d0                	cmp    %edx,%eax
 8048675:	0f 4f c2             	cmovg  %edx,%eax
 8048678:	89 c2                	mov    %eax,%edx
 804867a:	0f b6 9d 59 ff ff ff 	movzbl -0xa7(%ebp),%ebx
 8048681:	89 85 38 ff ff ff    	mov    %eax,-0xc8(%ebp)
 8048687:	31 c0                	xor    %eax,%eax
 8048689:	85 d2                	test   %edx,%edx
 804868b:	0f 49 c2             	cmovns %edx,%eax
 804868e:	89 85 48 ff ff ff    	mov    %eax,-0xb8(%ebp)
 8048694:	89 75 14             	mov    %esi,0x14(%ebp)
 8048697:	c7 85 44 ff ff ff 00 	movl   $0x0,-0xbc(%ebp)
 804869e:	00 00 00 
 80486a1:	c7 85 20 ff ff ff 00 	movl   $0x0,-0xe0(%ebp)
 80486a8:	00 00 00 
 80486ab:	90                   	nop
 80486ac:	8d 74 26 00          	lea    0x0(%esi,%eiz,1),%esi
 80486b0:	84 db                	test   %bl,%bl
 80486b2:	74 07                	je     80486bb <_vfprintf_r+0x35b>
 80486b4:	83 85 48 ff ff ff 01 	addl   $0x1,-0xb8(%ebp)
 80486bb:	8b 8d 48 ff ff ff    	mov    -0xb8(%ebp),%ecx
 80486c1:	8b b5 4c ff ff ff    	mov    -0xb4(%ebp),%esi
 80486c7:	89 c8                	mov    %ecx,%eax
 80486c9:	89 f2                	mov    %esi,%edx
 80486cb:	83 c0 02             	add    $0x2,%eax
 80486ce:	83 e2 02             	and    $0x2,%edx
 80486d1:	89 95 34 ff ff ff    	mov    %edx,-0xcc(%ebp)
 80486d7:	89 f2                	mov    %esi,%edx
 80486d9:	0f 44 c1             	cmove  %ecx,%eax
 80486dc:	81 e2 84 00 00 00    	and    $0x84,%edx
 80486e2:	89 85 48 ff ff ff    	mov    %eax,-0xb8(%ebp)
 80486e8:	89 95 30 ff ff ff    	mov    %edx,-0xd0(%ebp)
 80486ee:	0f 85 1c 06 00 00    	jne    8048d10 <_vfprintf_r+0x9b0>
 80486f4:	8b b5 40 ff ff ff    	mov    -0xc0(%ebp),%esi
 80486fa:	2b b5 48 ff ff ff    	sub    -0xb8(%ebp),%esi
 8048700:	85 f6                	test   %esi,%esi
 8048702:	0f 8e 08 06 00 00    	jle    8048d10 <_vfprintf_r+0x9b0>
 8048708:	83 fe 10             	cmp    $0x10,%esi
 804870b:	8b 8d 7c ff ff ff    	mov    -0x84(%ebp),%ecx
 8048711:	8b 85 78 ff ff ff    	mov    -0x88(%ebp),%eax
 8048717:	8d 9d 74 ff ff ff    	lea    -0x8c(%ebp),%ebx
 804871d:	7f 11                	jg     8048730 <_vfprintf_r+0x3d0>
 804871f:	eb 6b                	jmp    804878c <_vfprintf_r+0x42c>
 8048721:	8d b4 26 00 00 00 00 	lea    0x0(%esi,%eiz,1),%esi
 8048728:	83 ee 10             	sub    $0x10,%esi
 804872b:	83 fe 10             	cmp    $0x10,%esi
 804872e:	7e 5c                	jle    804878c <_vfprintf_r+0x42c>
 8048730:	83 c0 01             	add    $0x1,%eax
 8048733:	83 c1 10             	add    $0x10,%ecx
 8048736:	c7 07 2c 07 05 08    	movl   $0x805072c,(%edi)
 804873c:	83 c7 08             	add    $0x8,%edi
 804873f:	c7 47 fc 10 00 00 00 	movl   $0x10,-0x4(%edi)
 8048746:	83 f8 07             	cmp    $0x7,%eax
 8048749:	89 8d 7c ff ff ff    	mov    %ecx,-0x84(%ebp)
 804874f:	89 85 78 ff ff ff    	mov    %eax,-0x88(%ebp)
 8048755:	7e d1                	jle    8048728 <_vfprintf_r+0x3c8>
 8048757:	8b 45 0c             	mov    0xc(%ebp),%eax
 804875a:	89 5c 24 08          	mov    %ebx,0x8(%esp)
 804875e:	89 44 24 04          	mov    %eax,0x4(%esp)
 8048762:	8b 45 08             	mov    0x8(%ebp),%eax
 8048765:	89 04 24             	mov    %eax,(%esp)
 8048768:	e8 d3 63 00 00       	call   804eb40 <__sprint_r>
 804876d:	85 c0                	test   %eax,%eax
 804876f:	0f 85 63 fe ff ff    	jne    80485d8 <_vfprintf_r+0x278>
 8048775:	83 ee 10             	sub    $0x10,%esi
 8048778:	8b 8d 7c ff ff ff    	mov    -0x84(%ebp),%ecx
 804877e:	83 fe 10             	cmp    $0x10,%esi
 8048781:	8b 85 78 ff ff ff    	mov    -0x88(%ebp),%eax
 8048787:	8d 7d a8             	lea    -0x58(%ebp),%edi
 804878a:	7f a4                	jg     8048730 <_vfprintf_r+0x3d0>
 804878c:	83 c0 01             	add    $0x1,%eax
 804878f:	01 f1                	add    %esi,%ecx
 8048791:	83 f8 07             	cmp    $0x7,%eax
 8048794:	c7 07 2c 07 05 08    	movl   $0x805072c,(%edi)
 804879a:	89 77 04             	mov    %esi,0x4(%edi)
 804879d:	89 8d 7c ff ff ff    	mov    %ecx,-0x84(%ebp)
 80487a3:	89 85 78 ff ff ff    	mov    %eax,-0x88(%ebp)
 80487a9:	0f 8f 16 0e 00 00    	jg     80495c5 <_vfprintf_r+0x1265>
 80487af:	83 c7 08             	add    $0x8,%edi
 80487b2:	0f b6 9d 59 ff ff ff 	movzbl -0xa7(%ebp),%ebx
 80487b9:	e9 58 05 00 00       	jmp    8048d16 <_vfprintf_r+0x9b6>
 80487be:	f6 85 4c ff ff ff 10 	testb  $0x10,-0xb4(%ebp)
 80487c5:	89 85 24 ff ff ff    	mov    %eax,-0xdc(%ebp)
 80487cb:	8b 45 14             	mov    0x14(%ebp),%eax
 80487ce:	89 4d 10             	mov    %ecx,0x10(%ebp)
 80487d1:	0f 85 15 02 00 00    	jne    80489ec <_vfprintf_r+0x68c>
 80487d7:	f6 85 4c ff ff ff 40 	testb  $0x40,-0xb4(%ebp)
 80487de:	0f 84 08 02 00 00    	je     80489ec <_vfprintf_r+0x68c>
 80487e4:	0f b7 08             	movzwl (%eax),%ecx
 80487e7:	83 c0 04             	add    $0x4,%eax
 80487ea:	89 45 14             	mov    %eax,0x14(%ebp)
 80487ed:	b8 01 00 00 00       	mov    $0x1,%eax
 80487f2:	8d b6 00 00 00 00    	lea    0x0(%esi),%esi
 80487f8:	c6 85 59 ff ff ff 00 	movb   $0x0,-0xa7(%ebp)
 80487ff:	31 db                	xor    %ebx,%ebx
 8048801:	8b b5 4c ff ff ff    	mov    -0xb4(%ebp),%esi
 8048807:	89 f2                	mov    %esi,%edx
 8048809:	80 e2 7f             	and    $0x7f,%dl
 804880c:	83 bd 44 ff ff ff 00 	cmpl   $0x0,-0xbc(%ebp)
 8048813:	0f 48 d6             	cmovs  %esi,%edx
 8048816:	89 95 4c ff ff ff    	mov    %edx,-0xb4(%ebp)
 804881c:	8b 95 44 ff ff ff    	mov    -0xbc(%ebp),%edx
 8048822:	85 d2                	test   %edx,%edx
 8048824:	75 08                	jne    804882e <_vfprintf_r+0x4ce>
 8048826:	85 c9                	test   %ecx,%ecx
 8048828:	0f 84 ea 08 00 00    	je     8049118 <_vfprintf_r+0xdb8>
 804882e:	3c 01                	cmp    $0x1,%al
 8048830:	0f 84 6a 0d 00 00    	je     80495a0 <_vfprintf_r+0x1240>
 8048836:	3c 02                	cmp    $0x2,%al
 8048838:	8d 45 a8             	lea    -0x58(%ebp),%eax
 804883b:	0f 85 bf 0b 00 00    	jne    8049400 <_vfprintf_r+0x10a0>
 8048841:	8b b5 08 ff ff ff    	mov    -0xf8(%ebp),%esi
 8048847:	90                   	nop
 8048848:	89 ca                	mov    %ecx,%edx
 804884a:	83 e8 01             	sub    $0x1,%eax
 804884d:	83 e2 0f             	and    $0xf,%edx
 8048850:	0f b6 14 16          	movzbl (%esi,%edx,1),%edx
 8048854:	c1 e9 04             	shr    $0x4,%ecx
 8048857:	85 c9                	test   %ecx,%ecx
 8048859:	88 10                	mov    %dl,(%eax)
 804885b:	75 eb                	jne    8048848 <_vfprintf_r+0x4e8>
 804885d:	8d 55 a8             	lea    -0x58(%ebp),%edx
 8048860:	29 c2                	sub    %eax,%edx
 8048862:	89 85 2c ff ff ff    	mov    %eax,-0xd4(%ebp)
 8048868:	89 95 38 ff ff ff    	mov    %edx,-0xc8(%ebp)
 804886e:	66 90                	xchg   %ax,%ax
 8048870:	8b 85 44 ff ff ff    	mov    -0xbc(%ebp),%eax
 8048876:	8b 95 38 ff ff ff    	mov    -0xc8(%ebp),%edx
 804887c:	c7 85 20 ff ff ff 00 	movl   $0x0,-0xe0(%ebp)
 8048883:	00 00 00 
 8048886:	39 c2                	cmp    %eax,%edx
 8048888:	0f 4d c2             	cmovge %edx,%eax
 804888b:	89 85 48 ff ff ff    	mov    %eax,-0xb8(%ebp)
 8048891:	e9 1a fe ff ff       	jmp    80486b0 <_vfprintf_r+0x350>
 8048896:	81 8d 4c ff ff ff 80 	orl    $0x80,-0xb4(%ebp)
 804889d:	00 00 00 
 80488a0:	89 c8                	mov    %ecx,%eax
 80488a2:	e9 26 fc ff ff       	jmp    80484cd <_vfprintf_r+0x16d>
 80488a7:	89 bd 48 ff ff ff    	mov    %edi,-0xb8(%ebp)
 80488ad:	8d 50 d0             	lea    -0x30(%eax),%edx
 80488b0:	31 ff                	xor    %edi,%edi
 80488b2:	c7 85 40 ff ff ff 00 	movl   $0x0,-0xc0(%ebp)
 80488b9:	00 00 00 
 80488bc:	8d 74 26 00          	lea    0x0(%esi,%eiz,1),%esi
 80488c0:	8d 04 bf             	lea    (%edi,%edi,4),%eax
 80488c3:	83 c1 01             	add    $0x1,%ecx
 80488c6:	8d 3c 42             	lea    (%edx,%eax,2),%edi
 80488c9:	0f be 41 ff          	movsbl -0x1(%ecx),%eax
 80488cd:	8d 50 d0             	lea    -0x30(%eax),%edx
 80488d0:	83 fa 09             	cmp    $0x9,%edx
 80488d3:	76 eb                	jbe    80488c0 <_vfprintf_r+0x560>
 80488d5:	89 bd 40 ff ff ff    	mov    %edi,-0xc0(%ebp)
 80488db:	8b bd 48 ff ff ff    	mov    -0xb8(%ebp),%edi
 80488e1:	e9 ed fb ff ff       	jmp    80484d3 <_vfprintf_r+0x173>
 80488e6:	8d 41 01             	lea    0x1(%ecx),%eax
 80488e9:	89 85 48 ff ff ff    	mov    %eax,-0xb8(%ebp)
 80488ef:	0f be 01             	movsbl (%ecx),%eax
 80488f2:	83 f8 2a             	cmp    $0x2a,%eax
 80488f5:	0f 84 1e 19 00 00    	je     804a219 <_vfprintf_r+0x1eb9>
 80488fb:	8d 50 d0             	lea    -0x30(%eax),%edx
 80488fe:	31 c9                	xor    %ecx,%ecx
 8048900:	83 fa 09             	cmp    $0x9,%edx
 8048903:	0f 87 8d 17 00 00    	ja     804a096 <_vfprintf_r+0x1d36>
 8048909:	89 bd 44 ff ff ff    	mov    %edi,-0xbc(%ebp)
 804890f:	8b bd 48 ff ff ff    	mov    -0xb8(%ebp),%edi
 8048915:	8d 76 00             	lea    0x0(%esi),%esi
 8048918:	8d 04 89             	lea    (%ecx,%ecx,4),%eax
 804891b:	83 c7 01             	add    $0x1,%edi
 804891e:	8d 0c 42             	lea    (%edx,%eax,2),%ecx
 8048921:	0f be 47 ff          	movsbl -0x1(%edi),%eax
 8048925:	8d 50 d0             	lea    -0x30(%eax),%edx
 8048928:	83 fa 09             	cmp    $0x9,%edx
 804892b:	76 eb                	jbe    8048918 <_vfprintf_r+0x5b8>
 804892d:	85 c9                	test   %ecx,%ecx
 804892f:	89 ca                	mov    %ecx,%edx
 8048931:	b9 ff ff ff ff       	mov    $0xffffffff,%ecx
 8048936:	0f 48 d1             	cmovs  %ecx,%edx
 8048939:	89 bd 48 ff ff ff    	mov    %edi,-0xb8(%ebp)
 804893f:	8b bd 44 ff ff ff    	mov    -0xbc(%ebp),%edi
 8048945:	8b 8d 48 ff ff ff    	mov    -0xb8(%ebp),%ecx
 804894b:	89 95 44 ff ff ff    	mov    %edx,-0xbc(%ebp)
 8048951:	e9 7d fb ff ff       	jmp    80484d3 <_vfprintf_r+0x173>
 8048956:	8b 45 14             	mov    0x14(%ebp),%eax
 8048959:	89 4d 10             	mov    %ecx,0x10(%ebp)
 804895c:	83 8d 4c ff ff ff 02 	orl    $0x2,-0xb4(%ebp)
 8048963:	8b 08                	mov    (%eax),%ecx
 8048965:	83 c0 04             	add    $0x4,%eax
 8048968:	89 45 14             	mov    %eax,0x14(%ebp)
 804896b:	b8 02 00 00 00       	mov    $0x2,%eax
 8048970:	c6 85 5a ff ff ff 30 	movb   $0x30,-0xa6(%ebp)
 8048977:	c6 85 5b ff ff ff 78 	movb   $0x78,-0xa5(%ebp)
 804897e:	c7 85 08 ff ff ff 9e 	movl   $0x805059e,-0xf8(%ebp)
 8048985:	05 05 08 
 8048988:	c7 85 24 ff ff ff 78 	movl   $0x78,-0xdc(%ebp)
 804898f:	00 00 00 
 8048992:	e9 61 fe ff ff       	jmp    80487f8 <_vfprintf_r+0x498>
 8048997:	83 8d 4c ff ff ff 10 	orl    $0x10,-0xb4(%ebp)
 804899e:	f6 85 4c ff ff ff 10 	testb  $0x10,-0xb4(%ebp)
 80489a5:	89 85 24 ff ff ff    	mov    %eax,-0xdc(%ebp)
 80489ab:	8b 45 14             	mov    0x14(%ebp),%eax
 80489ae:	89 4d 10             	mov    %ecx,0x10(%ebp)
 80489b1:	75 60                	jne    8048a13 <_vfprintf_r+0x6b3>
 80489b3:	f6 85 4c ff ff ff 40 	testb  $0x40,-0xb4(%ebp)
 80489ba:	74 57                	je     8048a13 <_vfprintf_r+0x6b3>
 80489bc:	0f b7 08             	movzwl (%eax),%ecx
 80489bf:	83 c0 04             	add    $0x4,%eax
 80489c2:	89 45 14             	mov    %eax,0x14(%ebp)
 80489c5:	31 c0                	xor    %eax,%eax
 80489c7:	e9 2c fe ff ff       	jmp    80487f8 <_vfprintf_r+0x498>
 80489cc:	83 8d 4c ff ff ff 10 	orl    $0x10,-0xb4(%ebp)
 80489d3:	f6 85 4c ff ff ff 10 	testb  $0x10,-0xb4(%ebp)
 80489da:	89 85 24 ff ff ff    	mov    %eax,-0xdc(%ebp)
 80489e0:	8b 45 14             	mov    0x14(%ebp),%eax
 80489e3:	89 4d 10             	mov    %ecx,0x10(%ebp)
 80489e6:	0f 84 eb fd ff ff    	je     80487d7 <_vfprintf_r+0x477>
 80489ec:	8b 08                	mov    (%eax),%ecx
 80489ee:	83 c0 04             	add    $0x4,%eax
 80489f1:	89 45 14             	mov    %eax,0x14(%ebp)
 80489f4:	b8 01 00 00 00       	mov    $0x1,%eax
 80489f9:	e9 fa fd ff ff       	jmp    80487f8 <_vfprintf_r+0x498>
 80489fe:	f6 85 4c ff ff ff 10 	testb  $0x10,-0xb4(%ebp)
 8048a05:	89 85 24 ff ff ff    	mov    %eax,-0xdc(%ebp)
 8048a0b:	8b 45 14             	mov    0x14(%ebp),%eax
 8048a0e:	89 4d 10             	mov    %ecx,0x10(%ebp)
 8048a11:	74 a0                	je     80489b3 <_vfprintf_r+0x653>
 8048a13:	8b 08                	mov    (%eax),%ecx
 8048a15:	83 c0 04             	add    $0x4,%eax
 8048a18:	89 45 14             	mov    %eax,0x14(%ebp)
 8048a1b:	31 c0                	xor    %eax,%eax
 8048a1d:	e9 d6 fd ff ff       	jmp    80487f8 <_vfprintf_r+0x498>
 8048a22:	83 8d 4c ff ff ff 10 	orl    $0x10,-0xb4(%ebp)
 8048a29:	f6 85 4c ff ff ff 10 	testb  $0x10,-0xb4(%ebp)
 8048a30:	89 85 24 ff ff ff    	mov    %eax,-0xdc(%ebp)
 8048a36:	8b 45 14             	mov    0x14(%ebp),%eax
 8048a39:	89 4d 10             	mov    %ecx,0x10(%ebp)
 8048a3c:	88 9d 59 ff ff ff    	mov    %bl,-0xa7(%ebp)
 8048a42:	0f 85 d3 01 00 00    	jne    8048c1b <_vfprintf_r+0x8bb>
 8048a48:	f6 85 4c ff ff ff 40 	testb  $0x40,-0xb4(%ebp)
 8048a4f:	0f 84 c6 01 00 00    	je     8048c1b <_vfprintf_r+0x8bb>
 8048a55:	0f bf 08             	movswl (%eax),%ecx
 8048a58:	83 c0 04             	add    $0x4,%eax
 8048a5b:	89 45 14             	mov    %eax,0x14(%ebp)
 8048a5e:	85 c9                	test   %ecx,%ecx
 8048a60:	0f 88 9b 0e 00 00    	js     8049901 <_vfprintf_r+0x15a1>
 8048a66:	0f b6 9d 59 ff ff ff 	movzbl -0xa7(%ebp),%ebx
 8048a6d:	b8 01 00 00 00       	mov    $0x1,%eax
 8048a72:	e9 8a fd ff ff       	jmp    8048801 <_vfprintf_r+0x4a1>
 8048a77:	f6 85 4c ff ff ff 08 	testb  $0x8,-0xb4(%ebp)
 8048a7e:	89 85 24 ff ff ff    	mov    %eax,-0xdc(%ebp)
 8048a84:	8b 45 14             	mov    0x14(%ebp),%eax
 8048a87:	89 4d 10             	mov    %ecx,0x10(%ebp)
 8048a8a:	88 9d 59 ff ff ff    	mov    %bl,-0xa7(%ebp)
 8048a90:	0f 84 2a 10 00 00    	je     8049ac0 <_vfprintf_r+0x1760>
 8048a96:	db 28                	fldt   (%eax)
 8048a98:	83 c0 0c             	add    $0xc,%eax
 8048a9b:	89 45 14             	mov    %eax,0x14(%ebp)
 8048a9e:	dd 9d 10 ff ff ff    	fstpl  -0xf0(%ebp)
 8048aa4:	dd 85 10 ff ff ff    	fldl   -0xf0(%ebp)
 8048aaa:	dd 1c 24             	fstpl  (%esp)
 8048aad:	e8 8e 5d 00 00       	call   804e840 <__fpclassifyd>
 8048ab2:	83 f8 01             	cmp    $0x1,%eax
 8048ab5:	0f 85 5e 0e 00 00    	jne    8049919 <_vfprintf_r+0x15b9>
 8048abb:	d9 ee                	fldz   
 8048abd:	dd 85 10 ff ff ff    	fldl   -0xf0(%ebp)
 8048ac3:	d9 c9                	fxch   %st(1)
 8048ac5:	df e9                	fucomip %st(1),%st
 8048ac7:	dd d8                	fstp   %st(0)
 8048ac9:	0f 87 4d 14 00 00    	ja     8049f1c <_vfprintf_r+0x1bbc>
 8048acf:	0f b6 9d 59 ff ff ff 	movzbl -0xa7(%ebp),%ebx
 8048ad6:	83 bd 24 ff ff ff 47 	cmpl   $0x47,-0xdc(%ebp)
 8048add:	ba 7d 05 05 08       	mov    $0x805057d,%edx
 8048ae2:	b8 81 05 05 08       	mov    $0x8050581,%eax
 8048ae7:	c7 85 48 ff ff ff 03 	movl   $0x3,-0xb8(%ebp)
 8048aee:	00 00 00 
 8048af1:	0f 4e c2             	cmovle %edx,%eax
 8048af4:	89 85 2c ff ff ff    	mov    %eax,-0xd4(%ebp)
 8048afa:	81 a5 4c ff ff ff 7f 	andl   $0xffffff7f,-0xb4(%ebp)
 8048b01:	ff ff ff 
 8048b04:	c7 85 38 ff ff ff 03 	movl   $0x3,-0xc8(%ebp)
 8048b0b:	00 00 00 
 8048b0e:	c7 85 44 ff ff ff 00 	movl   $0x0,-0xbc(%ebp)
 8048b15:	00 00 00 
 8048b18:	c7 85 20 ff ff ff 00 	movl   $0x0,-0xe0(%ebp)
 8048b1f:	00 00 00 
 8048b22:	e9 89 fb ff ff       	jmp    80486b0 <_vfprintf_r+0x350>
 8048b27:	83 8d 4c ff ff ff 08 	orl    $0x8,-0xb4(%ebp)
 8048b2e:	89 c8                	mov    %ecx,%eax
 8048b30:	e9 98 f9 ff ff       	jmp    80484cd <_vfprintf_r+0x16d>
 8048b35:	f6 85 4c ff ff ff 10 	testb  $0x10,-0xb4(%ebp)
 8048b3c:	89 85 24 ff ff ff    	mov    %eax,-0xdc(%ebp)
 8048b42:	8b 45 14             	mov    0x14(%ebp),%eax
 8048b45:	89 4d 10             	mov    %ecx,0x10(%ebp)
 8048b48:	88 9d 59 ff ff ff    	mov    %bl,-0xa7(%ebp)
 8048b4e:	c7 85 08 ff ff ff 9e 	movl   $0x805059e,-0xf8(%ebp)
 8048b55:	05 05 08 
 8048b58:	0f 85 0d 01 00 00    	jne    8048c6b <_vfprintf_r+0x90b>
 8048b5e:	f6 85 4c ff ff ff 40 	testb  $0x40,-0xb4(%ebp)
 8048b65:	0f 84 00 01 00 00    	je     8048c6b <_vfprintf_r+0x90b>
 8048b6b:	0f b7 08             	movzwl (%eax),%ecx
 8048b6e:	83 c0 04             	add    $0x4,%eax
 8048b71:	89 45 14             	mov    %eax,0x14(%ebp)
 8048b74:	f6 85 4c ff ff ff 01 	testb  $0x1,-0xb4(%ebp)
 8048b7b:	b8 02 00 00 00       	mov    $0x2,%eax
 8048b80:	0f 84 72 fc ff ff    	je     80487f8 <_vfprintf_r+0x498>
 8048b86:	85 c9                	test   %ecx,%ecx
 8048b88:	0f 84 6a fc ff ff    	je     80487f8 <_vfprintf_r+0x498>
 8048b8e:	0f b6 95 24 ff ff ff 	movzbl -0xdc(%ebp),%edx
 8048b95:	c6 85 5a ff ff ff 30 	movb   $0x30,-0xa6(%ebp)
 8048b9c:	83 8d 4c ff ff ff 02 	orl    $0x2,-0xb4(%ebp)
 8048ba3:	88 95 5b ff ff ff    	mov    %dl,-0xa5(%ebp)
 8048ba9:	e9 4a fc ff ff       	jmp    80487f8 <_vfprintf_r+0x498>
 8048bae:	f6 85 4c ff ff ff 10 	testb  $0x10,-0xb4(%ebp)
 8048bb5:	89 4d 10             	mov    %ecx,0x10(%ebp)
 8048bb8:	88 9d 59 ff ff ff    	mov    %bl,-0xa7(%ebp)
 8048bbe:	0f 85 30 01 00 00    	jne    8048cf4 <_vfprintf_r+0x994>
 8048bc4:	f6 85 4c ff ff ff 40 	testb  $0x40,-0xb4(%ebp)
 8048bcb:	0f 84 23 01 00 00    	je     8048cf4 <_vfprintf_r+0x994>
 8048bd1:	8b 45 14             	mov    0x14(%ebp),%eax
 8048bd4:	0f b7 95 28 ff ff ff 	movzwl -0xd8(%ebp),%edx
 8048bdb:	8b 00                	mov    (%eax),%eax
 8048bdd:	66 89 10             	mov    %dx,(%eax)
 8048be0:	8b 45 14             	mov    0x14(%ebp),%eax
 8048be3:	83 c0 04             	add    $0x4,%eax
 8048be6:	89 45 14             	mov    %eax,0x14(%ebp)
 8048be9:	e9 4e f8 ff ff       	jmp    804843c <_vfprintf_r+0xdc>
 8048bee:	83 8d 4c ff ff ff 40 	orl    $0x40,-0xb4(%ebp)
 8048bf5:	89 c8                	mov    %ecx,%eax
 8048bf7:	e9 d1 f8 ff ff       	jmp    80484cd <_vfprintf_r+0x16d>
 8048bfc:	f6 85 4c ff ff ff 10 	testb  $0x10,-0xb4(%ebp)
 8048c03:	89 85 24 ff ff ff    	mov    %eax,-0xdc(%ebp)
 8048c09:	8b 45 14             	mov    0x14(%ebp),%eax
 8048c0c:	89 4d 10             	mov    %ecx,0x10(%ebp)
 8048c0f:	88 9d 59 ff ff ff    	mov    %bl,-0xa7(%ebp)
 8048c15:	0f 84 2d fe ff ff    	je     8048a48 <_vfprintf_r+0x6e8>
 8048c1b:	8b 08                	mov    (%eax),%ecx
 8048c1d:	83 c0 04             	add    $0x4,%eax
 8048c20:	89 45 14             	mov    %eax,0x14(%ebp)
 8048c23:	e9 36 fe ff ff       	jmp    8048a5e <_vfprintf_r+0x6fe>
 8048c28:	84 db                	test   %bl,%bl
 8048c2a:	89 c8                	mov    %ecx,%eax
 8048c2c:	0f 44 de             	cmove  %esi,%ebx
 8048c2f:	e9 99 f8 ff ff       	jmp    80484cd <_vfprintf_r+0x16d>
 8048c34:	83 8d 4c ff ff ff 01 	orl    $0x1,-0xb4(%ebp)
 8048c3b:	89 c8                	mov    %ecx,%eax
 8048c3d:	e9 8b f8 ff ff       	jmp    80484cd <_vfprintf_r+0x16d>
 8048c42:	f6 85 4c ff ff ff 10 	testb  $0x10,-0xb4(%ebp)
 8048c49:	89 85 24 ff ff ff    	mov    %eax,-0xdc(%ebp)
 8048c4f:	8b 45 14             	mov    0x14(%ebp),%eax
 8048c52:	89 4d 10             	mov    %ecx,0x10(%ebp)
 8048c55:	88 9d 59 ff ff ff    	mov    %bl,-0xa7(%ebp)
 8048c5b:	c7 85 08 ff ff ff 8d 	movl   $0x805058d,-0xf8(%ebp)
 8048c62:	05 05 08 
 8048c65:	0f 84 f3 fe ff ff    	je     8048b5e <_vfprintf_r+0x7fe>
 8048c6b:	8b 08                	mov    (%eax),%ecx
 8048c6d:	83 c0 04             	add    $0x4,%eax
 8048c70:	89 45 14             	mov    %eax,0x14(%ebp)
 8048c73:	e9 fc fe ff ff       	jmp    8048b74 <_vfprintf_r+0x814>
 8048c78:	89 85 24 ff ff ff    	mov    %eax,-0xdc(%ebp)
 8048c7e:	8b 45 14             	mov    0x14(%ebp),%eax
 8048c81:	89 4d 10             	mov    %ecx,0x10(%ebp)
 8048c84:	c6 85 59 ff ff ff 00 	movb   $0x0,-0xa7(%ebp)
 8048c8b:	8b 00                	mov    (%eax),%eax
 8048c8d:	88 45 80             	mov    %al,-0x80(%ebp)
 8048c90:	8b 45 14             	mov    0x14(%ebp),%eax
 8048c93:	83 c0 04             	add    $0x4,%eax
 8048c96:	89 45 14             	mov    %eax,0x14(%ebp)
 8048c99:	8d 45 80             	lea    -0x80(%ebp),%eax
 8048c9c:	31 db                	xor    %ebx,%ebx
 8048c9e:	c7 85 48 ff ff ff 01 	movl   $0x1,-0xb8(%ebp)
 8048ca5:	00 00 00 
 8048ca8:	c7 85 38 ff ff ff 01 	movl   $0x1,-0xc8(%ebp)
 8048caf:	00 00 00 
 8048cb2:	c7 85 44 ff ff ff 00 	movl   $0x0,-0xbc(%ebp)
 8048cb9:	00 00 00 
 8048cbc:	c7 85 20 ff ff ff 00 	movl   $0x0,-0xe0(%ebp)
 8048cc3:	00 00 00 
 8048cc6:	89 85 2c ff ff ff    	mov    %eax,-0xd4(%ebp)
 8048ccc:	e9 ea f9 ff ff       	jmp    80486bb <_vfprintf_r+0x35b>
 8048cd1:	85 c0                	test   %eax,%eax
 8048cd3:	89 85 24 ff ff ff    	mov    %eax,-0xdc(%ebp)
 8048cd9:	89 4d 10             	mov    %ecx,0x10(%ebp)
 8048cdc:	88 9d 59 ff ff ff    	mov    %bl,-0xa7(%ebp)
 8048ce2:	0f 84 c8 f8 ff ff    	je     80485b0 <_vfprintf_r+0x250>
 8048ce8:	88 45 80             	mov    %al,-0x80(%ebp)
 8048ceb:	c6 85 59 ff ff ff 00 	movb   $0x0,-0xa7(%ebp)
 8048cf2:	eb a5                	jmp    8048c99 <_vfprintf_r+0x939>
 8048cf4:	8b 45 14             	mov    0x14(%ebp),%eax
 8048cf7:	8b 95 28 ff ff ff    	mov    -0xd8(%ebp),%edx
 8048cfd:	8b 00                	mov    (%eax),%eax
 8048cff:	89 10                	mov    %edx,(%eax)
 8048d01:	8b 45 14             	mov    0x14(%ebp),%eax
 8048d04:	83 c0 04             	add    $0x4,%eax
 8048d07:	89 45 14             	mov    %eax,0x14(%ebp)
 8048d0a:	e9 2d f7 ff ff       	jmp    804843c <_vfprintf_r+0xdc>
 8048d0f:	90                   	nop
 8048d10:	8b 8d 7c ff ff ff    	mov    -0x84(%ebp),%ecx
 8048d16:	84 db                	test   %bl,%bl
 8048d18:	74 33                	je     8048d4d <_vfprintf_r+0x9ed>
 8048d1a:	8d 85 59 ff ff ff    	lea    -0xa7(%ebp),%eax
 8048d20:	83 c1 01             	add    $0x1,%ecx
 8048d23:	89 07                	mov    %eax,(%edi)
 8048d25:	8b 85 78 ff ff ff    	mov    -0x88(%ebp),%eax
 8048d2b:	83 c7 08             	add    $0x8,%edi
 8048d2e:	c7 47 fc 01 00 00 00 	movl   $0x1,-0x4(%edi)
 8048d35:	89 8d 7c ff ff ff    	mov    %ecx,-0x84(%ebp)
 8048d3b:	83 c0 01             	add    $0x1,%eax
 8048d3e:	83 f8 07             	cmp    $0x7,%eax
 8048d41:	89 85 78 ff ff ff    	mov    %eax,-0x88(%ebp)
 8048d47:	0f 8f 43 06 00 00    	jg     8049390 <_vfprintf_r+0x1030>
 8048d4d:	8b 9d 34 ff ff ff    	mov    -0xcc(%ebp),%ebx
 8048d53:	85 db                	test   %ebx,%ebx
 8048d55:	74 33                	je     8048d8a <_vfprintf_r+0xa2a>
 8048d57:	8d 85 5a ff ff ff    	lea    -0xa6(%ebp),%eax
 8048d5d:	83 c1 02             	add    $0x2,%ecx
 8048d60:	89 07                	mov    %eax,(%edi)
 8048d62:	8b 85 78 ff ff ff    	mov    -0x88(%ebp),%eax
 8048d68:	83 c7 08             	add    $0x8,%edi
 8048d6b:	c7 47 fc 02 00 00 00 	movl   $0x2,-0x4(%edi)
 8048d72:	89 8d 7c ff ff ff    	mov    %ecx,-0x84(%ebp)
 8048d78:	83 c0 01             	add    $0x1,%eax
 8048d7b:	83 f8 07             	cmp    $0x7,%eax
 8048d7e:	89 85 78 ff ff ff    	mov    %eax,-0x88(%ebp)
 8048d84:	0f 8f 3e 06 00 00    	jg     80493c8 <_vfprintf_r+0x1068>
 8048d8a:	81 bd 30 ff ff ff 80 	cmpl   $0x80,-0xd0(%ebp)
 8048d91:	00 00 00 
 8048d94:	0f 84 c6 03 00 00    	je     8049160 <_vfprintf_r+0xe00>
 8048d9a:	8b b5 44 ff ff ff    	mov    -0xbc(%ebp),%esi
 8048da0:	2b b5 38 ff ff ff    	sub    -0xc8(%ebp),%esi
 8048da6:	85 f6                	test   %esi,%esi
 8048da8:	0f 8e d2 00 00 00    	jle    8048e80 <_vfprintf_r+0xb20>
 8048dae:	83 fe 10             	cmp    $0x10,%esi
 8048db1:	8b 85 78 ff ff ff    	mov    -0x88(%ebp),%eax
 8048db7:	8d 9d 74 ff ff ff    	lea    -0x8c(%ebp),%ebx
 8048dbd:	7f 11                	jg     8048dd0 <_vfprintf_r+0xa70>
 8048dbf:	eb 6b                	jmp    8048e2c <_vfprintf_r+0xacc>
 8048dc1:	8d b4 26 00 00 00 00 	lea    0x0(%esi,%eiz,1),%esi
 8048dc8:	83 ee 10             	sub    $0x10,%esi
 8048dcb:	83 fe 10             	cmp    $0x10,%esi
 8048dce:	7e 5c                	jle    8048e2c <_vfprintf_r+0xacc>
 8048dd0:	83 c0 01             	add    $0x1,%eax
 8048dd3:	83 c1 10             	add    $0x10,%ecx
 8048dd6:	c7 07 1c 07 05 08    	movl   $0x805071c,(%edi)
 8048ddc:	83 c7 08             	add    $0x8,%edi
 8048ddf:	c7 47 fc 10 00 00 00 	movl   $0x10,-0x4(%edi)
 8048de6:	83 f8 07             	cmp    $0x7,%eax
 8048de9:	89 8d 7c ff ff ff    	mov    %ecx,-0x84(%ebp)
 8048def:	89 85 78 ff ff ff    	mov    %eax,-0x88(%ebp)
 8048df5:	7e d1                	jle    8048dc8 <_vfprintf_r+0xa68>
 8048df7:	8b 45 0c             	mov    0xc(%ebp),%eax
 8048dfa:	89 5c 24 08          	mov    %ebx,0x8(%esp)
 8048dfe:	89 44 24 04          	mov    %eax,0x4(%esp)
 8048e02:	8b 45 08             	mov    0x8(%ebp),%eax
 8048e05:	89 04 24             	mov    %eax,(%esp)
 8048e08:	e8 33 5d 00 00       	call   804eb40 <__sprint_r>
 8048e0d:	85 c0                	test   %eax,%eax
 8048e0f:	0f 85 c3 f7 ff ff    	jne    80485d8 <_vfprintf_r+0x278>
 8048e15:	83 ee 10             	sub    $0x10,%esi
 8048e18:	8b 8d 7c ff ff ff    	mov    -0x84(%ebp),%ecx
 8048e1e:	83 fe 10             	cmp    $0x10,%esi
 8048e21:	8b 85 78 ff ff ff    	mov    -0x88(%ebp),%eax
 8048e27:	8d 7d a8             	lea    -0x58(%ebp),%edi
 8048e2a:	7f a4                	jg     8048dd0 <_vfprintf_r+0xa70>
 8048e2c:	83 c0 01             	add    $0x1,%eax
 8048e2f:	01 f1                	add    %esi,%ecx
 8048e31:	c7 07 1c 07 05 08    	movl   $0x805071c,(%edi)
 8048e37:	83 c7 08             	add    $0x8,%edi
 8048e3a:	89 77 fc             	mov    %esi,-0x4(%edi)
 8048e3d:	83 f8 07             	cmp    $0x7,%eax
 8048e40:	89 8d 7c ff ff ff    	mov    %ecx,-0x84(%ebp)
 8048e46:	89 85 78 ff ff ff    	mov    %eax,-0x88(%ebp)
 8048e4c:	7e 32                	jle    8048e80 <_vfprintf_r+0xb20>
 8048e4e:	8d 85 74 ff ff ff    	lea    -0x8c(%ebp),%eax
 8048e54:	89 44 24 08          	mov    %eax,0x8(%esp)
 8048e58:	8b 45 0c             	mov    0xc(%ebp),%eax
 8048e5b:	89 44 24 04          	mov    %eax,0x4(%esp)
 8048e5f:	8b 45 08             	mov    0x8(%ebp),%eax
 8048e62:	89 04 24             	mov    %eax,(%esp)
 8048e65:	e8 d6 5c 00 00       	call   804eb40 <__sprint_r>
 8048e6a:	85 c0                	test   %eax,%eax
 8048e6c:	0f 85 66 f7 ff ff    	jne    80485d8 <_vfprintf_r+0x278>
 8048e72:	8b 8d 7c ff ff ff    	mov    -0x84(%ebp),%ecx
 8048e78:	8d 7d a8             	lea    -0x58(%ebp),%edi
 8048e7b:	90                   	nop
 8048e7c:	8d 74 26 00          	lea    0x0(%esi,%eiz,1),%esi
 8048e80:	f7 85 4c ff ff ff 00 	testl  $0x100,-0xb4(%ebp)
 8048e87:	01 00 00 
 8048e8a:	0f 85 50 01 00 00    	jne    8048fe0 <_vfprintf_r+0xc80>
 8048e90:	8b 85 2c ff ff ff    	mov    -0xd4(%ebp),%eax
 8048e96:	89 07                	mov    %eax,(%edi)
 8048e98:	8b 85 38 ff ff ff    	mov    -0xc8(%ebp),%eax
 8048e9e:	01 c1                	add    %eax,%ecx
 8048ea0:	89 47 04             	mov    %eax,0x4(%edi)
 8048ea3:	8b 85 78 ff ff ff    	mov    -0x88(%ebp),%eax
 8048ea9:	89 8d 7c ff ff ff    	mov    %ecx,-0x84(%ebp)
 8048eaf:	83 c0 01             	add    $0x1,%eax
 8048eb2:	83 f8 07             	cmp    $0x7,%eax
 8048eb5:	89 85 78 ff ff ff    	mov    %eax,-0x88(%ebp)
 8048ebb:	0f 8f 6a 04 00 00    	jg     804932b <_vfprintf_r+0xfcb>
 8048ec1:	83 c7 08             	add    $0x8,%edi
 8048ec4:	f6 85 4c ff ff ff 04 	testb  $0x4,-0xb4(%ebp)
 8048ecb:	0f 84 d7 00 00 00    	je     8048fa8 <_vfprintf_r+0xc48>
 8048ed1:	8b b5 40 ff ff ff    	mov    -0xc0(%ebp),%esi
 8048ed7:	2b b5 48 ff ff ff    	sub    -0xb8(%ebp),%esi
 8048edd:	85 f6                	test   %esi,%esi
 8048edf:	0f 8e c3 00 00 00    	jle    8048fa8 <_vfprintf_r+0xc48>
 8048ee5:	83 fe 10             	cmp    $0x10,%esi
 8048ee8:	8b 85 78 ff ff ff    	mov    -0x88(%ebp),%eax
 8048eee:	8d 9d 74 ff ff ff    	lea    -0x8c(%ebp),%ebx
 8048ef4:	7f 0a                	jg     8048f00 <_vfprintf_r+0xba0>
 8048ef6:	eb 64                	jmp    8048f5c <_vfprintf_r+0xbfc>
 8048ef8:	83 ee 10             	sub    $0x10,%esi
 8048efb:	83 fe 10             	cmp    $0x10,%esi
 8048efe:	7e 5c                	jle    8048f5c <_vfprintf_r+0xbfc>
 8048f00:	83 c0 01             	add    $0x1,%eax
 8048f03:	83 c1 10             	add    $0x10,%ecx
 8048f06:	c7 07 2c 07 05 08    	movl   $0x805072c,(%edi)
 8048f0c:	83 c7 08             	add    $0x8,%edi
 8048f0f:	c7 47 fc 10 00 00 00 	movl   $0x10,-0x4(%edi)
 8048f16:	83 f8 07             	cmp    $0x7,%eax
 8048f19:	89 8d 7c ff ff ff    	mov    %ecx,-0x84(%ebp)
 8048f1f:	89 85 78 ff ff ff    	mov    %eax,-0x88(%ebp)
 8048f25:	7e d1                	jle    8048ef8 <_vfprintf_r+0xb98>
 8048f27:	8b 45 0c             	mov    0xc(%ebp),%eax
 8048f2a:	89 5c 24 08          	mov    %ebx,0x8(%esp)
 8048f2e:	89 44 24 04          	mov    %eax,0x4(%esp)
 8048f32:	8b 45 08             	mov    0x8(%ebp),%eax
 8048f35:	89 04 24             	mov    %eax,(%esp)
 8048f38:	e8 03 5c 00 00       	call   804eb40 <__sprint_r>
 8048f3d:	85 c0                	test   %eax,%eax
 8048f3f:	0f 85 93 f6 ff ff    	jne    80485d8 <_vfprintf_r+0x278>
 8048f45:	83 ee 10             	sub    $0x10,%esi
 8048f48:	8b 8d 7c ff ff ff    	mov    -0x84(%ebp),%ecx
 8048f4e:	83 fe 10             	cmp    $0x10,%esi
 8048f51:	8b 85 78 ff ff ff    	mov    -0x88(%ebp),%eax
 8048f57:	8d 7d a8             	lea    -0x58(%ebp),%edi
 8048f5a:	7f a4                	jg     8048f00 <_vfprintf_r+0xba0>
 8048f5c:	83 c0 01             	add    $0x1,%eax
 8048f5f:	01 f1                	add    %esi,%ecx
 8048f61:	83 f8 07             	cmp    $0x7,%eax
 8048f64:	c7 07 2c 07 05 08    	movl   $0x805072c,(%edi)
 8048f6a:	89 77 04             	mov    %esi,0x4(%edi)
 8048f6d:	89 8d 7c ff ff ff    	mov    %ecx,-0x84(%ebp)
 8048f73:	89 85 78 ff ff ff    	mov    %eax,-0x88(%ebp)
 8048f79:	7e 2d                	jle    8048fa8 <_vfprintf_r+0xc48>
 8048f7b:	8d 85 74 ff ff ff    	lea    -0x8c(%ebp),%eax
 8048f81:	89 44 24 08          	mov    %eax,0x8(%esp)
 8048f85:	8b 45 0c             	mov    0xc(%ebp),%eax
 8048f88:	89 44 24 04          	mov    %eax,0x4(%esp)
 8048f8c:	8b 45 08             	mov    0x8(%ebp),%eax
 8048f8f:	89 04 24             	mov    %eax,(%esp)
 8048f92:	e8 a9 5b 00 00       	call   804eb40 <__sprint_r>
 8048f97:	85 c0                	test   %eax,%eax
 8048f99:	0f 85 39 f6 ff ff    	jne    80485d8 <_vfprintf_r+0x278>
 8048f9f:	8b 8d 7c ff ff ff    	mov    -0x84(%ebp),%ecx
 8048fa5:	8d 76 00             	lea    0x0(%esi),%esi
 8048fa8:	8b 85 40 ff ff ff    	mov    -0xc0(%ebp),%eax
 8048fae:	8b 95 48 ff ff ff    	mov    -0xb8(%ebp),%edx
 8048fb4:	39 c2                	cmp    %eax,%edx
 8048fb6:	0f 4d c2             	cmovge %edx,%eax
 8048fb9:	01 85 28 ff ff ff    	add    %eax,-0xd8(%ebp)
 8048fbf:	85 c9                	test   %ecx,%ecx
 8048fc1:	0f 85 99 03 00 00    	jne    8049360 <_vfprintf_r+0x1000>
 8048fc7:	c7 85 78 ff ff ff 00 	movl   $0x0,-0x88(%ebp)
 8048fce:	00 00 00 
 8048fd1:	8d 7d a8             	lea    -0x58(%ebp),%edi
 8048fd4:	e9 63 f4 ff ff       	jmp    804843c <_vfprintf_r+0xdc>
 8048fd9:	8d b4 26 00 00 00 00 	lea    0x0(%esi,%eiz,1),%esi
 8048fe0:	83 bd 24 ff ff ff 65 	cmpl   $0x65,-0xdc(%ebp)
 8048fe7:	0f 8e 5b 02 00 00    	jle    8049248 <_vfprintf_r+0xee8>
 8048fed:	d9 ee                	fldz   
 8048fef:	dd 85 10 ff ff ff    	fldl   -0xf0(%ebp)
 8048ff5:	df e9                	fucomip %st(1),%st
 8048ff7:	dd d8                	fstp   %st(0)
 8048ff9:	0f 8a 59 04 00 00    	jp     8049458 <_vfprintf_r+0x10f8>
 8048fff:	0f 85 53 04 00 00    	jne    8049458 <_vfprintf_r+0x10f8>
 8049005:	8b 85 78 ff ff ff    	mov    -0x88(%ebp),%eax
 804900b:	83 c1 01             	add    $0x1,%ecx
 804900e:	83 c7 08             	add    $0x8,%edi
 8049011:	c7 47 f8 b6 05 05 08 	movl   $0x80505b6,-0x8(%edi)
 8049018:	c7 47 fc 01 00 00 00 	movl   $0x1,-0x4(%edi)
 804901f:	89 8d 7c ff ff ff    	mov    %ecx,-0x84(%ebp)
 8049025:	83 c0 01             	add    $0x1,%eax
 8049028:	83 f8 07             	cmp    $0x7,%eax
 804902b:	89 85 78 ff ff ff    	mov    %eax,-0x88(%ebp)
 8049031:	0f 8f 9c 0a 00 00    	jg     8049ad3 <_vfprintf_r+0x1773>
 8049037:	8b 85 1c ff ff ff    	mov    -0xe4(%ebp),%eax
 804903d:	39 85 5c ff ff ff    	cmp    %eax,-0xa4(%ebp)
 8049043:	7c 0d                	jl     8049052 <_vfprintf_r+0xcf2>
 8049045:	f6 85 4c ff ff ff 01 	testb  $0x1,-0xb4(%ebp)
 804904c:	0f 84 72 fe ff ff    	je     8048ec4 <_vfprintf_r+0xb64>
 8049052:	8b 85 18 ff ff ff    	mov    -0xe8(%ebp),%eax
 8049058:	83 c7 08             	add    $0x8,%edi
 804905b:	89 47 f8             	mov    %eax,-0x8(%edi)
 804905e:	8b 85 0c ff ff ff    	mov    -0xf4(%ebp),%eax
 8049064:	89 47 fc             	mov    %eax,-0x4(%edi)
 8049067:	01 c1                	add    %eax,%ecx
 8049069:	8b 85 78 ff ff ff    	mov    -0x88(%ebp),%eax
 804906f:	89 8d 7c ff ff ff    	mov    %ecx,-0x84(%ebp)
 8049075:	83 c0 01             	add    $0x1,%eax
 8049078:	83 f8 07             	cmp    $0x7,%eax
 804907b:	89 85 78 ff ff ff    	mov    %eax,-0x88(%ebp)
 8049081:	0f 8f 43 0c 00 00    	jg     8049cca <_vfprintf_r+0x196a>
 8049087:	8b 85 1c ff ff ff    	mov    -0xe4(%ebp),%eax
 804908d:	8d 70 ff             	lea    -0x1(%eax),%esi
 8049090:	85 f6                	test   %esi,%esi
 8049092:	0f 8e 2c fe ff ff    	jle    8048ec4 <_vfprintf_r+0xb64>
 8049098:	83 fe 10             	cmp    $0x10,%esi
 804909b:	8b 85 78 ff ff ff    	mov    -0x88(%ebp),%eax
 80490a1:	8d 9d 74 ff ff ff    	lea    -0x8c(%ebp),%ebx
 80490a7:	7f 13                	jg     80490bc <_vfprintf_r+0xd5c>
 80490a9:	e9 d4 05 00 00       	jmp    8049682 <_vfprintf_r+0x1322>
 80490ae:	66 90                	xchg   %ax,%ax
 80490b0:	83 ee 10             	sub    $0x10,%esi
 80490b3:	83 fe 10             	cmp    $0x10,%esi
 80490b6:	0f 8e c6 05 00 00    	jle    8049682 <_vfprintf_r+0x1322>
 80490bc:	83 c0 01             	add    $0x1,%eax
 80490bf:	83 c1 10             	add    $0x10,%ecx
 80490c2:	c7 07 1c 07 05 08    	movl   $0x805071c,(%edi)
 80490c8:	83 c7 08             	add    $0x8,%edi
 80490cb:	c7 47 fc 10 00 00 00 	movl   $0x10,-0x4(%edi)
 80490d2:	83 f8 07             	cmp    $0x7,%eax
 80490d5:	89 8d 7c ff ff ff    	mov    %ecx,-0x84(%ebp)
 80490db:	89 85 78 ff ff ff    	mov    %eax,-0x88(%ebp)
 80490e1:	7e cd                	jle    80490b0 <_vfprintf_r+0xd50>
 80490e3:	8b 45 0c             	mov    0xc(%ebp),%eax
 80490e6:	89 5c 24 08          	mov    %ebx,0x8(%esp)
 80490ea:	89 44 24 04          	mov    %eax,0x4(%esp)
 80490ee:	8b 45 08             	mov    0x8(%ebp),%eax
 80490f1:	89 04 24             	mov    %eax,(%esp)
 80490f4:	e8 47 5a 00 00       	call   804eb40 <__sprint_r>
 80490f9:	85 c0                	test   %eax,%eax
 80490fb:	0f 85 d7 f4 ff ff    	jne    80485d8 <_vfprintf_r+0x278>
 8049101:	8b 8d 7c ff ff ff    	mov    -0x84(%ebp),%ecx
 8049107:	8d 7d a8             	lea    -0x58(%ebp),%edi
 804910a:	8b 85 78 ff ff ff    	mov    -0x88(%ebp),%eax
 8049110:	eb 9e                	jmp    80490b0 <_vfprintf_r+0xd50>
 8049112:	8d b6 00 00 00 00    	lea    0x0(%esi),%esi
 8049118:	84 c0                	test   %al,%al
 804911a:	75 2c                	jne    8049148 <_vfprintf_r+0xde8>
 804911c:	f6 85 4c ff ff ff 01 	testb  $0x1,-0xb4(%ebp)
 8049123:	74 23                	je     8049148 <_vfprintf_r+0xde8>
 8049125:	8b 85 00 ff ff ff    	mov    -0x100(%ebp),%eax
 804912b:	c6 45 a7 30          	movb   $0x30,-0x59(%ebp)
 804912f:	89 85 38 ff ff ff    	mov    %eax,-0xc8(%ebp)
 8049135:	8d 45 a7             	lea    -0x59(%ebp),%eax
 8049138:	89 85 2c ff ff ff    	mov    %eax,-0xd4(%ebp)
 804913e:	e9 2d f7 ff ff       	jmp    8048870 <_vfprintf_r+0x510>
 8049143:	90                   	nop
 8049144:	8d 74 26 00          	lea    0x0(%esi,%eiz,1),%esi
 8049148:	8d 45 a8             	lea    -0x58(%ebp),%eax
 804914b:	c7 85 38 ff ff ff 00 	movl   $0x0,-0xc8(%ebp)
 8049152:	00 00 00 
 8049155:	89 85 2c ff ff ff    	mov    %eax,-0xd4(%ebp)
 804915b:	e9 10 f7 ff ff       	jmp    8048870 <_vfprintf_r+0x510>
 8049160:	8b b5 40 ff ff ff    	mov    -0xc0(%ebp),%esi
 8049166:	2b b5 48 ff ff ff    	sub    -0xb8(%ebp),%esi
 804916c:	85 f6                	test   %esi,%esi
 804916e:	0f 8e 26 fc ff ff    	jle    8048d9a <_vfprintf_r+0xa3a>
 8049174:	83 fe 10             	cmp    $0x10,%esi
 8049177:	8b 85 78 ff ff ff    	mov    -0x88(%ebp),%eax
 804917d:	8d 9d 74 ff ff ff    	lea    -0x8c(%ebp),%ebx
 8049183:	7f 0b                	jg     8049190 <_vfprintf_r+0xe30>
 8049185:	eb 65                	jmp    80491ec <_vfprintf_r+0xe8c>
 8049187:	90                   	nop
 8049188:	83 ee 10             	sub    $0x10,%esi
 804918b:	83 fe 10             	cmp    $0x10,%esi
 804918e:	7e 5c                	jle    80491ec <_vfprintf_r+0xe8c>
 8049190:	83 c0 01             	add    $0x1,%eax
 8049193:	83 c1 10             	add    $0x10,%ecx
 8049196:	c7 07 1c 07 05 08    	movl   $0x805071c,(%edi)
 804919c:	83 c7 08             	add    $0x8,%edi
 804919f:	c7 47 fc 10 00 00 00 	movl   $0x10,-0x4(%edi)
 80491a6:	83 f8 07             	cmp    $0x7,%eax
 80491a9:	89 8d 7c ff ff ff    	mov    %ecx,-0x84(%ebp)
 80491af:	89 85 78 ff ff ff    	mov    %eax,-0x88(%ebp)
 80491b5:	7e d1                	jle    8049188 <_vfprintf_r+0xe28>
 80491b7:	8b 45 0c             	mov    0xc(%ebp),%eax
 80491ba:	89 5c 24 08          	mov    %ebx,0x8(%esp)
 80491be:	89 44 24 04          	mov    %eax,0x4(%esp)
 80491c2:	8b 45 08             	mov    0x8(%ebp),%eax
 80491c5:	89 04 24             	mov    %eax,(%esp)
 80491c8:	e8 73 59 00 00       	call   804eb40 <__sprint_r>
 80491cd:	85 c0                	test   %eax,%eax
 80491cf:	0f 85 03 f4 ff ff    	jne    80485d8 <_vfprintf_r+0x278>
 80491d5:	83 ee 10             	sub    $0x10,%esi
 80491d8:	8b 8d 7c ff ff ff    	mov    -0x84(%ebp),%ecx
 80491de:	83 fe 10             	cmp    $0x10,%esi
 80491e1:	8b 85 78 ff ff ff    	mov    -0x88(%ebp),%eax
 80491e7:	8d 7d a8             	lea    -0x58(%ebp),%edi
 80491ea:	7f a4                	jg     8049190 <_vfprintf_r+0xe30>
 80491ec:	83 c0 01             	add    $0x1,%eax
 80491ef:	01 f1                	add    %esi,%ecx
 80491f1:	c7 07 1c 07 05 08    	movl   $0x805071c,(%edi)
 80491f7:	83 c7 08             	add    $0x8,%edi
 80491fa:	89 77 fc             	mov    %esi,-0x4(%edi)
 80491fd:	83 f8 07             	cmp    $0x7,%eax
 8049200:	89 8d 7c ff ff ff    	mov    %ecx,-0x84(%ebp)
 8049206:	89 85 78 ff ff ff    	mov    %eax,-0x88(%ebp)
 804920c:	0f 8e 88 fb ff ff    	jle    8048d9a <_vfprintf_r+0xa3a>
 8049212:	8d 85 74 ff ff ff    	lea    -0x8c(%ebp),%eax
 8049218:	89 44 24 08          	mov    %eax,0x8(%esp)
 804921c:	8b 45 0c             	mov    0xc(%ebp),%eax
 804921f:	89 44 24 04          	mov    %eax,0x4(%esp)
 8049223:	8b 45 08             	mov    0x8(%ebp),%eax
 8049226:	89 04 24             	mov    %eax,(%esp)
 8049229:	e8 12 59 00 00       	call   804eb40 <__sprint_r>
 804922e:	85 c0                	test   %eax,%eax
 8049230:	0f 85 a2 f3 ff ff    	jne    80485d8 <_vfprintf_r+0x278>
 8049236:	8b 8d 7c ff ff ff    	mov    -0x84(%ebp),%ecx
 804923c:	8d 7d a8             	lea    -0x58(%ebp),%edi
 804923f:	e9 56 fb ff ff       	jmp    8048d9a <_vfprintf_r+0xa3a>
 8049244:	8d 74 26 00          	lea    0x0(%esi,%eiz,1),%esi
 8049248:	83 bd 1c ff ff ff 01 	cmpl   $0x1,-0xe4(%ebp)
 804924f:	8b 85 2c ff ff ff    	mov    -0xd4(%ebp),%eax
 8049255:	0f 8e b7 05 00 00    	jle    8049812 <_vfprintf_r+0x14b2>
 804925b:	89 07                	mov    %eax,(%edi)
 804925d:	8b 85 78 ff ff ff    	mov    -0x88(%ebp),%eax
 8049263:	8d 51 01             	lea    0x1(%ecx),%edx
 8049266:	c7 47 04 01 00 00 00 	movl   $0x1,0x4(%edi)
 804926d:	83 c7 08             	add    $0x8,%edi
 8049270:	89 95 7c ff ff ff    	mov    %edx,-0x84(%ebp)
 8049276:	83 c0 01             	add    $0x1,%eax
 8049279:	83 f8 07             	cmp    $0x7,%eax
 804927c:	89 85 78 ff ff ff    	mov    %eax,-0x88(%ebp)
 8049282:	0f 8f f9 05 00 00    	jg     8049881 <_vfprintf_r+0x1521>
 8049288:	8b 9d 18 ff ff ff    	mov    -0xe8(%ebp),%ebx
 804928e:	83 c0 01             	add    $0x1,%eax
 8049291:	83 c7 08             	add    $0x8,%edi
 8049294:	89 85 78 ff ff ff    	mov    %eax,-0x88(%ebp)
 804929a:	89 5f f8             	mov    %ebx,-0x8(%edi)
 804929d:	8b 9d 0c ff ff ff    	mov    -0xf4(%ebp),%ebx
 80492a3:	89 5f fc             	mov    %ebx,-0x4(%edi)
 80492a6:	01 da                	add    %ebx,%edx
 80492a8:	83 f8 07             	cmp    $0x7,%eax
 80492ab:	89 95 7c ff ff ff    	mov    %edx,-0x84(%ebp)
 80492b1:	0f 8f 12 06 00 00    	jg     80498c9 <_vfprintf_r+0x1569>
 80492b7:	d9 ee                	fldz   
 80492b9:	dd 85 10 ff ff ff    	fldl   -0xf0(%ebp)
 80492bf:	df e9                	fucomip %st(1),%st
 80492c1:	dd d8                	fstp   %st(0)
 80492c3:	7a 06                	jp     80492cb <_vfprintf_r+0xf6b>
 80492c5:	0f 84 33 03 00 00    	je     80495fe <_vfprintf_r+0x129e>
 80492cb:	8b 8d 2c ff ff ff    	mov    -0xd4(%ebp),%ecx
 80492d1:	8b 9d 1c ff ff ff    	mov    -0xe4(%ebp),%ebx
 80492d7:	83 c1 01             	add    $0x1,%ecx
 80492da:	89 0f                	mov    %ecx,(%edi)
 80492dc:	8d 4b ff             	lea    -0x1(%ebx),%ecx
 80492df:	89 4f 04             	mov    %ecx,0x4(%edi)
 80492e2:	01 ca                	add    %ecx,%edx
 80492e4:	83 c0 01             	add    $0x1,%eax
 80492e7:	83 f8 07             	cmp    $0x7,%eax
 80492ea:	89 95 7c ff ff ff    	mov    %edx,-0x84(%ebp)
 80492f0:	89 85 78 ff ff ff    	mov    %eax,-0x88(%ebp)
 80492f6:	0f 8f 4d 05 00 00    	jg     8049849 <_vfprintf_r+0x14e9>
 80492fc:	83 c7 08             	add    $0x8,%edi
 80492ff:	8b 9d 04 ff ff ff    	mov    -0xfc(%ebp),%ebx
 8049305:	8d 8d 65 ff ff ff    	lea    -0x9b(%ebp),%ecx
 804930b:	89 0f                	mov    %ecx,(%edi)
 804930d:	89 5f 04             	mov    %ebx,0x4(%edi)
 8049310:	8d 0c 1a             	lea    (%edx,%ebx,1),%ecx
 8049313:	83 c0 01             	add    $0x1,%eax
 8049316:	83 f8 07             	cmp    $0x7,%eax
 8049319:	89 8d 7c ff ff ff    	mov    %ecx,-0x84(%ebp)
 804931f:	89 85 78 ff ff ff    	mov    %eax,-0x88(%ebp)
 8049325:	0f 8e 96 fb ff ff    	jle    8048ec1 <_vfprintf_r+0xb61>
 804932b:	8d 85 74 ff ff ff    	lea    -0x8c(%ebp),%eax
 8049331:	89 44 24 08          	mov    %eax,0x8(%esp)
 8049335:	8b 45 0c             	mov    0xc(%ebp),%eax
 8049338:	89 44 24 04          	mov    %eax,0x4(%esp)
 804933c:	8b 45 08             	mov    0x8(%ebp),%eax
 804933f:	89 04 24             	mov    %eax,(%esp)
 8049342:	e8 f9 57 00 00       	call   804eb40 <__sprint_r>
 8049347:	85 c0                	test   %eax,%eax
 8049349:	0f 85 89 f2 ff ff    	jne    80485d8 <_vfprintf_r+0x278>
 804934f:	8b 8d 7c ff ff ff    	mov    -0x84(%ebp),%ecx
 8049355:	8d 7d a8             	lea    -0x58(%ebp),%edi
 8049358:	e9 67 fb ff ff       	jmp    8048ec4 <_vfprintf_r+0xb64>
 804935d:	8d 76 00             	lea    0x0(%esi),%esi
 8049360:	8d 85 74 ff ff ff    	lea    -0x8c(%ebp),%eax
 8049366:	89 44 24 08          	mov    %eax,0x8(%esp)
 804936a:	8b 45 0c             	mov    0xc(%ebp),%eax
 804936d:	89 44 24 04          	mov    %eax,0x4(%esp)
 8049371:	8b 45 08             	mov    0x8(%ebp),%eax
 8049374:	89 04 24             	mov    %eax,(%esp)
 8049377:	e8 c4 57 00 00       	call   804eb40 <__sprint_r>
 804937c:	85 c0                	test   %eax,%eax
 804937e:	0f 84 43 fc ff ff    	je     8048fc7 <_vfprintf_r+0xc67>
 8049384:	e9 4f f2 ff ff       	jmp    80485d8 <_vfprintf_r+0x278>
 8049389:	8d b4 26 00 00 00 00 	lea    0x0(%esi,%eiz,1),%esi
 8049390:	8d 85 74 ff ff ff    	lea    -0x8c(%ebp),%eax
 8049396:	89 44 24 08          	mov    %eax,0x8(%esp)
 804939a:	8b 45 0c             	mov    0xc(%ebp),%eax
 804939d:	89 44 24 04          	mov    %eax,0x4(%esp)
 80493a1:	8b 45 08             	mov    0x8(%ebp),%eax
 80493a4:	89 04 24             	mov    %eax,(%esp)
 80493a7:	e8 94 57 00 00       	call   804eb40 <__sprint_r>
 80493ac:	85 c0                	test   %eax,%eax
 80493ae:	0f 85 24 f2 ff ff    	jne    80485d8 <_vfprintf_r+0x278>
 80493b4:	8b 8d 7c ff ff ff    	mov    -0x84(%ebp),%ecx
 80493ba:	8d 7d a8             	lea    -0x58(%ebp),%edi
 80493bd:	e9 8b f9 ff ff       	jmp    8048d4d <_vfprintf_r+0x9ed>
 80493c2:	8d b6 00 00 00 00    	lea    0x0(%esi),%esi
 80493c8:	8d 85 74 ff ff ff    	lea    -0x8c(%ebp),%eax
 80493ce:	89 44 24 08          	mov    %eax,0x8(%esp)
 80493d2:	8b 45 0c             	mov    0xc(%ebp),%eax
 80493d5:	89 44 24 04          	mov    %eax,0x4(%esp)
 80493d9:	8b 45 08             	mov    0x8(%ebp),%eax
 80493dc:	89 04 24             	mov    %eax,(%esp)
 80493df:	e8 5c 57 00 00       	call   804eb40 <__sprint_r>
 80493e4:	85 c0                	test   %eax,%eax
 80493e6:	0f 85 ec f1 ff ff    	jne    80485d8 <_vfprintf_r+0x278>
 80493ec:	8b 8d 7c ff ff ff    	mov    -0x84(%ebp),%ecx
 80493f2:	8d 7d a8             	lea    -0x58(%ebp),%edi
 80493f5:	e9 90 f9 ff ff       	jmp    8048d8a <_vfprintf_r+0xa2a>
 80493fa:	8d b6 00 00 00 00    	lea    0x0(%esi),%esi
 8049400:	89 c2                	mov    %eax,%edx
 8049402:	8d b6 00 00 00 00    	lea    0x0(%esi),%esi
 8049408:	89 c8                	mov    %ecx,%eax
 804940a:	83 ea 01             	sub    $0x1,%edx
 804940d:	83 e0 07             	and    $0x7,%eax
 8049410:	c1 e9 03             	shr    $0x3,%ecx
 8049413:	83 c0 30             	add    $0x30,%eax
 8049416:	85 c9                	test   %ecx,%ecx
 8049418:	88 02                	mov    %al,(%edx)
 804941a:	75 ec                	jne    8049408 <_vfprintf_r+0x10a8>
 804941c:	f6 85 4c ff ff ff 01 	testb  $0x1,-0xb4(%ebp)
 8049423:	89 95 2c ff ff ff    	mov    %edx,-0xd4(%ebp)
 8049429:	0f 84 5b 01 00 00    	je     804958a <_vfprintf_r+0x122a>
 804942f:	3c 30                	cmp    $0x30,%al
 8049431:	74 0b                	je     804943e <_vfprintf_r+0x10de>
 8049433:	83 ad 2c ff ff ff 01 	subl   $0x1,-0xd4(%ebp)
 804943a:	c6 42 ff 30          	movb   $0x30,-0x1(%edx)
 804943e:	8d 45 a8             	lea    -0x58(%ebp),%eax
 8049441:	2b 85 2c ff ff ff    	sub    -0xd4(%ebp),%eax
 8049447:	89 85 38 ff ff ff    	mov    %eax,-0xc8(%ebp)
 804944d:	e9 1e f4 ff ff       	jmp    8048870 <_vfprintf_r+0x510>
 8049452:	8d b6 00 00 00 00    	lea    0x0(%esi),%esi
 8049458:	8b 9d 5c ff ff ff    	mov    -0xa4(%ebp),%ebx
 804945e:	85 db                	test   %ebx,%ebx
 8049460:	0f 8e 9f 06 00 00    	jle    8049b05 <_vfprintf_r+0x17a5>
 8049466:	8b 95 2c ff ff ff    	mov    -0xd4(%ebp),%edx
 804946c:	8b 85 1c ff ff ff    	mov    -0xe4(%ebp),%eax
 8049472:	01 d0                	add    %edx,%eax
 8049474:	89 c3                	mov    %eax,%ebx
 8049476:	29 d3                	sub    %edx,%ebx
 8049478:	89 85 44 ff ff ff    	mov    %eax,-0xbc(%ebp)
 804947e:	89 d0                	mov    %edx,%eax
 8049480:	8b 95 20 ff ff ff    	mov    -0xe0(%ebp),%edx
 8049486:	39 d3                	cmp    %edx,%ebx
 8049488:	0f 4f da             	cmovg  %edx,%ebx
 804948b:	85 db                	test   %ebx,%ebx
 804948d:	7e 28                	jle    80494b7 <_vfprintf_r+0x1157>
 804948f:	89 07                	mov    %eax,(%edi)
 8049491:	8b 85 78 ff ff ff    	mov    -0x88(%ebp),%eax
 8049497:	01 d9                	add    %ebx,%ecx
 8049499:	89 5f 04             	mov    %ebx,0x4(%edi)
 804949c:	83 c7 08             	add    $0x8,%edi
 804949f:	89 8d 7c ff ff ff    	mov    %ecx,-0x84(%ebp)
 80494a5:	83 c0 01             	add    $0x1,%eax
 80494a8:	83 f8 07             	cmp    $0x7,%eax
 80494ab:	89 85 78 ff ff ff    	mov    %eax,-0x88(%ebp)
 80494b1:	0f 8f e2 08 00 00    	jg     8049d99 <_vfprintf_r+0x1a39>
 80494b7:	8b b5 20 ff ff ff    	mov    -0xe0(%ebp),%esi
 80494bd:	31 c0                	xor    %eax,%eax
 80494bf:	85 db                	test   %ebx,%ebx
 80494c1:	0f 49 c3             	cmovns %ebx,%eax
 80494c4:	29 c6                	sub    %eax,%esi
 80494c6:	85 f6                	test   %esi,%esi
 80494c8:	0f 8e 13 02 00 00    	jle    80496e1 <_vfprintf_r+0x1381>
 80494ce:	83 fe 10             	cmp    $0x10,%esi
 80494d1:	8b 85 78 ff ff ff    	mov    -0x88(%ebp),%eax
 80494d7:	8d 9d 74 ff ff ff    	lea    -0x8c(%ebp),%ebx
 80494dd:	7f 15                	jg     80494f4 <_vfprintf_r+0x1194>
 80494df:	e9 ae 01 00 00       	jmp    8049692 <_vfprintf_r+0x1332>
 80494e4:	8d 74 26 00          	lea    0x0(%esi,%eiz,1),%esi
 80494e8:	83 ee 10             	sub    $0x10,%esi
 80494eb:	83 fe 10             	cmp    $0x10,%esi
 80494ee:	0f 8e 9e 01 00 00    	jle    8049692 <_vfprintf_r+0x1332>
 80494f4:	83 c0 01             	add    $0x1,%eax
 80494f7:	83 c1 10             	add    $0x10,%ecx
 80494fa:	c7 07 1c 07 05 08    	movl   $0x805071c,(%edi)
 8049500:	83 c7 08             	add    $0x8,%edi
 8049503:	c7 47 fc 10 00 00 00 	movl   $0x10,-0x4(%edi)
 804950a:	83 f8 07             	cmp    $0x7,%eax
 804950d:	89 8d 7c ff ff ff    	mov    %ecx,-0x84(%ebp)
 8049513:	89 85 78 ff ff ff    	mov    %eax,-0x88(%ebp)
 8049519:	7e cd                	jle    80494e8 <_vfprintf_r+0x1188>
 804951b:	8b 45 0c             	mov    0xc(%ebp),%eax
 804951e:	89 5c 24 08          	mov    %ebx,0x8(%esp)
 8049522:	89 44 24 04          	mov    %eax,0x4(%esp)
 8049526:	8b 45 08             	mov    0x8(%ebp),%eax
 8049529:	89 04 24             	mov    %eax,(%esp)
 804952c:	e8 0f 56 00 00       	call   804eb40 <__sprint_r>
 8049531:	85 c0                	test   %eax,%eax
 8049533:	0f 85 9f f0 ff ff    	jne    80485d8 <_vfprintf_r+0x278>
 8049539:	8b 8d 7c ff ff ff    	mov    -0x84(%ebp),%ecx
 804953f:	8d 7d a8             	lea    -0x58(%ebp),%edi
 8049542:	8b 85 78 ff ff ff    	mov    -0x88(%ebp),%eax
 8049548:	eb 9e                	jmp    80494e8 <_vfprintf_r+0x1188>
 804954a:	8d 45 a8             	lea    -0x58(%ebp),%eax
 804954d:	be cd cc cc cc       	mov    $0xcccccccd,%esi
 8049552:	89 bd 48 ff ff ff    	mov    %edi,-0xb8(%ebp)
 8049558:	89 c7                	mov    %eax,%edi
 804955a:	8d b6 00 00 00 00    	lea    0x0(%esi),%esi
 8049560:	89 c8                	mov    %ecx,%eax
 8049562:	83 ef 01             	sub    $0x1,%edi
 8049565:	f7 e6                	mul    %esi
 8049567:	c1 ea 03             	shr    $0x3,%edx
 804956a:	8d 04 92             	lea    (%edx,%edx,4),%eax
 804956d:	01 c0                	add    %eax,%eax
 804956f:	29 c1                	sub    %eax,%ecx
 8049571:	83 c1 30             	add    $0x30,%ecx
 8049574:	85 d2                	test   %edx,%edx
 8049576:	88 0f                	mov    %cl,(%edi)
 8049578:	89 d1                	mov    %edx,%ecx
 804957a:	75 e4                	jne    8049560 <_vfprintf_r+0x1200>
 804957c:	89 fa                	mov    %edi,%edx
 804957e:	89 bd 2c ff ff ff    	mov    %edi,-0xd4(%ebp)
 8049584:	8b bd 48 ff ff ff    	mov    -0xb8(%ebp),%edi
 804958a:	8d 45 a8             	lea    -0x58(%ebp),%eax
 804958d:	29 d0                	sub    %edx,%eax
 804958f:	89 85 38 ff ff ff    	mov    %eax,-0xc8(%ebp)
 8049595:	e9 d6 f2 ff ff       	jmp    8048870 <_vfprintf_r+0x510>
 804959a:	8d b6 00 00 00 00    	lea    0x0(%esi),%esi
 80495a0:	83 f9 09             	cmp    $0x9,%ecx
 80495a3:	77 a5                	ja     804954a <_vfprintf_r+0x11ea>
 80495a5:	8b 85 00 ff ff ff    	mov    -0x100(%ebp),%eax
 80495ab:	83 c1 30             	add    $0x30,%ecx
 80495ae:	88 4d a7             	mov    %cl,-0x59(%ebp)
 80495b1:	89 85 38 ff ff ff    	mov    %eax,-0xc8(%ebp)
 80495b7:	8d 45 a7             	lea    -0x59(%ebp),%eax
 80495ba:	89 85 2c ff ff ff    	mov    %eax,-0xd4(%ebp)
 80495c0:	e9 ab f2 ff ff       	jmp    8048870 <_vfprintf_r+0x510>
 80495c5:	8d 85 74 ff ff ff    	lea    -0x8c(%ebp),%eax
 80495cb:	89 44 24 08          	mov    %eax,0x8(%esp)
 80495cf:	8b 45 0c             	mov    0xc(%ebp),%eax
 80495d2:	89 44 24 04          	mov    %eax,0x4(%esp)
 80495d6:	8b 45 08             	mov    0x8(%ebp),%eax
 80495d9:	89 04 24             	mov    %eax,(%esp)
 80495dc:	e8 5f 55 00 00       	call   804eb40 <__sprint_r>
 80495e1:	85 c0                	test   %eax,%eax
 80495e3:	0f 85 ef ef ff ff    	jne    80485d8 <_vfprintf_r+0x278>
 80495e9:	0f b6 9d 59 ff ff ff 	movzbl -0xa7(%ebp),%ebx
 80495f0:	8d 7d a8             	lea    -0x58(%ebp),%edi
 80495f3:	8b 8d 7c ff ff ff    	mov    -0x84(%ebp),%ecx
 80495f9:	e9 18 f7 ff ff       	jmp    8048d16 <_vfprintf_r+0x9b6>
 80495fe:	8b 9d 1c ff ff ff    	mov    -0xe4(%ebp),%ebx
 8049604:	8d 73 ff             	lea    -0x1(%ebx),%esi
 8049607:	85 f6                	test   %esi,%esi
 8049609:	0f 8e f0 fc ff ff    	jle    80492ff <_vfprintf_r+0xf9f>
 804960f:	83 fe 10             	cmp    $0x10,%esi
 8049612:	0f 8e a1 02 00 00    	jle    80498b9 <_vfprintf_r+0x1559>
 8049618:	8d 9d 74 ff ff ff    	lea    -0x8c(%ebp),%ebx
 804961e:	eb 0c                	jmp    804962c <_vfprintf_r+0x12cc>
 8049620:	83 ee 10             	sub    $0x10,%esi
 8049623:	83 fe 10             	cmp    $0x10,%esi
 8049626:	0f 8e 8d 02 00 00    	jle    80498b9 <_vfprintf_r+0x1559>
 804962c:	83 c0 01             	add    $0x1,%eax
 804962f:	83 c2 10             	add    $0x10,%edx
 8049632:	c7 07 1c 07 05 08    	movl   $0x805071c,(%edi)
 8049638:	83 c7 08             	add    $0x8,%edi
 804963b:	c7 47 fc 10 00 00 00 	movl   $0x10,-0x4(%edi)
 8049642:	83 f8 07             	cmp    $0x7,%eax
 8049645:	89 95 7c ff ff ff    	mov    %edx,-0x84(%ebp)
 804964b:	89 85 78 ff ff ff    	mov    %eax,-0x88(%ebp)
 8049651:	7e cd                	jle    8049620 <_vfprintf_r+0x12c0>
 8049653:	8b 45 0c             	mov    0xc(%ebp),%eax
 8049656:	89 5c 24 08          	mov    %ebx,0x8(%esp)
 804965a:	89 44 24 04          	mov    %eax,0x4(%esp)
 804965e:	8b 45 08             	mov    0x8(%ebp),%eax
 8049661:	89 04 24             	mov    %eax,(%esp)
 8049664:	e8 d7 54 00 00       	call   804eb40 <__sprint_r>
 8049669:	85 c0                	test   %eax,%eax
 804966b:	0f 85 67 ef ff ff    	jne    80485d8 <_vfprintf_r+0x278>
 8049671:	8b 95 7c ff ff ff    	mov    -0x84(%ebp),%edx
 8049677:	8d 7d a8             	lea    -0x58(%ebp),%edi
 804967a:	8b 85 78 ff ff ff    	mov    -0x88(%ebp),%eax
 8049680:	eb 9e                	jmp    8049620 <_vfprintf_r+0x12c0>
 8049682:	c7 07 1c 07 05 08    	movl   $0x805071c,(%edi)
 8049688:	01 f1                	add    %esi,%ecx
 804968a:	89 77 04             	mov    %esi,0x4(%edi)
 804968d:	e9 81 fc ff ff       	jmp    8049313 <_vfprintf_r+0xfb3>
 8049692:	83 c0 01             	add    $0x1,%eax
 8049695:	01 f1                	add    %esi,%ecx
 8049697:	c7 07 1c 07 05 08    	movl   $0x805071c,(%edi)
 804969d:	83 c7 08             	add    $0x8,%edi
 80496a0:	89 77 fc             	mov    %esi,-0x4(%edi)
 80496a3:	83 f8 07             	cmp    $0x7,%eax
 80496a6:	89 8d 7c ff ff ff    	mov    %ecx,-0x84(%ebp)
 80496ac:	89 85 78 ff ff ff    	mov    %eax,-0x88(%ebp)
 80496b2:	7e 2d                	jle    80496e1 <_vfprintf_r+0x1381>
 80496b4:	8d 85 74 ff ff ff    	lea    -0x8c(%ebp),%eax
 80496ba:	89 44 24 08          	mov    %eax,0x8(%esp)
 80496be:	8b 45 0c             	mov    0xc(%ebp),%eax
 80496c1:	89 44 24 04          	mov    %eax,0x4(%esp)
 80496c5:	8b 45 08             	mov    0x8(%ebp),%eax
 80496c8:	89 04 24             	mov    %eax,(%esp)
 80496cb:	e8 70 54 00 00       	call   804eb40 <__sprint_r>
 80496d0:	85 c0                	test   %eax,%eax
 80496d2:	0f 85 00 ef ff ff    	jne    80485d8 <_vfprintf_r+0x278>
 80496d8:	8b 8d 7c ff ff ff    	mov    -0x84(%ebp),%ecx
 80496de:	8d 7d a8             	lea    -0x58(%ebp),%edi
 80496e1:	8b 85 2c ff ff ff    	mov    -0xd4(%ebp),%eax
 80496e7:	8b 95 5c ff ff ff    	mov    -0xa4(%ebp),%edx
 80496ed:	03 85 20 ff ff ff    	add    -0xe0(%ebp),%eax
 80496f3:	3b 95 1c ff ff ff    	cmp    -0xe4(%ebp),%edx
 80496f9:	89 c6                	mov    %eax,%esi
 80496fb:	7c 0d                	jl     804970a <_vfprintf_r+0x13aa>
 80496fd:	f6 85 4c ff ff ff 01 	testb  $0x1,-0xb4(%ebp)
 8049704:	0f 84 61 05 00 00    	je     8049c6b <_vfprintf_r+0x190b>
 804970a:	8b 85 18 ff ff ff    	mov    -0xe8(%ebp),%eax
 8049710:	89 07                	mov    %eax,(%edi)
 8049712:	8b 85 0c ff ff ff    	mov    -0xf4(%ebp),%eax
 8049718:	01 c1                	add    %eax,%ecx
 804971a:	89 47 04             	mov    %eax,0x4(%edi)
 804971d:	8b 85 78 ff ff ff    	mov    -0x88(%ebp),%eax
 8049723:	89 8d 7c ff ff ff    	mov    %ecx,-0x84(%ebp)
 8049729:	83 c0 01             	add    $0x1,%eax
 804972c:	83 f8 07             	cmp    $0x7,%eax
 804972f:	89 85 78 ff ff ff    	mov    %eax,-0x88(%ebp)
 8049735:	0f 8f 90 06 00 00    	jg     8049dcb <_vfprintf_r+0x1a6b>
 804973b:	83 c7 08             	add    $0x8,%edi
 804973e:	89 d0                	mov    %edx,%eax
 8049740:	8b 9d 44 ff ff ff    	mov    -0xbc(%ebp),%ebx
 8049746:	89 f2                	mov    %esi,%edx
 8049748:	29 f3                	sub    %esi,%ebx
 804974a:	8b b5 1c ff ff ff    	mov    -0xe4(%ebp),%esi
 8049750:	29 c6                	sub    %eax,%esi
 8049752:	39 de                	cmp    %ebx,%esi
 8049754:	0f 4e de             	cmovle %esi,%ebx
 8049757:	85 db                	test   %ebx,%ebx
 8049759:	7e 29                	jle    8049784 <_vfprintf_r+0x1424>
 804975b:	8b 85 78 ff ff ff    	mov    -0x88(%ebp),%eax
 8049761:	01 d9                	add    %ebx,%ecx
 8049763:	83 c7 08             	add    $0x8,%edi
 8049766:	89 57 f8             	mov    %edx,-0x8(%edi)
 8049769:	89 5f fc             	mov    %ebx,-0x4(%edi)
 804976c:	89 8d 7c ff ff ff    	mov    %ecx,-0x84(%ebp)
 8049772:	83 c0 01             	add    $0x1,%eax
 8049775:	83 f8 07             	cmp    $0x7,%eax
 8049778:	89 85 78 ff ff ff    	mov    %eax,-0x88(%ebp)
 804977e:	0f 8f 7f 06 00 00    	jg     8049e03 <_vfprintf_r+0x1aa3>
 8049784:	31 c0                	xor    %eax,%eax
 8049786:	85 db                	test   %ebx,%ebx
 8049788:	0f 49 c3             	cmovns %ebx,%eax
 804978b:	29 c6                	sub    %eax,%esi
 804978d:	85 f6                	test   %esi,%esi
 804978f:	0f 8e 2f f7 ff ff    	jle    8048ec4 <_vfprintf_r+0xb64>
 8049795:	83 fe 10             	cmp    $0x10,%esi
 8049798:	8b 85 78 ff ff ff    	mov    -0x88(%ebp),%eax
 804979e:	8d 9d 74 ff ff ff    	lea    -0x8c(%ebp),%ebx
 80497a4:	7f 16                	jg     80497bc <_vfprintf_r+0x145c>
 80497a6:	e9 d7 fe ff ff       	jmp    8049682 <_vfprintf_r+0x1322>
 80497ab:	90                   	nop
 80497ac:	8d 74 26 00          	lea    0x0(%esi,%eiz,1),%esi
 80497b0:	83 ee 10             	sub    $0x10,%esi
 80497b3:	83 fe 10             	cmp    $0x10,%esi
 80497b6:	0f 8e c6 fe ff ff    	jle    8049682 <_vfprintf_r+0x1322>
 80497bc:	83 c0 01             	add    $0x1,%eax
 80497bf:	83 c1 10             	add    $0x10,%ecx
 80497c2:	c7 07 1c 07 05 08    	movl   $0x805071c,(%edi)
 80497c8:	83 c7 08             	add    $0x8,%edi
 80497cb:	c7 47 fc 10 00 00 00 	movl   $0x10,-0x4(%edi)
 80497d2:	83 f8 07             	cmp    $0x7,%eax
 80497d5:	89 8d 7c ff ff ff    	mov    %ecx,-0x84(%ebp)
 80497db:	89 85 78 ff ff ff    	mov    %eax,-0x88(%ebp)
 80497e1:	7e cd                	jle    80497b0 <_vfprintf_r+0x1450>
 80497e3:	8b 45 0c             	mov    0xc(%ebp),%eax
 80497e6:	89 5c 24 08          	mov    %ebx,0x8(%esp)
 80497ea:	89 44 24 04          	mov    %eax,0x4(%esp)
 80497ee:	8b 45 08             	mov    0x8(%ebp),%eax
 80497f1:	89 04 24             	mov    %eax,(%esp)
 80497f4:	e8 47 53 00 00       	call   804eb40 <__sprint_r>
 80497f9:	85 c0                	test   %eax,%eax
 80497fb:	0f 85 d7 ed ff ff    	jne    80485d8 <_vfprintf_r+0x278>
 8049801:	8b 8d 7c ff ff ff    	mov    -0x84(%ebp),%ecx
 8049807:	8d 7d a8             	lea    -0x58(%ebp),%edi
 804980a:	8b 85 78 ff ff ff    	mov    -0x88(%ebp),%eax
 8049810:	eb 9e                	jmp    80497b0 <_vfprintf_r+0x1450>
 8049812:	f6 85 4c ff ff ff 01 	testb  $0x1,-0xb4(%ebp)
 8049819:	0f 85 3c fa ff ff    	jne    804925b <_vfprintf_r+0xefb>
 804981f:	89 07                	mov    %eax,(%edi)
 8049821:	8b 85 78 ff ff ff    	mov    -0x88(%ebp),%eax
 8049827:	8d 51 01             	lea    0x1(%ecx),%edx
 804982a:	c7 47 04 01 00 00 00 	movl   $0x1,0x4(%edi)
 8049831:	89 95 7c ff ff ff    	mov    %edx,-0x84(%ebp)
 8049837:	83 c0 01             	add    $0x1,%eax
 804983a:	83 f8 07             	cmp    $0x7,%eax
 804983d:	89 85 78 ff ff ff    	mov    %eax,-0x88(%ebp)
 8049843:	0f 8e b3 fa ff ff    	jle    80492fc <_vfprintf_r+0xf9c>
 8049849:	8d 85 74 ff ff ff    	lea    -0x8c(%ebp),%eax
 804984f:	89 44 24 08          	mov    %eax,0x8(%esp)
 8049853:	8b 45 0c             	mov    0xc(%ebp),%eax
 8049856:	89 44 24 04          	mov    %eax,0x4(%esp)
 804985a:	8b 45 08             	mov    0x8(%ebp),%eax
 804985d:	89 04 24             	mov    %eax,(%esp)
 8049860:	e8 db 52 00 00       	call   804eb40 <__sprint_r>
 8049865:	85 c0                	test   %eax,%eax
 8049867:	0f 85 6b ed ff ff    	jne    80485d8 <_vfprintf_r+0x278>
 804986d:	8b 95 7c ff ff ff    	mov    -0x84(%ebp),%edx
 8049873:	8d 7d a8             	lea    -0x58(%ebp),%edi
 8049876:	8b 85 78 ff ff ff    	mov    -0x88(%ebp),%eax
 804987c:	e9 7e fa ff ff       	jmp    80492ff <_vfprintf_r+0xf9f>
 8049881:	8d 85 74 ff ff ff    	lea    -0x8c(%ebp),%eax
 8049887:	89 44 24 08          	mov    %eax,0x8(%esp)
 804988b:	8b 45 0c             	mov    0xc(%ebp),%eax
 804988e:	89 44 24 04          	mov    %eax,0x4(%esp)
 8049892:	8b 45 08             	mov    0x8(%ebp),%eax
 8049895:	89 04 24             	mov    %eax,(%esp)
 8049898:	e8 a3 52 00 00       	call   804eb40 <__sprint_r>
 804989d:	85 c0                	test   %eax,%eax
 804989f:	0f 85 33 ed ff ff    	jne    80485d8 <_vfprintf_r+0x278>
 80498a5:	8b 95 7c ff ff ff    	mov    -0x84(%ebp),%edx
 80498ab:	8d 7d a8             	lea    -0x58(%ebp),%edi
 80498ae:	8b 85 78 ff ff ff    	mov    -0x88(%ebp),%eax
 80498b4:	e9 cf f9 ff ff       	jmp    8049288 <_vfprintf_r+0xf28>
 80498b9:	c7 07 1c 07 05 08    	movl   $0x805071c,(%edi)
 80498bf:	01 f2                	add    %esi,%edx
 80498c1:	89 77 04             	mov    %esi,0x4(%edi)
 80498c4:	e9 1b fa ff ff       	jmp    80492e4 <_vfprintf_r+0xf84>
 80498c9:	8d 85 74 ff ff ff    	lea    -0x8c(%ebp),%eax
 80498cf:	89 44 24 08          	mov    %eax,0x8(%esp)
 80498d3:	8b 45 0c             	mov    0xc(%ebp),%eax
 80498d6:	89 44 24 04          	mov    %eax,0x4(%esp)
 80498da:	8b 45 08             	mov    0x8(%ebp),%eax
 80498dd:	89 04 24             	mov    %eax,(%esp)
 80498e0:	e8 5b 52 00 00       	call   804eb40 <__sprint_r>
 80498e5:	85 c0                	test   %eax,%eax
 80498e7:	0f 85 eb ec ff ff    	jne    80485d8 <_vfprintf_r+0x278>
 80498ed:	8b 95 7c ff ff ff    	mov    -0x84(%ebp),%edx
 80498f3:	8d 7d a8             	lea    -0x58(%ebp),%edi
 80498f6:	8b 85 78 ff ff ff    	mov    -0x88(%ebp),%eax
 80498fc:	e9 b6 f9 ff ff       	jmp    80492b7 <_vfprintf_r+0xf57>
 8049901:	f7 d9                	neg    %ecx
 8049903:	bb 2d 00 00 00       	mov    $0x2d,%ebx
 8049908:	c6 85 59 ff ff ff 2d 	movb   $0x2d,-0xa7(%ebp)
 804990f:	b8 01 00 00 00       	mov    $0x1,%eax
 8049914:	e9 e8 ee ff ff       	jmp    8048801 <_vfprintf_r+0x4a1>
 8049919:	dd 85 10 ff ff ff    	fldl   -0xf0(%ebp)
 804991f:	dd 1c 24             	fstpl  (%esp)
 8049922:	e8 19 4f 00 00       	call   804e840 <__fpclassifyd>
 8049927:	85 c0                	test   %eax,%eax
 8049929:	0f 84 e4 02 00 00    	je     8049c13 <_vfprintf_r+0x18b3>
 804992f:	8b 9d 24 ff ff ff    	mov    -0xdc(%ebp),%ebx
 8049935:	83 e3 df             	and    $0xffffffdf,%ebx
 8049938:	83 bd 44 ff ff ff ff 	cmpl   $0xffffffff,-0xbc(%ebp)
 804993f:	0f 84 b1 07 00 00    	je     804a0f6 <_vfprintf_r+0x1d96>
 8049945:	83 fb 47             	cmp    $0x47,%ebx
 8049948:	75 16                	jne    8049960 <_vfprintf_r+0x1600>
 804994a:	8b 95 44 ff ff ff    	mov    -0xbc(%ebp),%edx
 8049950:	b8 01 00 00 00       	mov    $0x1,%eax
 8049955:	85 d2                	test   %edx,%edx
 8049957:	0f 45 c2             	cmovne %edx,%eax
 804995a:	89 85 44 ff ff ff    	mov    %eax,-0xbc(%ebp)
 8049960:	8b 85 4c ff ff ff    	mov    -0xb4(%ebp),%eax
 8049966:	dd 85 10 ff ff ff    	fldl   -0xf0(%ebp)
 804996c:	dd 95 38 ff ff ff    	fstl   -0xc8(%ebp)
 8049972:	80 cc 01             	or     $0x1,%ah
 8049975:	89 85 34 ff ff ff    	mov    %eax,-0xcc(%ebp)
 804997b:	8b 85 3c ff ff ff    	mov    -0xc4(%ebp),%eax
 8049981:	c6 85 48 ff ff ff 00 	movb   $0x0,-0xb8(%ebp)
 8049988:	85 c0                	test   %eax,%eax
 804998a:	0f 88 58 07 00 00    	js     804a0e8 <_vfprintf_r+0x1d88>
 8049990:	83 fb 46             	cmp    $0x46,%ebx
 8049993:	0f 94 c0             	sete   %al
 8049996:	89 c6                	mov    %eax,%esi
 8049998:	0f 84 f0 04 00 00    	je     8049e8e <_vfprintf_r+0x1b2e>
 804999e:	83 fb 45             	cmp    $0x45,%ebx
 80499a1:	0f 85 37 07 00 00    	jne    804a0de <_vfprintf_r+0x1d7e>
 80499a7:	8b 85 44 ff ff ff    	mov    -0xbc(%ebp),%eax
 80499ad:	dd 54 24 04          	fstl   0x4(%esp)
 80499b1:	c7 44 24 0c 02 00 00 	movl   $0x2,0xc(%esp)
 80499b8:	00 
 80499b9:	dd 9d 38 ff ff ff    	fstpl  -0xc8(%ebp)
 80499bf:	8d 70 01             	lea    0x1(%eax),%esi
 80499c2:	8d 85 6c ff ff ff    	lea    -0x94(%ebp),%eax
 80499c8:	89 44 24 1c          	mov    %eax,0x1c(%esp)
 80499cc:	8d 85 60 ff ff ff    	lea    -0xa0(%ebp),%eax
 80499d2:	89 44 24 18          	mov    %eax,0x18(%esp)
 80499d6:	8d 85 5c ff ff ff    	lea    -0xa4(%ebp),%eax
 80499dc:	89 44 24 14          	mov    %eax,0x14(%esp)
 80499e0:	8b 45 08             	mov    0x8(%ebp),%eax
 80499e3:	89 74 24 10          	mov    %esi,0x10(%esp)
 80499e7:	89 04 24             	mov    %eax,(%esp)
 80499ea:	e8 f1 0c 00 00       	call   804a6e0 <_dtoa_r>
 80499ef:	89 85 2c ff ff ff    	mov    %eax,-0xd4(%ebp)
 80499f5:	8d 0c 30             	lea    (%eax,%esi,1),%ecx
 80499f8:	dd 85 38 ff ff ff    	fldl   -0xc8(%ebp)
 80499fe:	d9 ee                	fldz   
 8049a00:	d9 c9                	fxch   %st(1)
 8049a02:	df e9                	fucomip %st(1),%st
 8049a04:	dd d8                	fstp   %st(0)
 8049a06:	0f 8a f8 01 00 00    	jp     8049c04 <_vfprintf_r+0x18a4>
 8049a0c:	89 c8                	mov    %ecx,%eax
 8049a0e:	0f 85 f0 01 00 00    	jne    8049c04 <_vfprintf_r+0x18a4>
 8049a14:	2b 85 2c ff ff ff    	sub    -0xd4(%ebp),%eax
 8049a1a:	83 fb 47             	cmp    $0x47,%ebx
 8049a1d:	89 85 1c ff ff ff    	mov    %eax,-0xe4(%ebp)
 8049a23:	0f 84 4b 05 00 00    	je     8049f74 <_vfprintf_r+0x1c14>
 8049a29:	83 bd 24 ff ff ff 65 	cmpl   $0x65,-0xdc(%ebp)
 8049a30:	8b 85 5c ff ff ff    	mov    -0xa4(%ebp),%eax
 8049a36:	0f 8e 92 05 00 00    	jle    8049fce <_vfprintf_r+0x1c6e>
 8049a3c:	83 bd 24 ff ff ff 66 	cmpl   $0x66,-0xdc(%ebp)
 8049a43:	89 85 20 ff ff ff    	mov    %eax,-0xe0(%ebp)
 8049a49:	0f 84 b6 06 00 00    	je     804a105 <_vfprintf_r+0x1da5>
 8049a4f:	8b 85 20 ff ff ff    	mov    -0xe0(%ebp),%eax
 8049a55:	39 85 1c ff ff ff    	cmp    %eax,-0xe4(%ebp)
 8049a5b:	0f 8f 4a 06 00 00    	jg     804a0ab <_vfprintf_r+0x1d4b>
 8049a61:	8b 85 4c ff ff ff    	mov    -0xb4(%ebp),%eax
 8049a67:	83 e0 01             	and    $0x1,%eax
 8049a6a:	0f 85 79 07 00 00    	jne    804a1e9 <_vfprintf_r+0x1e89>
 8049a70:	8b 95 20 ff ff ff    	mov    -0xe0(%ebp),%edx
 8049a76:	c7 85 24 ff ff ff 67 	movl   $0x67,-0xdc(%ebp)
 8049a7d:	00 00 00 
 8049a80:	85 d2                	test   %edx,%edx
 8049a82:	0f 49 c2             	cmovns %edx,%eax
 8049a85:	89 95 38 ff ff ff    	mov    %edx,-0xc8(%ebp)
 8049a8b:	80 bd 48 ff ff ff 00 	cmpb   $0x0,-0xb8(%ebp)
 8049a92:	0f 85 95 04 00 00    	jne    8049f2d <_vfprintf_r+0x1bcd>
 8049a98:	89 85 48 ff ff ff    	mov    %eax,-0xb8(%ebp)
 8049a9e:	8b 85 34 ff ff ff    	mov    -0xcc(%ebp),%eax
 8049aa4:	0f b6 9d 59 ff ff ff 	movzbl -0xa7(%ebp),%ebx
 8049aab:	c7 85 44 ff ff ff 00 	movl   $0x0,-0xbc(%ebp)
 8049ab2:	00 00 00 
 8049ab5:	89 85 4c ff ff ff    	mov    %eax,-0xb4(%ebp)
 8049abb:	e9 f0 eb ff ff       	jmp    80486b0 <_vfprintf_r+0x350>
 8049ac0:	dd 00                	fldl   (%eax)
 8049ac2:	83 c0 08             	add    $0x8,%eax
 8049ac5:	dd 9d 10 ff ff ff    	fstpl  -0xf0(%ebp)
 8049acb:	89 45 14             	mov    %eax,0x14(%ebp)
 8049ace:	e9 d1 ef ff ff       	jmp    8048aa4 <_vfprintf_r+0x744>
 8049ad3:	8d 85 74 ff ff ff    	lea    -0x8c(%ebp),%eax
 8049ad9:	89 44 24 08          	mov    %eax,0x8(%esp)
 8049add:	8b 45 0c             	mov    0xc(%ebp),%eax
 8049ae0:	89 44 24 04          	mov    %eax,0x4(%esp)
 8049ae4:	8b 45 08             	mov    0x8(%ebp),%eax
 8049ae7:	89 04 24             	mov    %eax,(%esp)
 8049aea:	e8 51 50 00 00       	call   804eb40 <__sprint_r>
 8049aef:	85 c0                	test   %eax,%eax
 8049af1:	0f 85 e1 ea ff ff    	jne    80485d8 <_vfprintf_r+0x278>
 8049af7:	8b 8d 7c ff ff ff    	mov    -0x84(%ebp),%ecx
 8049afd:	8d 7d a8             	lea    -0x58(%ebp),%edi
 8049b00:	e9 32 f5 ff ff       	jmp    8049037 <_vfprintf_r+0xcd7>
 8049b05:	8b 85 78 ff ff ff    	mov    -0x88(%ebp),%eax
 8049b0b:	83 c1 01             	add    $0x1,%ecx
 8049b0e:	83 c7 08             	add    $0x8,%edi
 8049b11:	c7 47 f8 b6 05 05 08 	movl   $0x80505b6,-0x8(%edi)
 8049b18:	c7 47 fc 01 00 00 00 	movl   $0x1,-0x4(%edi)
 8049b1f:	89 8d 7c ff ff ff    	mov    %ecx,-0x84(%ebp)
 8049b25:	83 c0 01             	add    $0x1,%eax
 8049b28:	83 f8 07             	cmp    $0x7,%eax
 8049b2b:	89 85 78 ff ff ff    	mov    %eax,-0x88(%ebp)
 8049b31:	0f 8f 5b 01 00 00    	jg     8049c92 <_vfprintf_r+0x1932>
 8049b37:	85 db                	test   %ebx,%ebx
 8049b39:	0f 84 33 01 00 00    	je     8049c72 <_vfprintf_r+0x1912>
 8049b3f:	8b 85 18 ff ff ff    	mov    -0xe8(%ebp),%eax
 8049b45:	83 c7 08             	add    $0x8,%edi
 8049b48:	89 47 f8             	mov    %eax,-0x8(%edi)
 8049b4b:	8b 85 0c ff ff ff    	mov    -0xf4(%ebp),%eax
 8049b51:	89 47 fc             	mov    %eax,-0x4(%edi)
 8049b54:	8d 14 01             	lea    (%ecx,%eax,1),%edx
 8049b57:	8b 85 78 ff ff ff    	mov    -0x88(%ebp),%eax
 8049b5d:	89 95 7c ff ff ff    	mov    %edx,-0x84(%ebp)
 8049b63:	83 c0 01             	add    $0x1,%eax
 8049b66:	83 f8 07             	cmp    $0x7,%eax
 8049b69:	89 85 78 ff ff ff    	mov    %eax,-0x88(%ebp)
 8049b6f:	0f 8f e3 04 00 00    	jg     804a058 <_vfprintf_r+0x1cf8>
 8049b75:	f7 db                	neg    %ebx
 8049b77:	85 db                	test   %ebx,%ebx
 8049b79:	0f 8e d2 01 00 00    	jle    8049d51 <_vfprintf_r+0x19f1>
 8049b7f:	83 fb 10             	cmp    $0x10,%ebx
 8049b82:	0f 8e 74 01 00 00    	jle    8049cfc <_vfprintf_r+0x199c>
 8049b88:	8d b5 74 ff ff ff    	lea    -0x8c(%ebp),%esi
 8049b8e:	eb 0c                	jmp    8049b9c <_vfprintf_r+0x183c>
 8049b90:	83 eb 10             	sub    $0x10,%ebx
 8049b93:	83 fb 10             	cmp    $0x10,%ebx
 8049b96:	0f 8e 60 01 00 00    	jle    8049cfc <_vfprintf_r+0x199c>
 8049b9c:	83 c0 01             	add    $0x1,%eax
 8049b9f:	83 c2 10             	add    $0x10,%edx
 8049ba2:	c7 07 1c 07 05 08    	movl   $0x805071c,(%edi)
 8049ba8:	83 c7 08             	add    $0x8,%edi
 8049bab:	c7 47 fc 10 00 00 00 	movl   $0x10,-0x4(%edi)
 8049bb2:	83 f8 07             	cmp    $0x7,%eax
 8049bb5:	89 95 7c ff ff ff    	mov    %edx,-0x84(%ebp)
 8049bbb:	89 85 78 ff ff ff    	mov    %eax,-0x88(%ebp)
 8049bc1:	7e cd                	jle    8049b90 <_vfprintf_r+0x1830>
 8049bc3:	8b 45 0c             	mov    0xc(%ebp),%eax
 8049bc6:	89 74 24 08          	mov    %esi,0x8(%esp)
 8049bca:	89 44 24 04          	mov    %eax,0x4(%esp)
 8049bce:	8b 45 08             	mov    0x8(%ebp),%eax
 8049bd1:	89 04 24             	mov    %eax,(%esp)
 8049bd4:	e8 67 4f 00 00       	call   804eb40 <__sprint_r>
 8049bd9:	85 c0                	test   %eax,%eax
 8049bdb:	0f 85 f7 e9 ff ff    	jne    80485d8 <_vfprintf_r+0x278>
 8049be1:	8b 95 7c ff ff ff    	mov    -0x84(%ebp),%edx
 8049be7:	8d 7d a8             	lea    -0x58(%ebp),%edi
 8049bea:	8b 85 78 ff ff ff    	mov    -0x88(%ebp),%eax
 8049bf0:	eb 9e                	jmp    8049b90 <_vfprintf_r+0x1830>
 8049bf2:	8d b6 00 00 00 00    	lea    0x0(%esi),%esi
 8049bf8:	8d 50 01             	lea    0x1(%eax),%edx
 8049bfb:	89 95 6c ff ff ff    	mov    %edx,-0x94(%ebp)
 8049c01:	c6 00 30             	movb   $0x30,(%eax)
 8049c04:	8b 85 6c ff ff ff    	mov    -0x94(%ebp),%eax
 8049c0a:	39 c1                	cmp    %eax,%ecx
 8049c0c:	77 ea                	ja     8049bf8 <_vfprintf_r+0x1898>
 8049c0e:	e9 01 fe ff ff       	jmp    8049a14 <_vfprintf_r+0x16b4>
 8049c13:	83 bd 24 ff ff ff 47 	cmpl   $0x47,-0xdc(%ebp)
 8049c1a:	ba 85 05 05 08       	mov    $0x8050585,%edx
 8049c1f:	b8 89 05 05 08       	mov    $0x8050589,%eax
 8049c24:	0f b6 9d 59 ff ff ff 	movzbl -0xa7(%ebp),%ebx
 8049c2b:	c7 85 48 ff ff ff 03 	movl   $0x3,-0xb8(%ebp)
 8049c32:	00 00 00 
 8049c35:	0f 4e c2             	cmovle %edx,%eax
 8049c38:	89 85 2c ff ff ff    	mov    %eax,-0xd4(%ebp)
 8049c3e:	81 a5 4c ff ff ff 7f 	andl   $0xffffff7f,-0xb4(%ebp)
 8049c45:	ff ff ff 
 8049c48:	c7 85 38 ff ff ff 03 	movl   $0x3,-0xc8(%ebp)
 8049c4f:	00 00 00 
 8049c52:	c7 85 44 ff ff ff 00 	movl   $0x0,-0xbc(%ebp)
 8049c59:	00 00 00 
 8049c5c:	c7 85 20 ff ff ff 00 	movl   $0x0,-0xe0(%ebp)
 8049c63:	00 00 00 
 8049c66:	e9 45 ea ff ff       	jmp    80486b0 <_vfprintf_r+0x350>
 8049c6b:	89 d0                	mov    %edx,%eax
 8049c6d:	e9 ce fa ff ff       	jmp    8049740 <_vfprintf_r+0x13e0>
 8049c72:	8b 95 1c ff ff ff    	mov    -0xe4(%ebp),%edx
 8049c78:	85 d2                	test   %edx,%edx
 8049c7a:	0f 85 bf fe ff ff    	jne    8049b3f <_vfprintf_r+0x17df>
 8049c80:	f6 85 4c ff ff ff 01 	testb  $0x1,-0xb4(%ebp)
 8049c87:	0f 84 37 f2 ff ff    	je     8048ec4 <_vfprintf_r+0xb64>
 8049c8d:	e9 ad fe ff ff       	jmp    8049b3f <_vfprintf_r+0x17df>
 8049c92:	8d 85 74 ff ff ff    	lea    -0x8c(%ebp),%eax
 8049c98:	89 44 24 08          	mov    %eax,0x8(%esp)
 8049c9c:	8b 45 0c             	mov    0xc(%ebp),%eax
 8049c9f:	89 44 24 04          	mov    %eax,0x4(%esp)
 8049ca3:	8b 45 08             	mov    0x8(%ebp),%eax
 8049ca6:	89 04 24             	mov    %eax,(%esp)
 8049ca9:	e8 92 4e 00 00       	call   804eb40 <__sprint_r>
 8049cae:	85 c0                	test   %eax,%eax
 8049cb0:	0f 85 22 e9 ff ff    	jne    80485d8 <_vfprintf_r+0x278>
 8049cb6:	8b 9d 5c ff ff ff    	mov    -0xa4(%ebp),%ebx
 8049cbc:	8d 7d a8             	lea    -0x58(%ebp),%edi
 8049cbf:	8b 8d 7c ff ff ff    	mov    -0x84(%ebp),%ecx
 8049cc5:	e9 6d fe ff ff       	jmp    8049b37 <_vfprintf_r+0x17d7>
 8049cca:	8d 85 74 ff ff ff    	lea    -0x8c(%ebp),%eax
 8049cd0:	89 44 24 08          	mov    %eax,0x8(%esp)
 8049cd4:	8b 45 0c             	mov    0xc(%ebp),%eax
 8049cd7:	89 44 24 04          	mov    %eax,0x4(%esp)
 8049cdb:	8b 45 08             	mov    0x8(%ebp),%eax
 8049cde:	89 04 24             	mov    %eax,(%esp)
 8049ce1:	e8 5a 4e 00 00       	call   804eb40 <__sprint_r>
 8049ce6:	85 c0                	test   %eax,%eax
 8049ce8:	0f 85 ea e8 ff ff    	jne    80485d8 <_vfprintf_r+0x278>
 8049cee:	8b 8d 7c ff ff ff    	mov    -0x84(%ebp),%ecx
 8049cf4:	8d 7d a8             	lea    -0x58(%ebp),%edi
 8049cf7:	e9 8b f3 ff ff       	jmp    8049087 <_vfprintf_r+0xd27>
 8049cfc:	83 c0 01             	add    $0x1,%eax
 8049cff:	01 da                	add    %ebx,%edx
 8049d01:	c7 07 1c 07 05 08    	movl   $0x805071c,(%edi)
 8049d07:	83 c7 08             	add    $0x8,%edi
 8049d0a:	89 5f fc             	mov    %ebx,-0x4(%edi)
 8049d0d:	83 f8 07             	cmp    $0x7,%eax
 8049d10:	89 95 7c ff ff ff    	mov    %edx,-0x84(%ebp)
 8049d16:	89 85 78 ff ff ff    	mov    %eax,-0x88(%ebp)
 8049d1c:	7e 33                	jle    8049d51 <_vfprintf_r+0x19f1>
 8049d1e:	8d 85 74 ff ff ff    	lea    -0x8c(%ebp),%eax
 8049d24:	89 44 24 08          	mov    %eax,0x8(%esp)
 8049d28:	8b 45 0c             	mov    0xc(%ebp),%eax
 8049d2b:	89 44 24 04          	mov    %eax,0x4(%esp)
 8049d2f:	8b 45 08             	mov    0x8(%ebp),%eax
 8049d32:	89 04 24             	mov    %eax,(%esp)
 8049d35:	e8 06 4e 00 00       	call   804eb40 <__sprint_r>
 8049d3a:	85 c0                	test   %eax,%eax
 8049d3c:	0f 85 96 e8 ff ff    	jne    80485d8 <_vfprintf_r+0x278>
 8049d42:	8b 95 7c ff ff ff    	mov    -0x84(%ebp),%edx
 8049d48:	8d 7d a8             	lea    -0x58(%ebp),%edi
 8049d4b:	8b 85 78 ff ff ff    	mov    -0x88(%ebp),%eax
 8049d51:	8b 9d 2c ff ff ff    	mov    -0xd4(%ebp),%ebx
 8049d57:	83 c0 01             	add    $0x1,%eax
 8049d5a:	89 85 78 ff ff ff    	mov    %eax,-0x88(%ebp)
 8049d60:	89 1f                	mov    %ebx,(%edi)
 8049d62:	8b 9d 1c ff ff ff    	mov    -0xe4(%ebp),%ebx
 8049d68:	01 da                	add    %ebx,%edx
 8049d6a:	83 f8 07             	cmp    $0x7,%eax
 8049d6d:	89 5f 04             	mov    %ebx,0x4(%edi)
 8049d70:	89 95 7c ff ff ff    	mov    %edx,-0x84(%ebp)
 8049d76:	0f 8f af f5 ff ff    	jg     804932b <_vfprintf_r+0xfcb>
 8049d7c:	83 c7 08             	add    $0x8,%edi
 8049d7f:	89 d1                	mov    %edx,%ecx
 8049d81:	e9 3e f1 ff ff       	jmp    8048ec4 <_vfprintf_r+0xb64>
 8049d86:	8b 85 2c ff ff ff    	mov    -0xd4(%ebp),%eax
 8049d8c:	89 04 24             	mov    %eax,(%esp)
 8049d8f:	e8 4c e5 ff ff       	call   80482e0 <strlen>
 8049d94:	e9 df e8 ff ff       	jmp    8048678 <_vfprintf_r+0x318>
 8049d99:	8d 85 74 ff ff ff    	lea    -0x8c(%ebp),%eax
 8049d9f:	89 44 24 08          	mov    %eax,0x8(%esp)
 8049da3:	8b 45 0c             	mov    0xc(%ebp),%eax
 8049da6:	89 44 24 04          	mov    %eax,0x4(%esp)
 8049daa:	8b 45 08             	mov    0x8(%ebp),%eax
 8049dad:	89 04 24             	mov    %eax,(%esp)
 8049db0:	e8 8b 4d 00 00       	call   804eb40 <__sprint_r>
 8049db5:	85 c0                	test   %eax,%eax
 8049db7:	0f 85 1b e8 ff ff    	jne    80485d8 <_vfprintf_r+0x278>
 8049dbd:	8b 8d 7c ff ff ff    	mov    -0x84(%ebp),%ecx
 8049dc3:	8d 7d a8             	lea    -0x58(%ebp),%edi
 8049dc6:	e9 ec f6 ff ff       	jmp    80494b7 <_vfprintf_r+0x1157>
 8049dcb:	8d 85 74 ff ff ff    	lea    -0x8c(%ebp),%eax
 8049dd1:	89 44 24 08          	mov    %eax,0x8(%esp)
 8049dd5:	8b 45 0c             	mov    0xc(%ebp),%eax
 8049dd8:	89 44 24 04          	mov    %eax,0x4(%esp)
 8049ddc:	8b 45 08             	mov    0x8(%ebp),%eax
 8049ddf:	89 04 24             	mov    %eax,(%esp)
 8049de2:	e8 59 4d 00 00       	call   804eb40 <__sprint_r>
 8049de7:	85 c0                	test   %eax,%eax
 8049de9:	0f 85 e9 e7 ff ff    	jne    80485d8 <_vfprintf_r+0x278>
 8049def:	8b 85 5c ff ff ff    	mov    -0xa4(%ebp),%eax
 8049df5:	8d 7d a8             	lea    -0x58(%ebp),%edi
 8049df8:	8b 8d 7c ff ff ff    	mov    -0x84(%ebp),%ecx
 8049dfe:	e9 3d f9 ff ff       	jmp    8049740 <_vfprintf_r+0x13e0>
 8049e03:	8d 85 74 ff ff ff    	lea    -0x8c(%ebp),%eax
 8049e09:	89 44 24 08          	mov    %eax,0x8(%esp)
 8049e0d:	8b 45 0c             	mov    0xc(%ebp),%eax
 8049e10:	89 44 24 04          	mov    %eax,0x4(%esp)
 8049e14:	8b 45 08             	mov    0x8(%ebp),%eax
 8049e17:	89 04 24             	mov    %eax,(%esp)
 8049e1a:	e8 21 4d 00 00       	call   804eb40 <__sprint_r>
 8049e1f:	85 c0                	test   %eax,%eax
 8049e21:	0f 85 b1 e7 ff ff    	jne    80485d8 <_vfprintf_r+0x278>
 8049e27:	8b b5 1c ff ff ff    	mov    -0xe4(%ebp),%esi
 8049e2d:	8d 7d a8             	lea    -0x58(%ebp),%edi
 8049e30:	2b b5 5c ff ff ff    	sub    -0xa4(%ebp),%esi
 8049e36:	8b 8d 7c ff ff ff    	mov    -0x84(%ebp),%ecx
 8049e3c:	e9 43 f9 ff ff       	jmp    8049784 <_vfprintf_r+0x1424>
 8049e41:	8b 95 44 ff ff ff    	mov    -0xbc(%ebp),%edx
 8049e47:	b0 06                	mov    $0x6,%al
 8049e49:	89 75 14             	mov    %esi,0x14(%ebp)
 8049e4c:	c7 85 44 ff ff ff 00 	movl   $0x0,-0xbc(%ebp)
 8049e53:	00 00 00 
 8049e56:	c7 85 20 ff ff ff 00 	movl   $0x0,-0xe0(%ebp)
 8049e5d:	00 00 00 
 8049e60:	83 fa 06             	cmp    $0x6,%edx
 8049e63:	0f 46 c2             	cmovbe %edx,%eax
 8049e66:	8b 95 2c ff ff ff    	mov    -0xd4(%ebp),%edx
 8049e6c:	85 c0                	test   %eax,%eax
 8049e6e:	89 85 38 ff ff ff    	mov    %eax,-0xc8(%ebp)
 8049e74:	c7 85 2c ff ff ff af 	movl   $0x80505af,-0xd4(%ebp)
 8049e7b:	05 05 08 
 8049e7e:	0f 49 d0             	cmovns %eax,%edx
 8049e81:	31 db                	xor    %ebx,%ebx
 8049e83:	89 95 48 ff ff ff    	mov    %edx,-0xb8(%ebp)
 8049e89:	e9 2d e8 ff ff       	jmp    80486bb <_vfprintf_r+0x35b>
 8049e8e:	ba 03 00 00 00       	mov    $0x3,%edx
 8049e93:	8d 85 6c ff ff ff    	lea    -0x94(%ebp),%eax
 8049e99:	89 44 24 1c          	mov    %eax,0x1c(%esp)
 8049e9d:	8d 85 60 ff ff ff    	lea    -0xa0(%ebp),%eax
 8049ea3:	89 44 24 18          	mov    %eax,0x18(%esp)
 8049ea7:	8d 85 5c ff ff ff    	lea    -0xa4(%ebp),%eax
 8049ead:	89 44 24 14          	mov    %eax,0x14(%esp)
 8049eb1:	8b 85 44 ff ff ff    	mov    -0xbc(%ebp),%eax
 8049eb7:	dd 54 24 04          	fstl   0x4(%esp)
 8049ebb:	89 54 24 0c          	mov    %edx,0xc(%esp)
 8049ebf:	dd 9d 38 ff ff ff    	fstpl  -0xc8(%ebp)
 8049ec5:	89 44 24 10          	mov    %eax,0x10(%esp)
 8049ec9:	8b 45 08             	mov    0x8(%ebp),%eax
 8049ecc:	89 04 24             	mov    %eax,(%esp)
 8049ecf:	e8 0c 08 00 00       	call   804a6e0 <_dtoa_r>
 8049ed4:	83 fb 47             	cmp    $0x47,%ebx
 8049ed7:	89 85 2c ff ff ff    	mov    %eax,-0xd4(%ebp)
 8049edd:	dd 85 38 ff ff ff    	fldl   -0xc8(%ebp)
 8049ee3:	75 09                	jne    8049eee <_vfprintf_r+0x1b8e>
 8049ee5:	f6 85 4c ff ff ff 01 	testb  $0x1,-0xb4(%ebp)
 8049eec:	74 6c                	je     8049f5a <_vfprintf_r+0x1bfa>
 8049eee:	8b 95 2c ff ff ff    	mov    -0xd4(%ebp),%edx
 8049ef4:	89 f0                	mov    %esi,%eax
 8049ef6:	8b 8d 44 ff ff ff    	mov    -0xbc(%ebp),%ecx
 8049efc:	01 d1                	add    %edx,%ecx
 8049efe:	84 c0                	test   %al,%al
 8049f00:	0f 84 f8 fa ff ff    	je     80499fe <_vfprintf_r+0x169e>
 8049f06:	80 3a 30             	cmpb   $0x30,(%edx)
 8049f09:	0f 84 b2 02 00 00    	je     804a1c1 <_vfprintf_r+0x1e61>
 8049f0f:	8b 85 5c ff ff ff    	mov    -0xa4(%ebp),%eax
 8049f15:	01 c1                	add    %eax,%ecx
 8049f17:	e9 e2 fa ff ff       	jmp    80499fe <_vfprintf_r+0x169e>
 8049f1c:	c6 85 59 ff ff ff 2d 	movb   $0x2d,-0xa7(%ebp)
 8049f23:	bb 2d 00 00 00       	mov    $0x2d,%ebx
 8049f28:	e9 a9 eb ff ff       	jmp    8048ad6 <_vfprintf_r+0x776>
 8049f2d:	89 85 48 ff ff ff    	mov    %eax,-0xb8(%ebp)
 8049f33:	8b 85 34 ff ff ff    	mov    -0xcc(%ebp),%eax
 8049f39:	bb 2d 00 00 00       	mov    $0x2d,%ebx
 8049f3e:	c6 85 59 ff ff ff 2d 	movb   $0x2d,-0xa7(%ebp)
 8049f45:	c7 85 44 ff ff ff 00 	movl   $0x0,-0xbc(%ebp)
 8049f4c:	00 00 00 
 8049f4f:	89 85 4c ff ff ff    	mov    %eax,-0xb4(%ebp)
 8049f55:	e9 5a e7 ff ff       	jmp    80486b4 <_vfprintf_r+0x354>
 8049f5a:	dd d8                	fstp   %st(0)
 8049f5c:	8b 85 6c ff ff ff    	mov    -0x94(%ebp),%eax
 8049f62:	89 85 1c ff ff ff    	mov    %eax,-0xe4(%ebp)
 8049f68:	8b 85 2c ff ff ff    	mov    -0xd4(%ebp),%eax
 8049f6e:	29 85 1c ff ff ff    	sub    %eax,-0xe4(%ebp)
 8049f74:	8b 85 5c ff ff ff    	mov    -0xa4(%ebp),%eax
 8049f7a:	83 f8 fd             	cmp    $0xfffffffd,%eax
 8049f7d:	7c 48                	jl     8049fc7 <_vfprintf_r+0x1c67>
 8049f7f:	39 85 44 ff ff ff    	cmp    %eax,-0xbc(%ebp)
 8049f85:	7c 40                	jl     8049fc7 <_vfprintf_r+0x1c67>
 8049f87:	89 85 20 ff ff ff    	mov    %eax,-0xe0(%ebp)
 8049f8d:	e9 bd fa ff ff       	jmp    8049a4f <_vfprintf_r+0x16ef>
 8049f92:	8b 85 44 ff ff ff    	mov    -0xbc(%ebp),%eax
 8049f98:	0f b6 9d 59 ff ff ff 	movzbl -0xa7(%ebp),%ebx
 8049f9f:	89 75 14             	mov    %esi,0x14(%ebp)
 8049fa2:	c7 85 44 ff ff ff 00 	movl   $0x0,-0xbc(%ebp)
 8049fa9:	00 00 00 
 8049fac:	89 85 48 ff ff ff    	mov    %eax,-0xb8(%ebp)
 8049fb2:	89 85 38 ff ff ff    	mov    %eax,-0xc8(%ebp)
 8049fb8:	c7 85 20 ff ff ff 00 	movl   $0x0,-0xe0(%ebp)
 8049fbf:	00 00 00 
 8049fc2:	e9 e9 e6 ff ff       	jmp    80486b0 <_vfprintf_r+0x350>
 8049fc7:	83 ad 24 ff ff ff 02 	subl   $0x2,-0xdc(%ebp)
 8049fce:	8d 48 ff             	lea    -0x1(%eax),%ecx
 8049fd1:	0f b6 85 24 ff ff ff 	movzbl -0xdc(%ebp),%eax
 8049fd8:	85 c9                	test   %ecx,%ecx
 8049fda:	89 8d 5c ff ff ff    	mov    %ecx,-0xa4(%ebp)
 8049fe0:	88 85 65 ff ff ff    	mov    %al,-0x9b(%ebp)
 8049fe6:	0f 88 af 02 00 00    	js     804a29b <_vfprintf_r+0x1f3b>
 8049fec:	c6 85 66 ff ff ff 2b 	movb   $0x2b,-0x9a(%ebp)
 8049ff3:	83 f9 09             	cmp    $0x9,%ecx
 8049ff6:	0f 8f 33 01 00 00    	jg     804a12f <_vfprintf_r+0x1dcf>
 8049ffc:	83 c1 30             	add    $0x30,%ecx
 8049fff:	c6 85 67 ff ff ff 30 	movb   $0x30,-0x99(%ebp)
 804a006:	8d 85 69 ff ff ff    	lea    -0x97(%ebp),%eax
 804a00c:	88 8d 68 ff ff ff    	mov    %cl,-0x98(%ebp)
 804a012:	8b 9d 1c ff ff ff    	mov    -0xe4(%ebp),%ebx
 804a018:	8d 95 65 ff ff ff    	lea    -0x9b(%ebp),%edx
 804a01e:	29 d0                	sub    %edx,%eax
 804a020:	89 85 04 ff ff ff    	mov    %eax,-0xfc(%ebp)
 804a026:	89 da                	mov    %ebx,%edx
 804a028:	01 c2                	add    %eax,%edx
 804a02a:	83 fb 01             	cmp    $0x1,%ebx
 804a02d:	89 95 38 ff ff ff    	mov    %edx,-0xc8(%ebp)
 804a033:	0f 8e 3f 02 00 00    	jle    804a278 <_vfprintf_r+0x1f18>
 804a039:	31 c0                	xor    %eax,%eax
 804a03b:	83 85 38 ff ff ff 01 	addl   $0x1,-0xc8(%ebp)
 804a042:	0f 49 85 38 ff ff ff 	cmovns -0xc8(%ebp),%eax
 804a049:	c7 85 20 ff ff ff 00 	movl   $0x0,-0xe0(%ebp)
 804a050:	00 00 00 
 804a053:	e9 33 fa ff ff       	jmp    8049a8b <_vfprintf_r+0x172b>
 804a058:	8d 85 74 ff ff ff    	lea    -0x8c(%ebp),%eax
 804a05e:	89 44 24 08          	mov    %eax,0x8(%esp)
 804a062:	8b 45 0c             	mov    0xc(%ebp),%eax
 804a065:	89 44 24 04          	mov    %eax,0x4(%esp)
 804a069:	8b 45 08             	mov    0x8(%ebp),%eax
 804a06c:	89 04 24             	mov    %eax,(%esp)
 804a06f:	e8 cc 4a 00 00       	call   804eb40 <__sprint_r>
 804a074:	85 c0                	test   %eax,%eax
 804a076:	0f 85 5c e5 ff ff    	jne    80485d8 <_vfprintf_r+0x278>
 804a07c:	8b 9d 5c ff ff ff    	mov    -0xa4(%ebp),%ebx
 804a082:	8d 7d a8             	lea    -0x58(%ebp),%edi
 804a085:	8b 95 7c ff ff ff    	mov    -0x84(%ebp),%edx
 804a08b:	8b 85 78 ff ff ff    	mov    -0x88(%ebp),%eax
 804a091:	e9 df fa ff ff       	jmp    8049b75 <_vfprintf_r+0x1815>
 804a096:	8b 8d 48 ff ff ff    	mov    -0xb8(%ebp),%ecx
 804a09c:	c7 85 44 ff ff ff 00 	movl   $0x0,-0xbc(%ebp)
 804a0a3:	00 00 00 
 804a0a6:	e9 28 e4 ff ff       	jmp    80484d3 <_vfprintf_r+0x173>
 804a0ab:	8b 8d 20 ff ff ff    	mov    -0xe0(%ebp),%ecx
 804a0b1:	ba 01 00 00 00       	mov    $0x1,%edx
 804a0b6:	85 c9                	test   %ecx,%ecx
 804a0b8:	0f 8e 4e 01 00 00    	jle    804a20c <_vfprintf_r+0x1eac>
 804a0be:	31 c0                	xor    %eax,%eax
 804a0c0:	03 95 1c ff ff ff    	add    -0xe4(%ebp),%edx
 804a0c6:	c7 85 24 ff ff ff 67 	movl   $0x67,-0xdc(%ebp)
 804a0cd:	00 00 00 
 804a0d0:	89 95 38 ff ff ff    	mov    %edx,-0xc8(%ebp)
 804a0d6:	0f 49 c2             	cmovns %edx,%eax
 804a0d9:	e9 ad f9 ff ff       	jmp    8049a8b <_vfprintf_r+0x172b>
 804a0de:	ba 02 00 00 00       	mov    $0x2,%edx
 804a0e3:	e9 ab fd ff ff       	jmp    8049e93 <_vfprintf_r+0x1b33>
 804a0e8:	d9 e0                	fchs   
 804a0ea:	c6 85 48 ff ff ff 2d 	movb   $0x2d,-0xb8(%ebp)
 804a0f1:	e9 9a f8 ff ff       	jmp    8049990 <_vfprintf_r+0x1630>
 804a0f6:	c7 85 44 ff ff ff 06 	movl   $0x6,-0xbc(%ebp)
 804a0fd:	00 00 00 
 804a100:	e9 5b f8 ff ff       	jmp    8049960 <_vfprintf_r+0x1600>
 804a105:	85 c0                	test   %eax,%eax
 804a107:	0f 8e 43 01 00 00    	jle    804a250 <_vfprintf_r+0x1ef0>
 804a10d:	8b b5 44 ff ff ff    	mov    -0xbc(%ebp),%esi
 804a113:	85 f6                	test   %esi,%esi
 804a115:	0f 85 82 00 00 00    	jne    804a19d <_vfprintf_r+0x1e3d>
 804a11b:	f6 85 4c ff ff ff 01 	testb  $0x1,-0xb4(%ebp)
 804a122:	75 79                	jne    804a19d <_vfprintf_r+0x1e3d>
 804a124:	89 85 38 ff ff ff    	mov    %eax,-0xc8(%ebp)
 804a12a:	e9 5c f9 ff ff       	jmp    8049a8b <_vfprintf_r+0x172b>
 804a12f:	8d b5 73 ff ff ff    	lea    -0x8d(%ebp),%esi
 804a135:	89 f3                	mov    %esi,%ebx
 804a137:	b8 67 66 66 66       	mov    $0x66666667,%eax
 804a13c:	83 eb 01             	sub    $0x1,%ebx
 804a13f:	f7 e9                	imul   %ecx
 804a141:	89 c8                	mov    %ecx,%eax
 804a143:	c1 f8 1f             	sar    $0x1f,%eax
 804a146:	c1 fa 02             	sar    $0x2,%edx
 804a149:	29 c2                	sub    %eax,%edx
 804a14b:	8d 04 92             	lea    (%edx,%edx,4),%eax
 804a14e:	01 c0                	add    %eax,%eax
 804a150:	29 c1                	sub    %eax,%ecx
 804a152:	83 fa 09             	cmp    $0x9,%edx
 804a155:	8d 41 30             	lea    0x30(%ecx),%eax
 804a158:	89 d1                	mov    %edx,%ecx
 804a15a:	88 03                	mov    %al,(%ebx)
 804a15c:	7f d9                	jg     804a137 <_vfprintf_r+0x1dd7>
 804a15e:	8d 43 ff             	lea    -0x1(%ebx),%eax
 804a161:	83 c1 30             	add    $0x30,%ecx
 804a164:	39 f0                	cmp    %esi,%eax
 804a166:	88 4b ff             	mov    %cl,-0x1(%ebx)
 804a169:	0f 83 53 01 00 00    	jae    804a2c2 <_vfprintf_r+0x1f62>
 804a16f:	8d 95 67 ff ff ff    	lea    -0x99(%ebp),%edx
 804a175:	eb 04                	jmp    804a17b <_vfprintf_r+0x1e1b>
 804a177:	90                   	nop
 804a178:	0f b6 08             	movzbl (%eax),%ecx
 804a17b:	83 c0 01             	add    $0x1,%eax
 804a17e:	83 c2 01             	add    $0x1,%edx
 804a181:	39 f0                	cmp    %esi,%eax
 804a183:	88 4a ff             	mov    %cl,-0x1(%edx)
 804a186:	75 f0                	jne    804a178 <_vfprintf_r+0x1e18>
 804a188:	8d 85 74 ff ff ff    	lea    -0x8c(%ebp),%eax
 804a18e:	29 d8                	sub    %ebx,%eax
 804a190:	8d 95 67 ff ff ff    	lea    -0x99(%ebp),%edx
 804a196:	01 d0                	add    %edx,%eax
 804a198:	e9 75 fe ff ff       	jmp    804a012 <_vfprintf_r+0x1cb2>
 804a19d:	8b 95 20 ff ff ff    	mov    -0xe0(%ebp),%edx
 804a1a3:	8b 85 44 ff ff ff    	mov    -0xbc(%ebp),%eax
 804a1a9:	8d 44 10 01          	lea    0x1(%eax,%edx,1),%eax
 804a1ad:	89 c2                	mov    %eax,%edx
 804a1af:	89 85 38 ff ff ff    	mov    %eax,-0xc8(%ebp)
 804a1b5:	31 c0                	xor    %eax,%eax
 804a1b7:	85 d2                	test   %edx,%edx
 804a1b9:	0f 49 c2             	cmovns %edx,%eax
 804a1bc:	e9 ca f8 ff ff       	jmp    8049a8b <_vfprintf_r+0x172b>
 804a1c1:	d9 ee                	fldz   
 804a1c3:	d9 c9                	fxch   %st(1)
 804a1c5:	db e9                	fucomi %st(1),%st
 804a1c7:	dd d9                	fstp   %st(1)
 804a1c9:	7a 06                	jp     804a1d1 <_vfprintf_r+0x1e71>
 804a1cb:	0f 84 3e fd ff ff    	je     8049f0f <_vfprintf_r+0x1baf>
 804a1d1:	b8 01 00 00 00       	mov    $0x1,%eax
 804a1d6:	2b 85 44 ff ff ff    	sub    -0xbc(%ebp),%eax
 804a1dc:	89 85 5c ff ff ff    	mov    %eax,-0xa4(%ebp)
 804a1e2:	01 c1                	add    %eax,%ecx
 804a1e4:	e9 15 f8 ff ff       	jmp    80499fe <_vfprintf_r+0x169e>
 804a1e9:	8b 95 20 ff ff ff    	mov    -0xe0(%ebp),%edx
 804a1ef:	31 c0                	xor    %eax,%eax
 804a1f1:	c7 85 24 ff ff ff 67 	movl   $0x67,-0xdc(%ebp)
 804a1f8:	00 00 00 
 804a1fb:	83 c2 01             	add    $0x1,%edx
 804a1fe:	89 95 38 ff ff ff    	mov    %edx,-0xc8(%ebp)
 804a204:	0f 49 c2             	cmovns %edx,%eax
 804a207:	e9 7f f8 ff ff       	jmp    8049a8b <_vfprintf_r+0x172b>
 804a20c:	b2 02                	mov    $0x2,%dl
 804a20e:	2b 95 20 ff ff ff    	sub    -0xe0(%ebp),%edx
 804a214:	e9 a5 fe ff ff       	jmp    804a0be <_vfprintf_r+0x1d5e>
 804a219:	8b 55 14             	mov    0x14(%ebp),%edx
 804a21c:	8b 45 14             	mov    0x14(%ebp),%eax
 804a21f:	8b 8d 48 ff ff ff    	mov    -0xb8(%ebp),%ecx
 804a225:	8b 12                	mov    (%edx),%edx
 804a227:	83 c0 04             	add    $0x4,%eax
 804a22a:	89 45 14             	mov    %eax,0x14(%ebp)
 804a22d:	85 d2                	test   %edx,%edx
 804a22f:	89 95 44 ff ff ff    	mov    %edx,-0xbc(%ebp)
 804a235:	0f 89 b4 e2 ff ff    	jns    80484ef <_vfprintf_r+0x18f>
 804a23b:	c7 85 44 ff ff ff ff 	movl   $0xffffffff,-0xbc(%ebp)
 804a242:	ff ff ff 
 804a245:	89 c8                	mov    %ecx,%eax
 804a247:	e9 81 e2 ff ff       	jmp    80484cd <_vfprintf_r+0x16d>
 804a24c:	8d 74 26 00          	lea    0x0(%esi,%eiz,1),%esi
 804a250:	8b 9d 44 ff ff ff    	mov    -0xbc(%ebp),%ebx
 804a256:	85 db                	test   %ebx,%ebx
 804a258:	75 4f                	jne    804a2a9 <_vfprintf_r+0x1f49>
 804a25a:	f6 85 4c ff ff ff 01 	testb  $0x1,-0xb4(%ebp)
 804a261:	75 46                	jne    804a2a9 <_vfprintf_r+0x1f49>
 804a263:	b8 01 00 00 00       	mov    $0x1,%eax
 804a268:	c7 85 38 ff ff ff 01 	movl   $0x1,-0xc8(%ebp)
 804a26f:	00 00 00 
 804a272:	e9 14 f8 ff ff       	jmp    8049a8b <_vfprintf_r+0x172b>
 804a277:	90                   	nop
 804a278:	8b 85 4c ff ff ff    	mov    -0xb4(%ebp),%eax
 804a27e:	83 e0 01             	and    $0x1,%eax
 804a281:	0f 85 b2 fd ff ff    	jne    804a039 <_vfprintf_r+0x1cd9>
 804a287:	85 d2                	test   %edx,%edx
 804a289:	0f 49 c2             	cmovns %edx,%eax
 804a28c:	c7 85 20 ff ff ff 00 	movl   $0x0,-0xe0(%ebp)
 804a293:	00 00 00 
 804a296:	e9 f0 f7 ff ff       	jmp    8049a8b <_vfprintf_r+0x172b>
 804a29b:	f7 d9                	neg    %ecx
 804a29d:	c6 85 66 ff ff ff 2d 	movb   $0x2d,-0x9a(%ebp)
 804a2a4:	e9 4a fd ff ff       	jmp    8049ff3 <_vfprintf_r+0x1c93>
 804a2a9:	8b 95 44 ff ff ff    	mov    -0xbc(%ebp),%edx
 804a2af:	31 c0                	xor    %eax,%eax
 804a2b1:	83 c2 02             	add    $0x2,%edx
 804a2b4:	89 95 38 ff ff ff    	mov    %edx,-0xc8(%ebp)
 804a2ba:	0f 49 c2             	cmovns %edx,%eax
 804a2bd:	e9 c9 f7 ff ff       	jmp    8049a8b <_vfprintf_r+0x172b>
 804a2c2:	8d 85 67 ff ff ff    	lea    -0x99(%ebp),%eax
 804a2c8:	e9 45 fd ff ff       	jmp    804a012 <_vfprintf_r+0x1cb2>
 804a2cd:	8d 76 00             	lea    0x0(%esi),%esi

0804a2d0 <vfprintf>:
 804a2d0:	55                   	push   %ebp
 804a2d1:	89 e5                	mov    %esp,%ebp
 804a2d3:	83 ec 18             	sub    $0x18,%esp
 804a2d6:	e8 e5 25 00 00       	call   804c8c0 <__getreent>
 804a2db:	8b 55 10             	mov    0x10(%ebp),%edx
 804a2de:	89 54 24 0c          	mov    %edx,0xc(%esp)
 804a2e2:	8b 55 0c             	mov    0xc(%ebp),%edx
 804a2e5:	89 04 24             	mov    %eax,(%esp)
 804a2e8:	89 54 24 08          	mov    %edx,0x8(%esp)
 804a2ec:	8b 55 08             	mov    0x8(%ebp),%edx
 804a2ef:	89 54 24 04          	mov    %edx,0x4(%esp)
 804a2f3:	e8 68 e0 ff ff       	call   8048360 <_vfprintf_r>
 804a2f8:	c9                   	leave  
 804a2f9:	c3                   	ret    
 804a2fa:	8d b6 00 00 00 00    	lea    0x0(%esi),%esi

0804a300 <__sbprintf>:
 804a300:	55                   	push   %ebp
 804a301:	89 e5                	mov    %esp,%ebp
 804a303:	57                   	push   %edi
 804a304:	89 c7                	mov    %eax,%edi
 804a306:	56                   	push   %esi
 804a307:	53                   	push   %ebx
 804a308:	89 d3                	mov    %edx,%ebx
 804a30a:	81 ec 9c 04 00 00    	sub    $0x49c,%esp
 804a310:	0f b7 42 0c          	movzwl 0xc(%edx),%eax
 804a314:	c7 85 88 fb ff ff 00 	movl   $0x400,-0x478(%ebp)
 804a31b:	04 00 00 
 804a31e:	c7 85 94 fb ff ff 00 	movl   $0x400,-0x46c(%ebp)
 804a325:	04 00 00 
 804a328:	c7 85 98 fb ff ff 00 	movl   $0x0,-0x468(%ebp)
 804a32f:	00 00 00 
 804a332:	83 e0 fd             	and    $0xfffffffd,%eax
 804a335:	66 89 85 8c fb ff ff 	mov    %ax,-0x474(%ebp)
 804a33c:	8b 42 64             	mov    0x64(%edx),%eax
 804a33f:	89 85 e4 fb ff ff    	mov    %eax,-0x41c(%ebp)
 804a345:	0f b7 42 0e          	movzwl 0xe(%edx),%eax
 804a349:	66 89 85 8e fb ff ff 	mov    %ax,-0x472(%ebp)
 804a350:	8b 42 1c             	mov    0x1c(%edx),%eax
 804a353:	89 85 9c fb ff ff    	mov    %eax,-0x464(%ebp)
 804a359:	8b 42 24             	mov    0x24(%edx),%eax
 804a35c:	8d 95 80 fb ff ff    	lea    -0x480(%ebp),%edx
 804a362:	89 4c 24 08          	mov    %ecx,0x8(%esp)
 804a366:	89 54 24 04          	mov    %edx,0x4(%esp)
 804a36a:	89 3c 24             	mov    %edi,(%esp)
 804a36d:	89 85 a4 fb ff ff    	mov    %eax,-0x45c(%ebp)
 804a373:	8d 85 e8 fb ff ff    	lea    -0x418(%ebp),%eax
 804a379:	89 85 80 fb ff ff    	mov    %eax,-0x480(%ebp)
 804a37f:	89 85 90 fb ff ff    	mov    %eax,-0x470(%ebp)
 804a385:	8b 45 08             	mov    0x8(%ebp),%eax
 804a388:	89 95 74 fb ff ff    	mov    %edx,-0x48c(%ebp)
 804a38e:	89 44 24 0c          	mov    %eax,0xc(%esp)
 804a392:	e8 c9 df ff ff       	call   8048360 <_vfprintf_r>
 804a397:	85 c0                	test   %eax,%eax
 804a399:	89 c6                	mov    %eax,%esi
 804a39b:	78 1c                	js     804a3b9 <__sbprintf+0xb9>
 804a39d:	8b 95 74 fb ff ff    	mov    -0x48c(%ebp),%edx
 804a3a3:	89 3c 24             	mov    %edi,(%esp)
 804a3a6:	89 54 24 04          	mov    %edx,0x4(%esp)
 804a3aa:	e8 31 17 00 00       	call   804bae0 <_fflush_r>
 804a3af:	85 c0                	test   %eax,%eax
 804a3b1:	b8 ff ff ff ff       	mov    $0xffffffff,%eax
 804a3b6:	0f 45 f0             	cmovne %eax,%esi
 804a3b9:	f6 85 8c fb ff ff 40 	testb  $0x40,-0x474(%ebp)
 804a3c0:	74 05                	je     804a3c7 <__sbprintf+0xc7>
 804a3c2:	66 83 4b 0c 40       	orw    $0x40,0xc(%ebx)
 804a3c7:	81 c4 9c 04 00 00    	add    $0x49c,%esp
 804a3cd:	89 f0                	mov    %esi,%eax
 804a3cf:	5b                   	pop    %ebx
 804a3d0:	5e                   	pop    %esi
 804a3d1:	5f                   	pop    %edi
 804a3d2:	5d                   	pop    %ebp
 804a3d3:	c3                   	ret    
 804a3d4:	66 90                	xchg   %ax,%ax
 804a3d6:	66 90                	xchg   %ax,%ax
 804a3d8:	66 90                	xchg   %ax,%ax
 804a3da:	66 90                	xchg   %ax,%ax
 804a3dc:	66 90                	xchg   %ax,%ax
 804a3de:	66 90                	xchg   %ax,%ax

0804a3e0 <__swsetup_r>:
 804a3e0:	55                   	push   %ebp
 804a3e1:	89 e5                	mov    %esp,%ebp
 804a3e3:	53                   	push   %ebx
 804a3e4:	83 ec 14             	sub    $0x14,%esp
 804a3e7:	8b 5d 0c             	mov    0xc(%ebp),%ebx
 804a3ea:	e8 d1 24 00 00       	call   804c8c0 <__getreent>
 804a3ef:	85 c0                	test   %eax,%eax
 804a3f1:	74 0b                	je     804a3fe <__swsetup_r+0x1e>
 804a3f3:	8b 50 38             	mov    0x38(%eax),%edx
 804a3f6:	85 d2                	test   %edx,%edx
 804a3f8:	0f 84 a2 00 00 00    	je     804a4a0 <__swsetup_r+0xc0>
 804a3fe:	0f b7 43 0c          	movzwl 0xc(%ebx),%eax
 804a402:	a8 08                	test   $0x8,%al
 804a404:	74 2a                	je     804a430 <__swsetup_r+0x50>
 804a406:	8b 53 10             	mov    0x10(%ebx),%edx
 804a409:	85 d2                	test   %edx,%edx
 804a40b:	74 3d                	je     804a44a <__swsetup_r+0x6a>
 804a40d:	a8 01                	test   $0x1,%al
 804a40f:	75 5f                	jne    804a470 <__swsetup_r+0x90>
 804a411:	31 c9                	xor    %ecx,%ecx
 804a413:	a8 02                	test   $0x2,%al
 804a415:	75 03                	jne    804a41a <__swsetup_r+0x3a>
 804a417:	8b 4b 14             	mov    0x14(%ebx),%ecx
 804a41a:	31 c0                	xor    %eax,%eax
 804a41c:	85 d2                	test   %edx,%edx
 804a41e:	89 4b 08             	mov    %ecx,0x8(%ebx)
 804a421:	74 62                	je     804a485 <__swsetup_r+0xa5>
 804a423:	83 c4 14             	add    $0x14,%esp
 804a426:	5b                   	pop    %ebx
 804a427:	5d                   	pop    %ebp
 804a428:	c3                   	ret    
 804a429:	8d b4 26 00 00 00 00 	lea    0x0(%esi,%eiz,1),%esi
 804a430:	a8 10                	test   $0x10,%al
 804a432:	0f 84 b8 00 00 00    	je     804a4f0 <__swsetup_r+0x110>
 804a438:	a8 04                	test   $0x4,%al
 804a43a:	75 74                	jne    804a4b0 <__swsetup_r+0xd0>
 804a43c:	8b 53 10             	mov    0x10(%ebx),%edx
 804a43f:	83 c8 08             	or     $0x8,%eax
 804a442:	85 d2                	test   %edx,%edx
 804a444:	66 89 43 0c          	mov    %ax,0xc(%ebx)
 804a448:	75 c3                	jne    804a40d <__swsetup_r+0x2d>
 804a44a:	89 c1                	mov    %eax,%ecx
 804a44c:	66 81 e1 80 02       	and    $0x280,%cx
 804a451:	66 81 f9 00 02       	cmp    $0x200,%cx
 804a456:	74 b5                	je     804a40d <__swsetup_r+0x2d>
 804a458:	8b 45 08             	mov    0x8(%ebp),%eax
 804a45b:	89 5c 24 04          	mov    %ebx,0x4(%esp)
 804a45f:	89 04 24             	mov    %eax,(%esp)
 804a462:	e8 79 25 00 00       	call   804c9e0 <__smakebuf_r>
 804a467:	0f b7 43 0c          	movzwl 0xc(%ebx),%eax
 804a46b:	8b 53 10             	mov    0x10(%ebx),%edx
 804a46e:	eb 9d                	jmp    804a40d <__swsetup_r+0x2d>
 804a470:	8b 43 14             	mov    0x14(%ebx),%eax
 804a473:	c7 43 08 00 00 00 00 	movl   $0x0,0x8(%ebx)
 804a47a:	f7 d8                	neg    %eax
 804a47c:	89 43 18             	mov    %eax,0x18(%ebx)
 804a47f:	31 c0                	xor    %eax,%eax
 804a481:	85 d2                	test   %edx,%edx
 804a483:	75 9e                	jne    804a423 <__swsetup_r+0x43>
 804a485:	0f b7 53 0c          	movzwl 0xc(%ebx),%edx
 804a489:	f6 c2 80             	test   $0x80,%dl
 804a48c:	74 95                	je     804a423 <__swsetup_r+0x43>
 804a48e:	83 ca 40             	or     $0x40,%edx
 804a491:	b8 ff ff ff ff       	mov    $0xffffffff,%eax
 804a496:	66 89 53 0c          	mov    %dx,0xc(%ebx)
 804a49a:	eb 87                	jmp    804a423 <__swsetup_r+0x43>
 804a49c:	8d 74 26 00          	lea    0x0(%esi,%eiz,1),%esi
 804a4a0:	89 04 24             	mov    %eax,(%esp)
 804a4a3:	e8 a8 17 00 00       	call   804bc50 <__sinit>
 804a4a8:	e9 51 ff ff ff       	jmp    804a3fe <__swsetup_r+0x1e>
 804a4ad:	8d 76 00             	lea    0x0(%esi),%esi
 804a4b0:	8b 53 30             	mov    0x30(%ebx),%edx
 804a4b3:	85 d2                	test   %edx,%edx
 804a4b5:	74 21                	je     804a4d8 <__swsetup_r+0xf8>
 804a4b7:	8d 4b 40             	lea    0x40(%ebx),%ecx
 804a4ba:	39 ca                	cmp    %ecx,%edx
 804a4bc:	74 13                	je     804a4d1 <__swsetup_r+0xf1>
 804a4be:	8b 45 08             	mov    0x8(%ebp),%eax
 804a4c1:	89 54 24 04          	mov    %edx,0x4(%esp)
 804a4c5:	89 04 24             	mov    %eax,(%esp)
 804a4c8:	e8 d3 1b 00 00       	call   804c0a0 <_free_r>
 804a4cd:	0f b7 43 0c          	movzwl 0xc(%ebx),%eax
 804a4d1:	c7 43 30 00 00 00 00 	movl   $0x0,0x30(%ebx)
 804a4d8:	8b 53 10             	mov    0x10(%ebx),%edx
 804a4db:	83 e0 db             	and    $0xffffffdb,%eax
 804a4de:	c7 43 04 00 00 00 00 	movl   $0x0,0x4(%ebx)
 804a4e5:	89 13                	mov    %edx,(%ebx)
 804a4e7:	e9 53 ff ff ff       	jmp    804a43f <__swsetup_r+0x5f>
 804a4ec:	8d 74 26 00          	lea    0x0(%esi,%eiz,1),%esi
 804a4f0:	8b 4d 08             	mov    0x8(%ebp),%ecx
 804a4f3:	83 c8 40             	or     $0x40,%eax
 804a4f6:	c7 01 09 00 00 00    	movl   $0x9,(%ecx)
 804a4fc:	66 89 43 0c          	mov    %ax,0xc(%ebx)
 804a500:	b8 ff ff ff ff       	mov    $0xffffffff,%eax
 804a505:	e9 19 ff ff ff       	jmp    804a423 <__swsetup_r+0x43>
 804a50a:	66 90                	xchg   %ax,%ax
 804a50c:	66 90                	xchg   %ax,%ax
 804a50e:	66 90                	xchg   %ax,%ax

0804a510 <quorem>:
 804a510:	55                   	push   %ebp
 804a511:	89 c1                	mov    %eax,%ecx
 804a513:	89 e5                	mov    %esp,%ebp
 804a515:	57                   	push   %edi
 804a516:	89 d7                	mov    %edx,%edi
 804a518:	56                   	push   %esi
 804a519:	53                   	push   %ebx
 804a51a:	83 ec 3c             	sub    $0x3c,%esp
 804a51d:	89 45 d0             	mov    %eax,-0x30(%ebp)
 804a520:	8b 42 10             	mov    0x10(%edx),%eax
 804a523:	3b 41 10             	cmp    0x10(%ecx),%eax
 804a526:	89 55 c8             	mov    %edx,-0x38(%ebp)
 804a529:	89 ca                	mov    %ecx,%edx
 804a52b:	0f 8f 9f 01 00 00    	jg     804a6d0 <quorem+0x1c0>
 804a531:	83 e8 01             	sub    $0x1,%eax
 804a534:	83 c7 14             	add    $0x14,%edi
 804a537:	89 45 d4             	mov    %eax,-0x2c(%ebp)
 804a53a:	c1 e0 02             	shl    $0x2,%eax
 804a53d:	83 c2 14             	add    $0x14,%edx
 804a540:	8d 1c 07             	lea    (%edi,%eax,1),%ebx
 804a543:	01 d0                	add    %edx,%eax
 804a545:	89 55 d8             	mov    %edx,-0x28(%ebp)
 804a548:	8b 13                	mov    (%ebx),%edx
 804a54a:	89 45 c4             	mov    %eax,-0x3c(%ebp)
 804a54d:	8b 00                	mov    (%eax),%eax
 804a54f:	89 5d e4             	mov    %ebx,-0x1c(%ebp)
 804a552:	8d 4a 01             	lea    0x1(%edx),%ecx
 804a555:	31 d2                	xor    %edx,%edx
 804a557:	f7 f1                	div    %ecx
 804a559:	85 c0                	test   %eax,%eax
 804a55b:	89 45 e0             	mov    %eax,-0x20(%ebp)
 804a55e:	89 45 cc             	mov    %eax,-0x34(%ebp)
 804a561:	0f 84 b5 00 00 00    	je     804a61c <quorem+0x10c>
 804a567:	8b 45 d8             	mov    -0x28(%ebp),%eax
 804a56a:	31 f6                	xor    %esi,%esi
 804a56c:	89 fa                	mov    %edi,%edx
 804a56e:	89 7d c0             	mov    %edi,-0x40(%ebp)
 804a571:	89 f7                	mov    %esi,%edi
 804a573:	c7 45 dc 00 00 00 00 	movl   $0x0,-0x24(%ebp)
 804a57a:	8d b6 00 00 00 00    	lea    0x0(%esi),%esi
 804a580:	83 c2 04             	add    $0x4,%edx
 804a583:	8b 72 fc             	mov    -0x4(%edx),%esi
 804a586:	83 c0 04             	add    $0x4,%eax
 804a589:	0f b7 ce             	movzwl %si,%ecx
 804a58c:	0f af 4d e0          	imul   -0x20(%ebp),%ecx
 804a590:	03 4d dc             	add    -0x24(%ebp),%ecx
 804a593:	c1 ee 10             	shr    $0x10,%esi
 804a596:	0f af 75 e0          	imul   -0x20(%ebp),%esi
 804a59a:	89 cb                	mov    %ecx,%ebx
 804a59c:	0f b7 c9             	movzwl %cx,%ecx
 804a59f:	c1 eb 10             	shr    $0x10,%ebx
 804a5a2:	29 cf                	sub    %ecx,%edi
 804a5a4:	01 f3                	add    %esi,%ebx
 804a5a6:	89 de                	mov    %ebx,%esi
 804a5a8:	0f b7 db             	movzwl %bx,%ebx
 804a5ab:	c1 ee 10             	shr    $0x10,%esi
 804a5ae:	89 75 dc             	mov    %esi,-0x24(%ebp)
 804a5b1:	8b 70 fc             	mov    -0x4(%eax),%esi
 804a5b4:	0f b7 ce             	movzwl %si,%ecx
 804a5b7:	01 f9                	add    %edi,%ecx
 804a5b9:	c1 ee 10             	shr    $0x10,%esi
 804a5bc:	29 de                	sub    %ebx,%esi
 804a5be:	89 cb                	mov    %ecx,%ebx
 804a5c0:	c1 fb 10             	sar    $0x10,%ebx
 804a5c3:	0f b7 c9             	movzwl %cx,%ecx
 804a5c6:	01 de                	add    %ebx,%esi
 804a5c8:	89 f7                	mov    %esi,%edi
 804a5ca:	c1 e6 10             	shl    $0x10,%esi
 804a5cd:	09 ce                	or     %ecx,%esi
 804a5cf:	c1 ff 10             	sar    $0x10,%edi
 804a5d2:	39 55 e4             	cmp    %edx,-0x1c(%ebp)
 804a5d5:	89 70 fc             	mov    %esi,-0x4(%eax)
 804a5d8:	73 a6                	jae    804a580 <quorem+0x70>
 804a5da:	8b 45 c4             	mov    -0x3c(%ebp),%eax
 804a5dd:	8b 7d c0             	mov    -0x40(%ebp),%edi
 804a5e0:	8b 10                	mov    (%eax),%edx
 804a5e2:	85 d2                	test   %edx,%edx
 804a5e4:	75 36                	jne    804a61c <quorem+0x10c>
 804a5e6:	8b 4d d8             	mov    -0x28(%ebp),%ecx
 804a5e9:	89 c2                	mov    %eax,%edx
 804a5eb:	83 e8 04             	sub    $0x4,%eax
 804a5ee:	39 c1                	cmp    %eax,%ecx
 804a5f0:	73 21                	jae    804a613 <quorem+0x103>
 804a5f2:	8b 72 fc             	mov    -0x4(%edx),%esi
 804a5f5:	85 f6                	test   %esi,%esi
 804a5f7:	75 1a                	jne    804a613 <quorem+0x103>
 804a5f9:	8b 55 d4             	mov    -0x2c(%ebp),%edx
 804a5fc:	eb 08                	jmp    804a606 <quorem+0xf6>
 804a5fe:	66 90                	xchg   %ax,%ax
 804a600:	8b 18                	mov    (%eax),%ebx
 804a602:	85 db                	test   %ebx,%ebx
 804a604:	75 0a                	jne    804a610 <quorem+0x100>
 804a606:	83 e8 04             	sub    $0x4,%eax
 804a609:	83 ea 01             	sub    $0x1,%edx
 804a60c:	39 c1                	cmp    %eax,%ecx
 804a60e:	72 f0                	jb     804a600 <quorem+0xf0>
 804a610:	89 55 d4             	mov    %edx,-0x2c(%ebp)
 804a613:	8b 45 d0             	mov    -0x30(%ebp),%eax
 804a616:	8b 55 d4             	mov    -0x2c(%ebp),%edx
 804a619:	89 50 10             	mov    %edx,0x10(%eax)
 804a61c:	8b 45 c8             	mov    -0x38(%ebp),%eax
 804a61f:	89 44 24 04          	mov    %eax,0x4(%esp)
 804a623:	8b 45 d0             	mov    -0x30(%ebp),%eax
 804a626:	89 04 24             	mov    %eax,(%esp)
 804a629:	e8 12 36 00 00       	call   804dc40 <__mcmp>
 804a62e:	85 c0                	test   %eax,%eax
 804a630:	0f 88 8e 00 00 00    	js     804a6c4 <quorem+0x1b4>
 804a636:	8b 45 e0             	mov    -0x20(%ebp),%eax
 804a639:	31 f6                	xor    %esi,%esi
 804a63b:	83 c0 01             	add    $0x1,%eax
 804a63e:	89 45 cc             	mov    %eax,-0x34(%ebp)
 804a641:	8b 45 d8             	mov    -0x28(%ebp),%eax
 804a644:	8d 74 26 00          	lea    0x0(%esi,%eiz,1),%esi
 804a648:	83 c7 04             	add    $0x4,%edi
 804a64b:	8b 4f fc             	mov    -0x4(%edi),%ecx
 804a64e:	83 c0 04             	add    $0x4,%eax
 804a651:	8b 58 fc             	mov    -0x4(%eax),%ebx
 804a654:	0f b7 d1             	movzwl %cx,%edx
 804a657:	29 d6                	sub    %edx,%esi
 804a659:	0f b7 d3             	movzwl %bx,%edx
 804a65c:	01 f2                	add    %esi,%edx
 804a65e:	c1 e9 10             	shr    $0x10,%ecx
 804a661:	c1 eb 10             	shr    $0x10,%ebx
 804a664:	29 cb                	sub    %ecx,%ebx
 804a666:	89 d1                	mov    %edx,%ecx
 804a668:	c1 f9 10             	sar    $0x10,%ecx
 804a66b:	0f b7 d2             	movzwl %dx,%edx
 804a66e:	01 cb                	add    %ecx,%ebx
 804a670:	89 de                	mov    %ebx,%esi
 804a672:	c1 e3 10             	shl    $0x10,%ebx
 804a675:	09 d3                	or     %edx,%ebx
 804a677:	c1 fe 10             	sar    $0x10,%esi
 804a67a:	39 7d e4             	cmp    %edi,-0x1c(%ebp)
 804a67d:	89 58 fc             	mov    %ebx,-0x4(%eax)
 804a680:	73 c6                	jae    804a648 <quorem+0x138>
 804a682:	8b 45 d8             	mov    -0x28(%ebp),%eax
 804a685:	8b 7d d4             	mov    -0x2c(%ebp),%edi
 804a688:	8d 14 b8             	lea    (%eax,%edi,4),%edx
 804a68b:	8b 02                	mov    (%edx),%eax
 804a68d:	85 c0                	test   %eax,%eax
 804a68f:	75 33                	jne    804a6c4 <quorem+0x1b4>
 804a691:	8b 4d d8             	mov    -0x28(%ebp),%ecx
 804a694:	8d 42 fc             	lea    -0x4(%edx),%eax
 804a697:	39 c1                	cmp    %eax,%ecx
 804a699:	73 20                	jae    804a6bb <quorem+0x1ab>
 804a69b:	8b 72 fc             	mov    -0x4(%edx),%esi
 804a69e:	85 f6                	test   %esi,%esi
 804a6a0:	75 19                	jne    804a6bb <quorem+0x1ab>
 804a6a2:	89 fa                	mov    %edi,%edx
 804a6a4:	eb 08                	jmp    804a6ae <quorem+0x19e>
 804a6a6:	66 90                	xchg   %ax,%ax
 804a6a8:	8b 18                	mov    (%eax),%ebx
 804a6aa:	85 db                	test   %ebx,%ebx
 804a6ac:	75 0a                	jne    804a6b8 <quorem+0x1a8>
 804a6ae:	83 e8 04             	sub    $0x4,%eax
 804a6b1:	83 ea 01             	sub    $0x1,%edx
 804a6b4:	39 c1                	cmp    %eax,%ecx
 804a6b6:	72 f0                	jb     804a6a8 <quorem+0x198>
 804a6b8:	89 55 d4             	mov    %edx,-0x2c(%ebp)
 804a6bb:	8b 45 d0             	mov    -0x30(%ebp),%eax
 804a6be:	8b 7d d4             	mov    -0x2c(%ebp),%edi
 804a6c1:	89 78 10             	mov    %edi,0x10(%eax)
 804a6c4:	8b 45 cc             	mov    -0x34(%ebp),%eax
 804a6c7:	83 c4 3c             	add    $0x3c,%esp
 804a6ca:	5b                   	pop    %ebx
 804a6cb:	5e                   	pop    %esi
 804a6cc:	5f                   	pop    %edi
 804a6cd:	5d                   	pop    %ebp
 804a6ce:	c3                   	ret    
 804a6cf:	90                   	nop
 804a6d0:	83 c4 3c             	add    $0x3c,%esp
 804a6d3:	31 c0                	xor    %eax,%eax
 804a6d5:	5b                   	pop    %ebx
 804a6d6:	5e                   	pop    %esi
 804a6d7:	5f                   	pop    %edi
 804a6d8:	5d                   	pop    %ebp
 804a6d9:	c3                   	ret    
 804a6da:	8d b6 00 00 00 00    	lea    0x0(%esi),%esi

0804a6e0 <_dtoa_r>:
 804a6e0:	55                   	push   %ebp
 804a6e1:	89 e5                	mov    %esp,%ebp
 804a6e3:	57                   	push   %edi
 804a6e4:	56                   	push   %esi
 804a6e5:	53                   	push   %ebx
 804a6e6:	81 ec 8c 00 00 00    	sub    $0x8c,%esp
 804a6ec:	8b 75 08             	mov    0x8(%ebp),%esi
 804a6ef:	dd 45 0c             	fldl   0xc(%ebp)
 804a6f2:	8b 5d 20             	mov    0x20(%ebp),%ebx
 804a6f5:	dd 5d c0             	fstpl  -0x40(%ebp)
 804a6f8:	8b 46 40             	mov    0x40(%esi),%eax
 804a6fb:	85 c0                	test   %eax,%eax
 804a6fd:	74 23                	je     804a722 <_dtoa_r+0x42>
 804a6ff:	8b 4e 44             	mov    0x44(%esi),%ecx
 804a702:	ba 01 00 00 00       	mov    $0x1,%edx
 804a707:	d3 e2                	shl    %cl,%edx
 804a709:	89 48 04             	mov    %ecx,0x4(%eax)
 804a70c:	89 50 08             	mov    %edx,0x8(%eax)
 804a70f:	89 44 24 04          	mov    %eax,0x4(%esp)
 804a713:	89 34 24             	mov    %esi,(%esp)
 804a716:	e8 05 2e 00 00       	call   804d520 <_Bfree>
 804a71b:	c7 46 40 00 00 00 00 	movl   $0x0,0x40(%esi)
 804a722:	8b 7d c4             	mov    -0x3c(%ebp),%edi
 804a725:	85 ff                	test   %edi,%edi
 804a727:	0f 88 3b 02 00 00    	js     804a968 <_dtoa_r+0x288>
 804a72d:	c7 03 00 00 00 00    	movl   $0x0,(%ebx)
 804a733:	89 f8                	mov    %edi,%eax
 804a735:	25 00 00 f0 7f       	and    $0x7ff00000,%eax
 804a73a:	3d 00 00 f0 7f       	cmp    $0x7ff00000,%eax
 804a73f:	0f 84 e3 01 00 00    	je     804a928 <_dtoa_r+0x248>
 804a745:	dd 45 c0             	fldl   -0x40(%ebp)
 804a748:	d9 ee                	fldz   
 804a74a:	d9 c9                	fxch   %st(1)
 804a74c:	db e9                	fucomi %st(1),%st
 804a74e:	dd d9                	fstp   %st(1)
 804a750:	7a 36                	jp     804a788 <_dtoa_r+0xa8>
 804a752:	75 34                	jne    804a788 <_dtoa_r+0xa8>
 804a754:	dd d8                	fstp   %st(0)
 804a756:	8b 4d 24             	mov    0x24(%ebp),%ecx
 804a759:	8b 45 1c             	mov    0x1c(%ebp),%eax
 804a75c:	85 c9                	test   %ecx,%ecx
 804a75e:	c7 00 01 00 00 00    	movl   $0x1,(%eax)
 804a764:	0f 84 4e 02 00 00    	je     804a9b8 <_dtoa_r+0x2d8>
 804a76a:	8b 45 24             	mov    0x24(%ebp),%eax
 804a76d:	c7 00 b7 05 05 08    	movl   $0x80505b7,(%eax)
 804a773:	b8 b6 05 05 08       	mov    $0x80505b6,%eax
 804a778:	81 c4 8c 00 00 00    	add    $0x8c,%esp
 804a77e:	5b                   	pop    %ebx
 804a77f:	5e                   	pop    %esi
 804a780:	5f                   	pop    %edi
 804a781:	5d                   	pop    %ebp
 804a782:	c3                   	ret    
 804a783:	90                   	nop
 804a784:	8d 74 26 00          	lea    0x0(%esi,%eiz,1),%esi
 804a788:	8d 45 e0             	lea    -0x20(%ebp),%eax
 804a78b:	89 fb                	mov    %edi,%ebx
 804a78d:	89 44 24 10          	mov    %eax,0x10(%esp)
 804a791:	8d 45 e4             	lea    -0x1c(%ebp),%eax
 804a794:	dd 54 24 04          	fstl   0x4(%esp)
 804a798:	89 44 24 0c          	mov    %eax,0xc(%esp)
 804a79c:	dd 5d b8             	fstpl  -0x48(%ebp)
 804a79f:	89 34 24             	mov    %esi,(%esp)
 804a7a2:	c1 eb 14             	shr    $0x14,%ebx
 804a7a5:	e8 e6 37 00 00       	call   804df90 <__d2b>
 804a7aa:	85 db                	test   %ebx,%ebx
 804a7ac:	89 45 a4             	mov    %eax,-0x5c(%ebp)
 804a7af:	0f 85 db 01 00 00    	jne    804a990 <_dtoa_r+0x2b0>
 804a7b5:	8b 45 e0             	mov    -0x20(%ebp),%eax
 804a7b8:	8b 5d e4             	mov    -0x1c(%ebp),%ebx
 804a7bb:	89 45 b4             	mov    %eax,-0x4c(%ebp)
 804a7be:	01 c3                	add    %eax,%ebx
 804a7c0:	81 fb ef fb ff ff    	cmp    $0xfffffbef,%ebx
 804a7c6:	0f 8c ec 07 00 00    	jl     804afb8 <_dtoa_r+0x8d8>
 804a7cc:	8b 55 c0             	mov    -0x40(%ebp),%edx
 804a7cf:	b9 0e fc ff ff       	mov    $0xfffffc0e,%ecx
 804a7d4:	89 f8                	mov    %edi,%eax
 804a7d6:	29 d9                	sub    %ebx,%ecx
 804a7d8:	d3 e0                	shl    %cl,%eax
 804a7da:	8d 8b 12 04 00 00    	lea    0x412(%ebx),%ecx
 804a7e0:	d3 ea                	shr    %cl,%edx
 804a7e2:	09 d0                	or     %edx,%eax
 804a7e4:	31 d2                	xor    %edx,%edx
 804a7e6:	83 eb 01             	sub    $0x1,%ebx
 804a7e9:	89 55 cc             	mov    %edx,-0x34(%ebp)
 804a7ec:	8b 55 b4             	mov    -0x4c(%ebp),%edx
 804a7ef:	89 45 c8             	mov    %eax,-0x38(%ebp)
 804a7f2:	df 6d c8             	fildll -0x38(%ebp)
 804a7f5:	dd 5d b8             	fstpl  -0x48(%ebp)
 804a7f8:	81 6d bc 00 00 f0 01 	subl   $0x1f00000,-0x44(%ebp)
 804a7ff:	c7 45 8c 01 00 00 00 	movl   $0x1,-0x74(%ebp)
 804a806:	dd 45 b8             	fldl   -0x48(%ebp)
 804a809:	d8 25 4c 07 05 08    	fsubs  0x805074c
 804a80f:	89 5d d4             	mov    %ebx,-0x2c(%ebp)
 804a812:	d9 7d d2             	fnstcw -0x2e(%ebp)
 804a815:	dc 0d 68 07 05 08    	fmull  0x8050768
 804a81b:	0f b7 45 d2          	movzwl -0x2e(%ebp),%eax
 804a81f:	b4 0c                	mov    $0xc,%ah
 804a821:	dc 05 70 07 05 08    	faddl  0x8050770
 804a827:	66 89 45 d0          	mov    %ax,-0x30(%ebp)
 804a82b:	db 45 d4             	fildl  -0x2c(%ebp)
 804a82e:	dc 0d 78 07 05 08    	fmull  0x8050778
 804a834:	de c1                	faddp  %st,%st(1)
 804a836:	d9 6d d0             	fldcw  -0x30(%ebp)
 804a839:	db 55 b8             	fistl  -0x48(%ebp)
 804a83c:	d9 6d d2             	fldcw  -0x2e(%ebp)
 804a83f:	d9 ee                	fldz   
 804a841:	df e9                	fucomip %st(1),%st
 804a843:	0f 87 27 07 00 00    	ja     804af70 <_dtoa_r+0x890>
 804a849:	dd d8                	fstp   %st(0)
 804a84b:	83 7d b8 16          	cmpl   $0x16,-0x48(%ebp)
 804a84f:	c7 45 9c 01 00 00 00 	movl   $0x1,-0x64(%ebp)
 804a856:	77 24                	ja     804a87c <_dtoa_r+0x19c>
 804a858:	8b 45 b8             	mov    -0x48(%ebp),%eax
 804a85b:	dd 04 c5 40 08 05 08 	fldl   0x8050840(,%eax,8)
 804a862:	dd 45 c0             	fldl   -0x40(%ebp)
 804a865:	d9 c9                	fxch   %st(1)
 804a867:	df e9                	fucomip %st(1),%st
 804a869:	dd d8                	fstp   %st(0)
 804a86b:	0f 86 5f 07 00 00    	jbe    804afd0 <_dtoa_r+0x8f0>
 804a871:	83 6d b8 01          	subl   $0x1,-0x48(%ebp)
 804a875:	c7 45 9c 00 00 00 00 	movl   $0x0,-0x64(%ebp)
 804a87c:	89 d0                	mov    %edx,%eax
 804a87e:	29 d8                	sub    %ebx,%eax
 804a880:	83 e8 01             	sub    $0x1,%eax
 804a883:	c7 45 a0 00 00 00 00 	movl   $0x0,-0x60(%ebp)
 804a88a:	89 45 ac             	mov    %eax,-0x54(%ebp)
 804a88d:	0f 88 0d 07 00 00    	js     804afa0 <_dtoa_r+0x8c0>
 804a893:	8b 45 b8             	mov    -0x48(%ebp),%eax
 804a896:	85 c0                	test   %eax,%eax
 804a898:	0f 88 ea 06 00 00    	js     804af88 <_dtoa_r+0x8a8>
 804a89e:	01 45 ac             	add    %eax,-0x54(%ebp)
 804a8a1:	89 45 94             	mov    %eax,-0x6c(%ebp)
 804a8a4:	c7 45 b0 00 00 00 00 	movl   $0x0,-0x50(%ebp)
 804a8ab:	83 7d 14 09          	cmpl   $0x9,0x14(%ebp)
 804a8af:	0f 87 0b 03 00 00    	ja     804abc0 <_dtoa_r+0x4e0>
 804a8b5:	83 7d 14 05          	cmpl   $0x5,0x14(%ebp)
 804a8b9:	0f 8e 23 10 00 00    	jle    804b8e2 <_dtoa_r+0x1202>
 804a8bf:	83 6d 14 04          	subl   $0x4,0x14(%ebp)
 804a8c3:	31 c0                	xor    %eax,%eax
 804a8c5:	83 7d 14 03          	cmpl   $0x3,0x14(%ebp)
 804a8c9:	0f 84 43 0d 00 00    	je     804b612 <_dtoa_r+0xf32>
 804a8cf:	0f 8e f3 00 00 00    	jle    804a9c8 <_dtoa_r+0x2e8>
 804a8d5:	83 7d 14 04          	cmpl   $0x4,0x14(%ebp)
 804a8d9:	c7 45 98 01 00 00 00 	movl   $0x1,-0x68(%ebp)
 804a8e0:	0f 84 f3 00 00 00    	je     804a9d9 <_dtoa_r+0x2f9>
 804a8e6:	83 7d 14 05          	cmpl   $0x5,0x14(%ebp)
 804a8ea:	0f 85 d7 02 00 00    	jne    804abc7 <_dtoa_r+0x4e7>
 804a8f0:	8b 5d b8             	mov    -0x48(%ebp),%ebx
 804a8f3:	03 5d 18             	add    0x18(%ebp),%ebx
 804a8f6:	89 5d 90             	mov    %ebx,-0x70(%ebp)
 804a8f9:	83 c3 01             	add    $0x1,%ebx
 804a8fc:	83 fb 0e             	cmp    $0xe,%ebx
 804a8ff:	0f 96 c2             	setbe  %dl
 804a902:	85 db                	test   %ebx,%ebx
 804a904:	89 5d a8             	mov    %ebx,-0x58(%ebp)
 804a907:	0f 8e a7 08 00 00    	jle    804b1b4 <_dtoa_r+0xad4>
 804a90d:	8b 5d a8             	mov    -0x58(%ebp),%ebx
 804a910:	83 fb 0e             	cmp    $0xe,%ebx
 804a913:	89 df                	mov    %ebx,%edi
 804a915:	0f 96 45 b4          	setbe  -0x4c(%ebp)
 804a919:	20 45 b4             	and    %al,-0x4c(%ebp)
 804a91c:	e9 d6 00 00 00       	jmp    804a9f7 <_dtoa_r+0x317>
 804a921:	8d b4 26 00 00 00 00 	lea    0x0(%esi,%eiz,1),%esi
 804a928:	8b 55 c0             	mov    -0x40(%ebp),%edx
 804a92b:	8b 45 1c             	mov    0x1c(%ebp),%eax
 804a92e:	85 d2                	test   %edx,%edx
 804a930:	c7 00 0f 27 00 00    	movl   $0x270f,(%eax)
 804a936:	b8 45 07 05 08       	mov    $0x8050745,%eax
 804a93b:	74 43                	je     804a980 <_dtoa_r+0x2a0>
 804a93d:	8b 5d 24             	mov    0x24(%ebp),%ebx
 804a940:	85 db                	test   %ebx,%ebx
 804a942:	0f 84 30 fe ff ff    	je     804a778 <_dtoa_r+0x98>
 804a948:	8b 75 24             	mov    0x24(%ebp),%esi
 804a94b:	8d 50 08             	lea    0x8(%eax),%edx
 804a94e:	80 78 03 00          	cmpb   $0x0,0x3(%eax)
 804a952:	8d 48 03             	lea    0x3(%eax),%ecx
 804a955:	0f 44 d1             	cmove  %ecx,%edx
 804a958:	89 16                	mov    %edx,(%esi)
 804a95a:	81 c4 8c 00 00 00    	add    $0x8c,%esp
 804a960:	5b                   	pop    %ebx
 804a961:	5e                   	pop    %esi
 804a962:	5f                   	pop    %edi
 804a963:	5d                   	pop    %ebp
 804a964:	c3                   	ret    
 804a965:	8d 76 00             	lea    0x0(%esi),%esi
 804a968:	81 e7 ff ff ff 7f    	and    $0x7fffffff,%edi
 804a96e:	c7 03 01 00 00 00    	movl   $0x1,(%ebx)
 804a974:	89 7d c4             	mov    %edi,-0x3c(%ebp)
 804a977:	e9 b7 fd ff ff       	jmp    804a733 <_dtoa_r+0x53>
 804a97c:	8d 74 26 00          	lea    0x0(%esi,%eiz,1),%esi
 804a980:	81 e7 ff ff 0f 00    	and    $0xfffff,%edi
 804a986:	ba 3c 07 05 08       	mov    $0x805073c,%edx
 804a98b:	0f 44 c2             	cmove  %edx,%eax
 804a98e:	eb ad                	jmp    804a93d <_dtoa_r+0x25d>
 804a990:	8b 45 bc             	mov    -0x44(%ebp),%eax
 804a993:	81 eb ff 03 00 00    	sub    $0x3ff,%ebx
 804a999:	8b 55 e0             	mov    -0x20(%ebp),%edx
 804a99c:	c7 45 8c 00 00 00 00 	movl   $0x0,-0x74(%ebp)
 804a9a3:	25 ff ff 0f 00       	and    $0xfffff,%eax
 804a9a8:	0d 00 00 f0 3f       	or     $0x3ff00000,%eax
 804a9ad:	89 45 bc             	mov    %eax,-0x44(%ebp)
 804a9b0:	e9 51 fe ff ff       	jmp    804a806 <_dtoa_r+0x126>
 804a9b5:	8d 76 00             	lea    0x0(%esi),%esi
 804a9b8:	b8 b6 05 05 08       	mov    $0x80505b6,%eax
 804a9bd:	e9 b6 fd ff ff       	jmp    804a778 <_dtoa_r+0x98>
 804a9c2:	8d b6 00 00 00 00    	lea    0x0(%esi),%esi
 804a9c8:	83 7d 14 02          	cmpl   $0x2,0x14(%ebp)
 804a9cc:	c7 45 98 00 00 00 00 	movl   $0x0,-0x68(%ebp)
 804a9d3:	0f 85 ee 01 00 00    	jne    804abc7 <_dtoa_r+0x4e7>
 804a9d9:	8b 55 18             	mov    0x18(%ebp),%edx
 804a9dc:	85 d2                	test   %edx,%edx
 804a9de:	0f 8e b6 07 00 00    	jle    804b19a <_dtoa_r+0xaba>
 804a9e4:	8b 7d 18             	mov    0x18(%ebp),%edi
 804a9e7:	83 ff 0e             	cmp    $0xe,%edi
 804a9ea:	0f 96 45 b4          	setbe  -0x4c(%ebp)
 804a9ee:	20 45 b4             	and    %al,-0x4c(%ebp)
 804a9f1:	89 7d 90             	mov    %edi,-0x70(%ebp)
 804a9f4:	89 7d a8             	mov    %edi,-0x58(%ebp)
 804a9f7:	83 ff 17             	cmp    $0x17,%edi
 804a9fa:	c7 46 44 00 00 00 00 	movl   $0x0,0x44(%esi)
 804aa01:	0f 86 e5 0e 00 00    	jbe    804b8ec <_dtoa_r+0x120c>
 804aa07:	b9 01 00 00 00       	mov    $0x1,%ecx
 804aa0c:	b8 04 00 00 00       	mov    $0x4,%eax
 804aa11:	8d b4 26 00 00 00 00 	lea    0x0(%esi,%eiz,1),%esi
 804aa18:	01 c0                	add    %eax,%eax
 804aa1a:	89 ca                	mov    %ecx,%edx
 804aa1c:	8d 58 14             	lea    0x14(%eax),%ebx
 804aa1f:	39 fb                	cmp    %edi,%ebx
 804aa21:	8d 49 01             	lea    0x1(%ecx),%ecx
 804aa24:	76 f2                	jbe    804aa18 <_dtoa_r+0x338>
 804aa26:	89 56 44             	mov    %edx,0x44(%esi)
 804aa29:	89 54 24 04          	mov    %edx,0x4(%esp)
 804aa2d:	89 34 24             	mov    %esi,(%esp)
 804aa30:	e8 4b 2a 00 00       	call   804d480 <_Balloc>
 804aa35:	80 7d b4 00          	cmpb   $0x0,-0x4c(%ebp)
 804aa39:	89 c7                	mov    %eax,%edi
 804aa3b:	89 46 40             	mov    %eax,0x40(%esi)
 804aa3e:	0f 84 bb 01 00 00    	je     804abff <_dtoa_r+0x51f>
 804aa44:	8b 5d b8             	mov    -0x48(%ebp),%ebx
 804aa47:	dd 45 c0             	fldl   -0x40(%ebp)
 804aa4a:	85 db                	test   %ebx,%ebx
 804aa4c:	0f 8e de 07 00 00    	jle    804b230 <_dtoa_r+0xb50>
 804aa52:	89 d8                	mov    %ebx,%eax
 804aa54:	83 e0 0f             	and    $0xf,%eax
 804aa57:	dd 04 c5 40 08 05 08 	fldl   0x8050840(,%eax,8)
 804aa5e:	89 d8                	mov    %ebx,%eax
 804aa60:	c1 f8 04             	sar    $0x4,%eax
 804aa63:	a8 10                	test   $0x10,%al
 804aa65:	0f 84 cd 05 00 00    	je     804b038 <_dtoa_r+0x958>
 804aa6b:	dd 05 20 08 05 08    	fldl   0x8050820
 804aa71:	83 e0 0f             	and    $0xf,%eax
 804aa74:	b9 03 00 00 00       	mov    $0x3,%ecx
 804aa79:	d8 fa                	fdivr  %st(2),%st
 804aa7b:	85 c0                	test   %eax,%eax
 804aa7d:	74 22                	je     804aaa1 <_dtoa_r+0x3c1>
 804aa7f:	31 d2                	xor    %edx,%edx
 804aa81:	8d b4 26 00 00 00 00 	lea    0x0(%esi,%eiz,1),%esi
 804aa88:	a8 01                	test   $0x1,%al
 804aa8a:	74 0e                	je     804aa9a <_dtoa_r+0x3ba>
 804aa8c:	d9 c9                	fxch   %st(1)
 804aa8e:	dc 0c d5 00 08 05 08 	fmull  0x8050800(,%edx,8)
 804aa95:	d9 c9                	fxch   %st(1)
 804aa97:	83 c1 01             	add    $0x1,%ecx
 804aa9a:	83 c2 01             	add    $0x1,%edx
 804aa9d:	d1 f8                	sar    %eax
 804aa9f:	75 e7                	jne    804aa88 <_dtoa_r+0x3a8>
 804aaa1:	de f1                	fdivp  %st,%st(1)
 804aaa3:	8b 45 9c             	mov    -0x64(%ebp),%eax
 804aaa6:	85 c0                	test   %eax,%eax
 804aaa8:	74 0a                	je     804aab4 <_dtoa_r+0x3d4>
 804aaaa:	d9 e8                	fld1   
 804aaac:	df e9                	fucomip %st(1),%st
 804aaae:	0f 87 92 0b 00 00    	ja     804b646 <_dtoa_r+0xf66>
 804aab4:	89 4d d4             	mov    %ecx,-0x2c(%ebp)
 804aab7:	8b 45 a8             	mov    -0x58(%ebp),%eax
 804aaba:	db 45 d4             	fildl  -0x2c(%ebp)
 804aabd:	d8 c9                	fmul   %st(1),%st
 804aabf:	d8 05 58 07 05 08    	fadds  0x8050758
 804aac5:	dd 5d c0             	fstpl  -0x40(%ebp)
 804aac8:	81 6d c4 00 00 40 03 	subl   $0x3400000,-0x3c(%ebp)
 804aacf:	85 c0                	test   %eax,%eax
 804aad1:	0f 84 89 05 00 00    	je     804b060 <_dtoa_r+0x980>
 804aad7:	8b 45 b8             	mov    -0x48(%ebp),%eax
 804aada:	8b 4d a8             	mov    -0x58(%ebp),%ecx
 804aadd:	89 45 b4             	mov    %eax,-0x4c(%ebp)
 804aae0:	8b 45 98             	mov    -0x68(%ebp),%eax
 804aae3:	85 c0                	test   %eax,%eax
 804aae5:	0f 84 b5 07 00 00    	je     804b2a0 <_dtoa_r+0xbc0>
 804aaeb:	d9 05 60 07 05 08    	flds   0x8050760
 804aaf1:	8d 57 01             	lea    0x1(%edi),%edx
 804aaf4:	dc 34 cd 38 08 05 08 	fdivl  0x8050838(,%ecx,8)
 804aafb:	d9 7d d2             	fnstcw -0x2e(%ebp)
 804aafe:	0f b7 45 d2          	movzwl -0x2e(%ebp),%eax
 804ab02:	b4 0c                	mov    $0xc,%ah
 804ab04:	66 89 45 d0          	mov    %ax,-0x30(%ebp)
 804ab08:	dc 65 c0             	fsubl  -0x40(%ebp)
 804ab0b:	d9 c9                	fxch   %st(1)
 804ab0d:	d9 6d d0             	fldcw  -0x30(%ebp)
 804ab10:	db 55 d4             	fistl  -0x2c(%ebp)
 804ab13:	d9 6d d2             	fldcw  -0x2e(%ebp)
 804ab16:	8b 45 d4             	mov    -0x2c(%ebp),%eax
 804ab19:	89 45 d4             	mov    %eax,-0x2c(%ebp)
 804ab1c:	83 c0 30             	add    $0x30,%eax
 804ab1f:	db 45 d4             	fildl  -0x2c(%ebp)
 804ab22:	de e9                	fsubrp %st,%st(1)
 804ab24:	d9 c9                	fxch   %st(1)
 804ab26:	88 07                	mov    %al,(%edi)
 804ab28:	db e9                	fucomi %st(1),%st
 804ab2a:	77 7f                	ja     804abab <_dtoa_r+0x4cb>
 804ab2c:	d9 c1                	fld    %st(1)
 804ab2e:	d8 2d 50 07 05 08    	fsubrs 0x8050750
 804ab34:	d9 c9                	fxch   %st(1)
 804ab36:	db e9                	fucomi %st(1),%st
 804ab38:	dd d9                	fstp   %st(1)
 804ab3a:	0f 87 33 0c 00 00    	ja     804b773 <_dtoa_r+0x1093>
 804ab40:	83 f9 01             	cmp    $0x1,%ecx
 804ab43:	0f 8e c4 06 00 00    	jle    804b20d <_dtoa_r+0xb2d>
 804ab49:	01 f9                	add    %edi,%ecx
 804ab4b:	d9 05 54 07 05 08    	flds   0x8050754
 804ab51:	eb 25                	jmp    804ab78 <_dtoa_r+0x498>
 804ab53:	90                   	nop
 804ab54:	8d 74 26 00          	lea    0x0(%esi,%eiz,1),%esi
 804ab58:	d9 c1                	fld    %st(1)
 804ab5a:	d8 2d 50 07 05 08    	fsubrs 0x8050750
 804ab60:	d9 c9                	fxch   %st(1)
 804ab62:	db e9                	fucomi %st(1),%st
 804ab64:	dd d9                	fstp   %st(1)
 804ab66:	0f 87 14 0c 00 00    	ja     804b780 <_dtoa_r+0x10a0>
 804ab6c:	39 ca                	cmp    %ecx,%edx
 804ab6e:	0f 84 a4 06 00 00    	je     804b218 <_dtoa_r+0xb38>
 804ab74:	d9 c9                	fxch   %st(1)
 804ab76:	d9 ca                	fxch   %st(2)
 804ab78:	dc c9                	fmul   %st,%st(1)
 804ab7a:	83 c2 01             	add    $0x1,%edx
 804ab7d:	dc ca                	fmul   %st,%st(2)
 804ab7f:	d9 ca                	fxch   %st(2)
 804ab81:	d9 6d d0             	fldcw  -0x30(%ebp)
 804ab84:	db 55 d4             	fistl  -0x2c(%ebp)
 804ab87:	d9 6d d2             	fldcw  -0x2e(%ebp)
 804ab8a:	8b 45 d4             	mov    -0x2c(%ebp),%eax
 804ab8d:	89 45 d4             	mov    %eax,-0x2c(%ebp)
 804ab90:	83 c0 30             	add    $0x30,%eax
 804ab93:	db 45 d4             	fildl  -0x2c(%ebp)
 804ab96:	de e9                	fsubrp %st,%st(1)
 804ab98:	d9 c9                	fxch   %st(1)
 804ab9a:	88 42 ff             	mov    %al,-0x1(%edx)
 804ab9d:	db e9                	fucomi %st(1),%st
 804ab9f:	76 b7                	jbe    804ab58 <_dtoa_r+0x478>
 804aba1:	dd d8                	fstp   %st(0)
 804aba3:	dd d8                	fstp   %st(0)
 804aba5:	dd d8                	fstp   %st(0)
 804aba7:	dd d8                	fstp   %st(0)
 804aba9:	eb 06                	jmp    804abb1 <_dtoa_r+0x4d1>
 804abab:	dd d8                	fstp   %st(0)
 804abad:	dd d8                	fstp   %st(0)
 804abaf:	dd d8                	fstp   %st(0)
 804abb1:	8b 45 b4             	mov    -0x4c(%ebp),%eax
 804abb4:	89 fb                	mov    %edi,%ebx
 804abb6:	89 d7                	mov    %edx,%edi
 804abb8:	89 45 b8             	mov    %eax,-0x48(%ebp)
 804abbb:	e9 70 03 00 00       	jmp    804af30 <_dtoa_r+0x850>
 804abc0:	c7 45 14 00 00 00 00 	movl   $0x0,0x14(%ebp)
 804abc7:	c7 46 44 00 00 00 00 	movl   $0x0,0x44(%esi)
 804abce:	c7 44 24 04 00 00 00 	movl   $0x0,0x4(%esp)
 804abd5:	00 
 804abd6:	89 34 24             	mov    %esi,(%esp)
 804abd9:	e8 a2 28 00 00       	call   804d480 <_Balloc>
 804abde:	c7 45 98 01 00 00 00 	movl   $0x1,-0x68(%ebp)
 804abe5:	c7 45 a8 ff ff ff ff 	movl   $0xffffffff,-0x58(%ebp)
 804abec:	c7 45 90 ff ff ff ff 	movl   $0xffffffff,-0x70(%ebp)
 804abf3:	c7 45 18 00 00 00 00 	movl   $0x0,0x18(%ebp)
 804abfa:	89 c7                	mov    %eax,%edi
 804abfc:	89 46 40             	mov    %eax,0x40(%esi)
 804abff:	8b 45 e4             	mov    -0x1c(%ebp),%eax
 804ac02:	85 c0                	test   %eax,%eax
 804ac04:	0f 88 2e 01 00 00    	js     804ad38 <_dtoa_r+0x658>
 804ac0a:	83 7d b8 0e          	cmpl   $0xe,-0x48(%ebp)
 804ac0e:	0f 8f 24 01 00 00    	jg     804ad38 <_dtoa_r+0x658>
 804ac14:	8b 45 b8             	mov    -0x48(%ebp),%eax
 804ac17:	dd 04 c5 40 08 05 08 	fldl   0x8050840(,%eax,8)
 804ac1e:	8b 45 a8             	mov    -0x58(%ebp),%eax
 804ac21:	85 c0                	test   %eax,%eax
 804ac23:	7f 0e                	jg     804ac33 <_dtoa_r+0x553>
 804ac25:	8b 45 18             	mov    0x18(%ebp),%eax
 804ac28:	c1 e8 1f             	shr    $0x1f,%eax
 804ac2b:	84 c0                	test   %al,%al
 804ac2d:	0f 85 9d 07 00 00    	jne    804b3d0 <_dtoa_r+0xcf0>
 804ac33:	dd 45 c0             	fldl   -0x40(%ebp)
 804ac36:	d9 c0                	fld    %st(0)
 804ac38:	d8 f2                	fdiv   %st(2),%st
 804ac3a:	d9 7d d2             	fnstcw -0x2e(%ebp)
 804ac3d:	83 7d a8 01          	cmpl   $0x1,-0x58(%ebp)
 804ac41:	0f b7 45 d2          	movzwl -0x2e(%ebp),%eax
 804ac45:	b4 0c                	mov    $0xc,%ah
 804ac47:	66 89 45 d0          	mov    %ax,-0x30(%ebp)
 804ac4b:	8d 47 01             	lea    0x1(%edi),%eax
 804ac4e:	89 45 c0             	mov    %eax,-0x40(%ebp)
 804ac51:	d9 6d d0             	fldcw  -0x30(%ebp)
 804ac54:	db 5d d4             	fistpl -0x2c(%ebp)
 804ac57:	d9 6d d2             	fldcw  -0x2e(%ebp)
 804ac5a:	8b 55 d4             	mov    -0x2c(%ebp),%edx
 804ac5d:	89 55 d4             	mov    %edx,-0x2c(%ebp)
 804ac60:	8d 42 30             	lea    0x30(%edx),%eax
 804ac63:	db 45 d4             	fildl  -0x2c(%ebp)
 804ac66:	d8 ca                	fmul   %st(2),%st
 804ac68:	88 07                	mov    %al,(%edi)
 804ac6a:	de e9                	fsubrp %st,%st(1)
 804ac6c:	74 66                	je     804acd4 <_dtoa_r+0x5f4>
 804ac6e:	d8 0d 54 07 05 08    	fmuls  0x8050754
 804ac74:	d9 ee                	fldz   
 804ac76:	d9 c9                	fxch   %st(1)
 804ac78:	db e9                	fucomi %st(1),%st
 804ac7a:	dd d9                	fstp   %st(1)
 804ac7c:	0f 8b 33 0c 00 00    	jnp    804b8b5 <_dtoa_r+0x11d5>
 804ac82:	8b 5d a8             	mov    -0x58(%ebp),%ebx
 804ac85:	8d 47 02             	lea    0x2(%edi),%eax
 804ac88:	d9 05 54 07 05 08    	flds   0x8050754
 804ac8e:	01 fb                	add    %edi,%ebx
 804ac90:	eb 19                	jmp    804acab <_dtoa_r+0x5cb>
 804ac92:	8d b6 00 00 00 00    	lea    0x0(%esi),%esi
 804ac98:	dc c9                	fmul   %st,%st(1)
 804ac9a:	83 c0 01             	add    $0x1,%eax
 804ac9d:	d9 ee                	fldz   
 804ac9f:	d9 ca                	fxch   %st(2)
 804aca1:	db ea                	fucomi %st(2),%st
 804aca3:	dd da                	fstp   %st(2)
 804aca5:	0f 8b 73 09 00 00    	jnp    804b61e <_dtoa_r+0xf3e>
 804acab:	d9 c1                	fld    %st(1)
 804acad:	39 d8                	cmp    %ebx,%eax
 804acaf:	d8 f3                	fdiv   %st(3),%st
 804acb1:	89 45 c0             	mov    %eax,-0x40(%ebp)
 804acb4:	d9 6d d0             	fldcw  -0x30(%ebp)
 804acb7:	db 5d d4             	fistpl -0x2c(%ebp)
 804acba:	d9 6d d2             	fldcw  -0x2e(%ebp)
 804acbd:	8b 55 d4             	mov    -0x2c(%ebp),%edx
 804acc0:	89 55 d4             	mov    %edx,-0x2c(%ebp)
 804acc3:	8d 4a 30             	lea    0x30(%edx),%ecx
 804acc6:	db 45 d4             	fildl  -0x2c(%ebp)
 804acc9:	d8 cb                	fmul   %st(3),%st
 804accb:	88 48 ff             	mov    %cl,-0x1(%eax)
 804acce:	de ea                	fsubrp %st,%st(2)
 804acd0:	75 c6                	jne    804ac98 <_dtoa_r+0x5b8>
 804acd2:	dd d8                	fstp   %st(0)
 804acd4:	d8 c0                	fadd   %st(0),%st
 804acd6:	db e9                	fucomi %st(1),%st
 804acd8:	77 1e                	ja     804acf8 <_dtoa_r+0x618>
 804acda:	d9 c9                	fxch   %st(1)
 804acdc:	df e9                	fucomip %st(1),%st
 804acde:	dd d8                	fstp   %st(0)
 804ace0:	0f 8a 44 09 00 00    	jp     804b62a <_dtoa_r+0xf4a>
 804ace6:	0f 85 3e 09 00 00    	jne    804b62a <_dtoa_r+0xf4a>
 804acec:	83 e2 01             	and    $0x1,%edx
 804acef:	90                   	nop
 804acf0:	0f 84 34 09 00 00    	je     804b62a <_dtoa_r+0xf4a>
 804acf6:	eb 04                	jmp    804acfc <_dtoa_r+0x61c>
 804acf8:	dd d8                	fstp   %st(0)
 804acfa:	dd d8                	fstp   %st(0)
 804acfc:	8b 4d c0             	mov    -0x40(%ebp),%ecx
 804acff:	89 fb                	mov    %edi,%ebx
 804ad01:	0f b6 41 ff          	movzbl -0x1(%ecx),%eax
 804ad05:	89 cf                	mov    %ecx,%edi
 804ad07:	8b 4d b8             	mov    -0x48(%ebp),%ecx
 804ad0a:	89 4d b4             	mov    %ecx,-0x4c(%ebp)
 804ad0d:	eb 0f                	jmp    804ad1e <_dtoa_r+0x63e>
 804ad0f:	90                   	nop
 804ad10:	39 d3                	cmp    %edx,%ebx
 804ad12:	0f 84 75 09 00 00    	je     804b68d <_dtoa_r+0xfad>
 804ad18:	0f b6 42 ff          	movzbl -0x1(%edx),%eax
 804ad1c:	89 d7                	mov    %edx,%edi
 804ad1e:	3c 39                	cmp    $0x39,%al
 804ad20:	8d 57 ff             	lea    -0x1(%edi),%edx
 804ad23:	74 eb                	je     804ad10 <_dtoa_r+0x630>
 804ad25:	8b 4d b4             	mov    -0x4c(%ebp),%ecx
 804ad28:	83 c0 01             	add    $0x1,%eax
 804ad2b:	88 02                	mov    %al,(%edx)
 804ad2d:	89 4d b8             	mov    %ecx,-0x48(%ebp)
 804ad30:	e9 fb 01 00 00       	jmp    804af30 <_dtoa_r+0x850>
 804ad35:	8d 76 00             	lea    0x0(%esi),%esi
 804ad38:	8b 4d 98             	mov    -0x68(%ebp),%ecx
 804ad3b:	85 c9                	test   %ecx,%ecx
 804ad3d:	0f 85 9d 02 00 00    	jne    804afe0 <_dtoa_r+0x900>
 804ad43:	8b 55 b0             	mov    -0x50(%ebp),%edx
 804ad46:	8b 5d a0             	mov    -0x60(%ebp),%ebx
 804ad49:	c7 45 b4 00 00 00 00 	movl   $0x0,-0x4c(%ebp)
 804ad50:	8b 45 ac             	mov    -0x54(%ebp),%eax
 804ad53:	85 c0                	test   %eax,%eax
 804ad55:	7e 14                	jle    804ad6b <_dtoa_r+0x68b>
 804ad57:	85 db                	test   %ebx,%ebx
 804ad59:	7e 10                	jle    804ad6b <_dtoa_r+0x68b>
 804ad5b:	8b 45 ac             	mov    -0x54(%ebp),%eax
 804ad5e:	39 d8                	cmp    %ebx,%eax
 804ad60:	0f 4f c3             	cmovg  %ebx,%eax
 804ad63:	29 45 a0             	sub    %eax,-0x60(%ebp)
 804ad66:	29 c3                	sub    %eax,%ebx
 804ad68:	29 45 ac             	sub    %eax,-0x54(%ebp)
 804ad6b:	8b 45 b0             	mov    -0x50(%ebp),%eax
 804ad6e:	85 c0                	test   %eax,%eax
 804ad70:	7e 61                	jle    804add3 <_dtoa_r+0x6f3>
 804ad72:	8b 45 98             	mov    -0x68(%ebp),%eax
 804ad75:	85 c0                	test   %eax,%eax
 804ad77:	0f 84 72 04 00 00    	je     804b1ef <_dtoa_r+0xb0f>
 804ad7d:	85 d2                	test   %edx,%edx
 804ad7f:	7e 47                	jle    804adc8 <_dtoa_r+0x6e8>
 804ad81:	8b 45 b4             	mov    -0x4c(%ebp),%eax
 804ad84:	89 54 24 08          	mov    %edx,0x8(%esp)
 804ad88:	89 34 24             	mov    %esi,(%esp)
 804ad8b:	89 55 88             	mov    %edx,-0x78(%ebp)
 804ad8e:	89 44 24 04          	mov    %eax,0x4(%esp)
 804ad92:	e8 69 2c 00 00       	call   804da00 <__pow5mult>
 804ad97:	8b 4d a4             	mov    -0x5c(%ebp),%ecx
 804ad9a:	89 34 24             	mov    %esi,(%esp)
 804ad9d:	89 4c 24 08          	mov    %ecx,0x8(%esp)
 804ada1:	89 44 24 04          	mov    %eax,0x4(%esp)
 804ada5:	89 45 b4             	mov    %eax,-0x4c(%ebp)
 804ada8:	e8 83 2a 00 00       	call   804d830 <__multiply>
 804adad:	8b 4d a4             	mov    -0x5c(%ebp),%ecx
 804adb0:	89 34 24             	mov    %esi,(%esp)
 804adb3:	89 4c 24 04          	mov    %ecx,0x4(%esp)
 804adb7:	89 45 8c             	mov    %eax,-0x74(%ebp)
 804adba:	e8 61 27 00 00       	call   804d520 <_Bfree>
 804adbf:	8b 45 8c             	mov    -0x74(%ebp),%eax
 804adc2:	8b 55 88             	mov    -0x78(%ebp),%edx
 804adc5:	89 45 a4             	mov    %eax,-0x5c(%ebp)
 804adc8:	8b 45 b0             	mov    -0x50(%ebp),%eax
 804adcb:	29 d0                	sub    %edx,%eax
 804adcd:	0f 85 1f 04 00 00    	jne    804b1f2 <_dtoa_r+0xb12>
 804add3:	c7 44 24 04 01 00 00 	movl   $0x1,0x4(%esp)
 804adda:	00 
 804addb:	89 34 24             	mov    %esi,(%esp)
 804adde:	e8 1d 2a 00 00       	call   804d800 <__i2b>
 804ade3:	8b 4d 94             	mov    -0x6c(%ebp),%ecx
 804ade6:	85 c9                	test   %ecx,%ecx
 804ade8:	89 45 b0             	mov    %eax,-0x50(%ebp)
 804adeb:	7e 13                	jle    804ae00 <_dtoa_r+0x720>
 804aded:	89 4c 24 08          	mov    %ecx,0x8(%esp)
 804adf1:	89 44 24 04          	mov    %eax,0x4(%esp)
 804adf5:	89 34 24             	mov    %esi,(%esp)
 804adf8:	e8 03 2c 00 00       	call   804da00 <__pow5mult>
 804adfd:	89 45 b0             	mov    %eax,-0x50(%ebp)
 804ae00:	83 7d 14 01          	cmpl   $0x1,0x14(%ebp)
 804ae04:	c7 45 8c 00 00 00 00 	movl   $0x0,-0x74(%ebp)
 804ae0b:	0f 8e f7 05 00 00    	jle    804b408 <_dtoa_r+0xd28>
 804ae11:	8b 45 94             	mov    -0x6c(%ebp),%eax
 804ae14:	ba 01 00 00 00       	mov    $0x1,%edx
 804ae19:	85 c0                	test   %eax,%eax
 804ae1b:	0f 85 27 05 00 00    	jne    804b348 <_dtoa_r+0xc68>
 804ae21:	8b 45 ac             	mov    -0x54(%ebp),%eax
 804ae24:	01 d0                	add    %edx,%eax
 804ae26:	83 e0 1f             	and    $0x1f,%eax
 804ae29:	89 c2                	mov    %eax,%edx
 804ae2b:	0f 84 57 03 00 00    	je     804b188 <_dtoa_r+0xaa8>
 804ae31:	b8 20 00 00 00       	mov    $0x20,%eax
 804ae36:	29 d0                	sub    %edx,%eax
 804ae38:	83 f8 04             	cmp    $0x4,%eax
 804ae3b:	0f 8e 8c 0a 00 00    	jle    804b8cd <_dtoa_r+0x11ed>
 804ae41:	b8 1c 00 00 00       	mov    $0x1c,%eax
 804ae46:	29 d0                	sub    %edx,%eax
 804ae48:	01 45 a0             	add    %eax,-0x60(%ebp)
 804ae4b:	01 c3                	add    %eax,%ebx
 804ae4d:	01 45 ac             	add    %eax,-0x54(%ebp)
 804ae50:	8b 45 a0             	mov    -0x60(%ebp),%eax
 804ae53:	85 c0                	test   %eax,%eax
 804ae55:	7e 16                	jle    804ae6d <_dtoa_r+0x78d>
 804ae57:	89 44 24 08          	mov    %eax,0x8(%esp)
 804ae5b:	8b 45 a4             	mov    -0x5c(%ebp),%eax
 804ae5e:	89 34 24             	mov    %esi,(%esp)
 804ae61:	89 44 24 04          	mov    %eax,0x4(%esp)
 804ae65:	e8 b6 2c 00 00       	call   804db20 <__lshift>
 804ae6a:	89 45 a4             	mov    %eax,-0x5c(%ebp)
 804ae6d:	8b 45 ac             	mov    -0x54(%ebp),%eax
 804ae70:	85 c0                	test   %eax,%eax
 804ae72:	7e 16                	jle    804ae8a <_dtoa_r+0x7aa>
 804ae74:	89 44 24 08          	mov    %eax,0x8(%esp)
 804ae78:	8b 45 b0             	mov    -0x50(%ebp),%eax
 804ae7b:	89 34 24             	mov    %esi,(%esp)
 804ae7e:	89 44 24 04          	mov    %eax,0x4(%esp)
 804ae82:	e8 99 2c 00 00       	call   804db20 <__lshift>
 804ae87:	89 45 b0             	mov    %eax,-0x50(%ebp)
 804ae8a:	8b 45 9c             	mov    -0x64(%ebp),%eax
 804ae8d:	85 c0                	test   %eax,%eax
 804ae8f:	0f 85 d3 04 00 00    	jne    804b368 <_dtoa_r+0xc88>
 804ae95:	83 7d 14 02          	cmpl   $0x2,0x14(%ebp)
 804ae99:	0f 8e 11 02 00 00    	jle    804b0b0 <_dtoa_r+0x9d0>
 804ae9f:	8b 45 a8             	mov    -0x58(%ebp),%eax
 804aea2:	85 c0                	test   %eax,%eax
 804aea4:	0f 8f 06 02 00 00    	jg     804b0b0 <_dtoa_r+0x9d0>
 804aeaa:	8b 45 a8             	mov    -0x58(%ebp),%eax
 804aead:	85 c0                	test   %eax,%eax
 804aeaf:	0f 85 e0 01 00 00    	jne    804b095 <_dtoa_r+0x9b5>
 804aeb5:	8b 45 b0             	mov    -0x50(%ebp),%eax
 804aeb8:	c7 44 24 0c 00 00 00 	movl   $0x0,0xc(%esp)
 804aebf:	00 
 804aec0:	c7 44 24 08 05 00 00 	movl   $0x5,0x8(%esp)
 804aec7:	00 
 804aec8:	89 34 24             	mov    %esi,(%esp)
 804aecb:	89 44 24 04          	mov    %eax,0x4(%esp)
 804aecf:	e8 6c 26 00 00       	call   804d540 <__multadd>
 804aed4:	89 45 b0             	mov    %eax,-0x50(%ebp)
 804aed7:	89 44 24 04          	mov    %eax,0x4(%esp)
 804aedb:	8b 45 a4             	mov    -0x5c(%ebp),%eax
 804aede:	89 04 24             	mov    %eax,(%esp)
 804aee1:	e8 5a 2d 00 00       	call   804dc40 <__mcmp>
 804aee6:	85 c0                	test   %eax,%eax
 804aee8:	0f 8e a7 01 00 00    	jle    804b095 <_dtoa_r+0x9b5>
 804aeee:	83 45 b8 01          	addl   $0x1,-0x48(%ebp)
 804aef2:	89 fb                	mov    %edi,%ebx
 804aef4:	83 c7 01             	add    $0x1,%edi
 804aef7:	c6 47 ff 31          	movb   $0x31,-0x1(%edi)
 804aefb:	c7 45 c0 00 00 00 00 	movl   $0x0,-0x40(%ebp)
 804af02:	8b 45 b0             	mov    -0x50(%ebp),%eax
 804af05:	89 34 24             	mov    %esi,(%esp)
 804af08:	89 44 24 04          	mov    %eax,0x4(%esp)
 804af0c:	e8 0f 26 00 00       	call   804d520 <_Bfree>
 804af11:	8b 45 b4             	mov    -0x4c(%ebp),%eax
 804af14:	85 c0                	test   %eax,%eax
 804af16:	74 18                	je     804af30 <_dtoa_r+0x850>
 804af18:	39 45 c0             	cmp    %eax,-0x40(%ebp)
 804af1b:	0f 85 a7 02 00 00    	jne    804b1c8 <_dtoa_r+0xae8>
 804af21:	8b 45 b4             	mov    -0x4c(%ebp),%eax
 804af24:	89 34 24             	mov    %esi,(%esp)
 804af27:	89 44 24 04          	mov    %eax,0x4(%esp)
 804af2b:	e8 f0 25 00 00       	call   804d520 <_Bfree>
 804af30:	8b 45 a4             	mov    -0x5c(%ebp),%eax
 804af33:	89 34 24             	mov    %esi,(%esp)
 804af36:	89 44 24 04          	mov    %eax,0x4(%esp)
 804af3a:	e8 e1 25 00 00       	call   804d520 <_Bfree>
 804af3f:	8b 45 b8             	mov    -0x48(%ebp),%eax
 804af42:	8b 75 1c             	mov    0x1c(%ebp),%esi
 804af45:	c6 07 00             	movb   $0x0,(%edi)
 804af48:	83 c0 01             	add    $0x1,%eax
 804af4b:	89 06                	mov    %eax,(%esi)
 804af4d:	8b 45 24             	mov    0x24(%ebp),%eax
 804af50:	85 c0                	test   %eax,%eax
 804af52:	0f 84 90 02 00 00    	je     804b1e8 <_dtoa_r+0xb08>
 804af58:	8b 45 24             	mov    0x24(%ebp),%eax
 804af5b:	89 38                	mov    %edi,(%eax)
 804af5d:	81 c4 8c 00 00 00    	add    $0x8c,%esp
 804af63:	89 d8                	mov    %ebx,%eax
 804af65:	5b                   	pop    %ebx
 804af66:	5e                   	pop    %esi
 804af67:	5f                   	pop    %edi
 804af68:	5d                   	pop    %ebp
 804af69:	c3                   	ret    
 804af6a:	8d b6 00 00 00 00    	lea    0x0(%esi),%esi
 804af70:	db 45 b8             	fildl  -0x48(%ebp)
 804af73:	df e9                	fucomip %st(1),%st
 804af75:	dd d8                	fstp   %st(0)
 804af77:	7a 06                	jp     804af7f <_dtoa_r+0x89f>
 804af79:	0f 84 cc f8 ff ff    	je     804a84b <_dtoa_r+0x16b>
 804af7f:	83 6d b8 01          	subl   $0x1,-0x48(%ebp)
 804af83:	e9 c3 f8 ff ff       	jmp    804a84b <_dtoa_r+0x16b>
 804af88:	8b 45 b8             	mov    -0x48(%ebp),%eax
 804af8b:	29 45 a0             	sub    %eax,-0x60(%ebp)
 804af8e:	c7 45 94 00 00 00 00 	movl   $0x0,-0x6c(%ebp)
 804af95:	f7 d8                	neg    %eax
 804af97:	89 45 b0             	mov    %eax,-0x50(%ebp)
 804af9a:	e9 0c f9 ff ff       	jmp    804a8ab <_dtoa_r+0x1cb>
 804af9f:	90                   	nop
 804afa0:	f7 d8                	neg    %eax
 804afa2:	89 45 a0             	mov    %eax,-0x60(%ebp)
 804afa5:	c7 45 ac 00 00 00 00 	movl   $0x0,-0x54(%ebp)
 804afac:	e9 e2 f8 ff ff       	jmp    804a893 <_dtoa_r+0x1b3>
 804afb1:	8d b4 26 00 00 00 00 	lea    0x0(%esi,%eiz,1),%esi
 804afb8:	8b 45 c0             	mov    -0x40(%ebp),%eax
 804afbb:	b9 ee fb ff ff       	mov    $0xfffffbee,%ecx
 804afc0:	29 d9                	sub    %ebx,%ecx
 804afc2:	d3 e0                	shl    %cl,%eax
 804afc4:	e9 1b f8 ff ff       	jmp    804a7e4 <_dtoa_r+0x104>
 804afc9:	8d b4 26 00 00 00 00 	lea    0x0(%esi,%eiz,1),%esi
 804afd0:	c7 45 9c 00 00 00 00 	movl   $0x0,-0x64(%ebp)
 804afd7:	e9 a0 f8 ff ff       	jmp    804a87c <_dtoa_r+0x19c>
 804afdc:	8d 74 26 00          	lea    0x0(%esi,%eiz,1),%esi
 804afe0:	83 7d 14 01          	cmpl   $0x1,0x14(%ebp)
 804afe4:	0f 8e fe 06 00 00    	jle    804b6e8 <_dtoa_r+0x1008>
 804afea:	8b 45 a8             	mov    -0x58(%ebp),%eax
 804afed:	83 e8 01             	sub    $0x1,%eax
 804aff0:	39 45 b0             	cmp    %eax,-0x50(%ebp)
 804aff3:	0f 8c 3b 06 00 00    	jl     804b634 <_dtoa_r+0xf54>
 804aff9:	8b 55 b0             	mov    -0x50(%ebp),%edx
 804affc:	29 c2                	sub    %eax,%edx
 804affe:	8b 4d a8             	mov    -0x58(%ebp),%ecx
 804b001:	8b 5d a0             	mov    -0x60(%ebp),%ebx
 804b004:	85 c9                	test   %ecx,%ecx
 804b006:	89 c8                	mov    %ecx,%eax
 804b008:	0f 88 83 07 00 00    	js     804b791 <_dtoa_r+0x10b1>
 804b00e:	c7 44 24 04 01 00 00 	movl   $0x1,0x4(%esp)
 804b015:	00 
 804b016:	89 34 24             	mov    %esi,(%esp)
 804b019:	89 55 8c             	mov    %edx,-0x74(%ebp)
 804b01c:	01 45 a0             	add    %eax,-0x60(%ebp)
 804b01f:	01 45 ac             	add    %eax,-0x54(%ebp)
 804b022:	e8 d9 27 00 00       	call   804d800 <__i2b>
 804b027:	8b 55 8c             	mov    -0x74(%ebp),%edx
 804b02a:	89 45 b4             	mov    %eax,-0x4c(%ebp)
 804b02d:	e9 1e fd ff ff       	jmp    804ad50 <_dtoa_r+0x670>
 804b032:	8d b6 00 00 00 00    	lea    0x0(%esi),%esi
 804b038:	d9 c1                	fld    %st(1)
 804b03a:	b9 02 00 00 00       	mov    $0x2,%ecx
 804b03f:	e9 37 fa ff ff       	jmp    804aa7b <_dtoa_r+0x39b>
 804b044:	89 4d d4             	mov    %ecx,-0x2c(%ebp)
 804b047:	db 45 d4             	fildl  -0x2c(%ebp)
 804b04a:	d8 c9                	fmul   %st(1),%st
 804b04c:	d8 05 58 07 05 08    	fadds  0x8050758
 804b052:	dd 5d c0             	fstpl  -0x40(%ebp)
 804b055:	81 6d c4 00 00 40 03 	subl   $0x3400000,-0x3c(%ebp)
 804b05c:	8d 74 26 00          	lea    0x0(%esi,%eiz,1),%esi
 804b060:	d8 25 5c 07 05 08    	fsubs  0x805075c
 804b066:	dd 45 c0             	fldl   -0x40(%ebp)
 804b069:	d9 c9                	fxch   %st(1)
 804b06b:	db e9                	fucomi %st(1),%st
 804b06d:	0f 87 0d 02 00 00    	ja     804b280 <_dtoa_r+0xba0>
 804b073:	d9 c9                	fxch   %st(1)
 804b075:	d9 e0                	fchs   
 804b077:	df e9                	fucomip %st(1),%st
 804b079:	dd d8                	fstp   %st(0)
 804b07b:	0f 86 a7 01 00 00    	jbe    804b228 <_dtoa_r+0xb48>
 804b081:	dd d8                	fstp   %st(0)
 804b083:	eb 02                	jmp    804b087 <_dtoa_r+0x9a7>
 804b085:	dd d8                	fstp   %st(0)
 804b087:	c7 45 b0 00 00 00 00 	movl   $0x0,-0x50(%ebp)
 804b08e:	c7 45 b4 00 00 00 00 	movl   $0x0,-0x4c(%ebp)
 804b095:	8b 45 18             	mov    0x18(%ebp),%eax
 804b098:	89 fb                	mov    %edi,%ebx
 804b09a:	c7 45 c0 00 00 00 00 	movl   $0x0,-0x40(%ebp)
 804b0a1:	f7 d0                	not    %eax
 804b0a3:	89 45 b8             	mov    %eax,-0x48(%ebp)
 804b0a6:	e9 57 fe ff ff       	jmp    804af02 <_dtoa_r+0x822>
 804b0ab:	90                   	nop
 804b0ac:	8d 74 26 00          	lea    0x0(%esi,%eiz,1),%esi
 804b0b0:	8b 45 98             	mov    -0x68(%ebp),%eax
 804b0b3:	85 c0                	test   %eax,%eax
 804b0b5:	0f 85 c5 03 00 00    	jne    804b480 <_dtoa_r+0xda0>
 804b0bb:	89 75 08             	mov    %esi,0x8(%ebp)
 804b0be:	bb 01 00 00 00       	mov    $0x1,%ebx
 804b0c3:	8b 75 a4             	mov    -0x5c(%ebp),%esi
 804b0c6:	eb 24                	jmp    804b0ec <_dtoa_r+0xa0c>
 804b0c8:	8b 45 08             	mov    0x8(%ebp),%eax
 804b0cb:	83 c3 01             	add    $0x1,%ebx
 804b0ce:	89 74 24 04          	mov    %esi,0x4(%esp)
 804b0d2:	c7 44 24 0c 00 00 00 	movl   $0x0,0xc(%esp)
 804b0d9:	00 
 804b0da:	c7 44 24 08 0a 00 00 	movl   $0xa,0x8(%esp)
 804b0e1:	00 
 804b0e2:	89 04 24             	mov    %eax,(%esp)
 804b0e5:	e8 56 24 00 00       	call   804d540 <__multadd>
 804b0ea:	89 c6                	mov    %eax,%esi
 804b0ec:	8b 55 b0             	mov    -0x50(%ebp),%edx
 804b0ef:	89 f0                	mov    %esi,%eax
 804b0f1:	e8 1a f4 ff ff       	call   804a510 <quorem>
 804b0f6:	83 c0 30             	add    $0x30,%eax
 804b0f9:	3b 5d a8             	cmp    -0x58(%ebp),%ebx
 804b0fc:	88 44 1f ff          	mov    %al,-0x1(%edi,%ebx,1)
 804b100:	7c c6                	jl     804b0c8 <_dtoa_r+0x9e8>
 804b102:	89 45 a0             	mov    %eax,-0x60(%ebp)
 804b105:	8b 45 a8             	mov    -0x58(%ebp),%eax
 804b108:	ba 01 00 00 00       	mov    $0x1,%edx
 804b10d:	89 75 a4             	mov    %esi,-0x5c(%ebp)
 804b110:	8b 75 08             	mov    0x8(%ebp),%esi
 804b113:	c7 45 c0 00 00 00 00 	movl   $0x0,-0x40(%ebp)
 804b11a:	85 c0                	test   %eax,%eax
 804b11c:	0f 4f d0             	cmovg  %eax,%edx
 804b11f:	01 fa                	add    %edi,%edx
 804b121:	8b 45 a4             	mov    -0x5c(%ebp),%eax
 804b124:	c7 44 24 08 01 00 00 	movl   $0x1,0x8(%esp)
 804b12b:	00 
 804b12c:	89 34 24             	mov    %esi,(%esp)
 804b12f:	89 55 ac             	mov    %edx,-0x54(%ebp)
 804b132:	89 44 24 04          	mov    %eax,0x4(%esp)
 804b136:	e8 e5 29 00 00       	call   804db20 <__lshift>
 804b13b:	8b 5d b0             	mov    -0x50(%ebp),%ebx
 804b13e:	89 5c 24 04          	mov    %ebx,0x4(%esp)
 804b142:	89 04 24             	mov    %eax,(%esp)
 804b145:	89 45 a4             	mov    %eax,-0x5c(%ebp)
 804b148:	e8 f3 2a 00 00       	call   804dc40 <__mcmp>
 804b14d:	8b 55 ac             	mov    -0x54(%ebp),%edx
 804b150:	83 f8 00             	cmp    $0x0,%eax
 804b153:	0f 8e 41 06 00 00    	jle    804b79a <_dtoa_r+0x10ba>
 804b159:	0f b6 4a ff          	movzbl -0x1(%edx),%ecx
 804b15d:	eb 0f                	jmp    804b16e <_dtoa_r+0xa8e>
 804b15f:	90                   	nop
 804b160:	39 c7                	cmp    %eax,%edi
 804b162:	0f 84 70 05 00 00    	je     804b6d8 <_dtoa_r+0xff8>
 804b168:	0f b6 48 ff          	movzbl -0x1(%eax),%ecx
 804b16c:	89 c2                	mov    %eax,%edx
 804b16e:	80 f9 39             	cmp    $0x39,%cl
 804b171:	8d 42 ff             	lea    -0x1(%edx),%eax
 804b174:	74 ea                	je     804b160 <_dtoa_r+0xa80>
 804b176:	83 c1 01             	add    $0x1,%ecx
 804b179:	89 fb                	mov    %edi,%ebx
 804b17b:	88 08                	mov    %cl,(%eax)
 804b17d:	89 d7                	mov    %edx,%edi
 804b17f:	e9 7e fd ff ff       	jmp    804af02 <_dtoa_r+0x822>
 804b184:	8d 74 26 00          	lea    0x0(%esi,%eiz,1),%esi
 804b188:	b8 1c 00 00 00       	mov    $0x1c,%eax
 804b18d:	01 45 a0             	add    %eax,-0x60(%ebp)
 804b190:	01 c3                	add    %eax,%ebx
 804b192:	01 45 ac             	add    %eax,-0x54(%ebp)
 804b195:	e9 b6 fc ff ff       	jmp    804ae50 <_dtoa_r+0x770>
 804b19a:	ba 01 00 00 00       	mov    $0x1,%edx
 804b19f:	c7 45 90 01 00 00 00 	movl   $0x1,-0x70(%ebp)
 804b1a6:	c7 45 a8 01 00 00 00 	movl   $0x1,-0x58(%ebp)
 804b1ad:	c7 45 18 01 00 00 00 	movl   $0x1,0x18(%ebp)
 804b1b4:	21 c2                	and    %eax,%edx
 804b1b6:	88 55 b4             	mov    %dl,-0x4c(%ebp)
 804b1b9:	31 d2                	xor    %edx,%edx
 804b1bb:	c7 46 44 00 00 00 00 	movl   $0x0,0x44(%esi)
 804b1c2:	e9 62 f8 ff ff       	jmp    804aa29 <_dtoa_r+0x349>
 804b1c7:	90                   	nop
 804b1c8:	8b 55 c0             	mov    -0x40(%ebp),%edx
 804b1cb:	85 d2                	test   %edx,%edx
 804b1cd:	0f 84 4e fd ff ff    	je     804af21 <_dtoa_r+0x841>
 804b1d3:	8b 45 c0             	mov    -0x40(%ebp),%eax
 804b1d6:	89 34 24             	mov    %esi,(%esp)
 804b1d9:	89 44 24 04          	mov    %eax,0x4(%esp)
 804b1dd:	e8 3e 23 00 00       	call   804d520 <_Bfree>
 804b1e2:	e9 3a fd ff ff       	jmp    804af21 <_dtoa_r+0x841>
 804b1e7:	90                   	nop
 804b1e8:	89 d8                	mov    %ebx,%eax
 804b1ea:	e9 89 f5 ff ff       	jmp    804a778 <_dtoa_r+0x98>
 804b1ef:	8b 45 b0             	mov    -0x50(%ebp),%eax
 804b1f2:	89 44 24 08          	mov    %eax,0x8(%esp)
 804b1f6:	8b 45 a4             	mov    -0x5c(%ebp),%eax
 804b1f9:	89 34 24             	mov    %esi,(%esp)
 804b1fc:	89 44 24 04          	mov    %eax,0x4(%esp)
 804b200:	e8 fb 27 00 00       	call   804da00 <__pow5mult>
 804b205:	89 45 a4             	mov    %eax,-0x5c(%ebp)
 804b208:	e9 c6 fb ff ff       	jmp    804add3 <_dtoa_r+0x6f3>
 804b20d:	dd d8                	fstp   %st(0)
 804b20f:	dd d8                	fstp   %st(0)
 804b211:	eb 15                	jmp    804b228 <_dtoa_r+0xb48>
 804b213:	90                   	nop
 804b214:	8d 74 26 00          	lea    0x0(%esi,%eiz,1),%esi
 804b218:	dd d8                	fstp   %st(0)
 804b21a:	dd d8                	fstp   %st(0)
 804b21c:	dd d8                	fstp   %st(0)
 804b21e:	eb 08                	jmp    804b228 <_dtoa_r+0xb48>
 804b220:	dd d8                	fstp   %st(0)
 804b222:	8d b6 00 00 00 00    	lea    0x0(%esi),%esi
 804b228:	dd 5d c0             	fstpl  -0x40(%ebp)
 804b22b:	e9 cf f9 ff ff       	jmp    804abff <_dtoa_r+0x51f>
 804b230:	8b 45 b8             	mov    -0x48(%ebp),%eax
 804b233:	f7 d8                	neg    %eax
 804b235:	0f 84 6a 04 00 00    	je     804b6a5 <_dtoa_r+0xfc5>
 804b23b:	89 c2                	mov    %eax,%edx
 804b23d:	b9 02 00 00 00       	mov    $0x2,%ecx
 804b242:	83 e2 0f             	and    $0xf,%edx
 804b245:	c1 f8 04             	sar    $0x4,%eax
 804b248:	dd 04 d5 40 08 05 08 	fldl   0x8050840(,%edx,8)
 804b24f:	85 c0                	test   %eax,%eax
 804b251:	d8 c9                	fmul   %st(1),%st
 804b253:	0f 84 4a f8 ff ff    	je     804aaa3 <_dtoa_r+0x3c3>
 804b259:	31 d2                	xor    %edx,%edx
 804b25b:	90                   	nop
 804b25c:	8d 74 26 00          	lea    0x0(%esi,%eiz,1),%esi
 804b260:	a8 01                	test   $0x1,%al
 804b262:	74 0a                	je     804b26e <_dtoa_r+0xb8e>
 804b264:	dc 0c d5 00 08 05 08 	fmull  0x8050800(,%edx,8)
 804b26b:	83 c1 01             	add    $0x1,%ecx
 804b26e:	83 c2 01             	add    $0x1,%edx
 804b271:	d1 f8                	sar    %eax
 804b273:	75 eb                	jne    804b260 <_dtoa_r+0xb80>
 804b275:	e9 29 f8 ff ff       	jmp    804aaa3 <_dtoa_r+0x3c3>
 804b27a:	8d b6 00 00 00 00    	lea    0x0(%esi),%esi
 804b280:	dd d8                	fstp   %st(0)
 804b282:	dd d8                	fstp   %st(0)
 804b284:	dd d8                	fstp   %st(0)
 804b286:	c7 45 b0 00 00 00 00 	movl   $0x0,-0x50(%ebp)
 804b28d:	c7 45 b4 00 00 00 00 	movl   $0x0,-0x4c(%ebp)
 804b294:	e9 55 fc ff ff       	jmp    804aeee <_dtoa_r+0x80e>
 804b299:	8d b4 26 00 00 00 00 	lea    0x0(%esi,%eiz,1),%esi
 804b2a0:	d9 7d d2             	fnstcw -0x2e(%ebp)
 804b2a3:	8d 41 ff             	lea    -0x1(%ecx),%eax
 804b2a6:	dd 45 c0             	fldl   -0x40(%ebp)
 804b2a9:	dc 0c c5 40 08 05 08 	fmull  0x8050840(,%eax,8)
 804b2b0:	d9 c9                	fxch   %st(1)
 804b2b2:	89 45 88             	mov    %eax,-0x78(%ebp)
 804b2b5:	0f b7 45 d2          	movzwl -0x2e(%ebp),%eax
 804b2b9:	8d 57 01             	lea    0x1(%edi),%edx
 804b2bc:	8d 1c 0f             	lea    (%edi,%ecx,1),%ebx
 804b2bf:	b4 0c                	mov    $0xc,%ah
 804b2c1:	66 89 45 d0          	mov    %ax,-0x30(%ebp)
 804b2c5:	d9 6d d0             	fldcw  -0x30(%ebp)
 804b2c8:	db 55 d4             	fistl  -0x2c(%ebp)
 804b2cb:	d9 6d d2             	fldcw  -0x2e(%ebp)
 804b2ce:	8b 45 d4             	mov    -0x2c(%ebp),%eax
 804b2d1:	89 45 d4             	mov    %eax,-0x2c(%ebp)
 804b2d4:	83 c0 30             	add    $0x30,%eax
 804b2d7:	83 f9 01             	cmp    $0x1,%ecx
 804b2da:	db 45 d4             	fildl  -0x2c(%ebp)
 804b2dd:	de e9                	fsubrp %st,%st(1)
 804b2df:	88 07                	mov    %al,(%edi)
 804b2e1:	89 d0                	mov    %edx,%eax
 804b2e3:	74 37                	je     804b31c <_dtoa_r+0xc3c>
 804b2e5:	d9 05 54 07 05 08    	flds   0x8050754
 804b2eb:	eb 05                	jmp    804b2f2 <_dtoa_r+0xc12>
 804b2ed:	8d 76 00             	lea    0x0(%esi),%esi
 804b2f0:	d9 c9                	fxch   %st(1)
 804b2f2:	dc c9                	fmul   %st,%st(1)
 804b2f4:	d9 c9                	fxch   %st(1)
 804b2f6:	83 c0 01             	add    $0x1,%eax
 804b2f9:	d9 6d d0             	fldcw  -0x30(%ebp)
 804b2fc:	db 55 d4             	fistl  -0x2c(%ebp)
 804b2ff:	d9 6d d2             	fldcw  -0x2e(%ebp)
 804b302:	8b 4d d4             	mov    -0x2c(%ebp),%ecx
 804b305:	89 4d d4             	mov    %ecx,-0x2c(%ebp)
 804b308:	83 c1 30             	add    $0x30,%ecx
 804b30b:	39 d8                	cmp    %ebx,%eax
 804b30d:	db 45 d4             	fildl  -0x2c(%ebp)
 804b310:	de e9                	fsubrp %st,%st(1)
 804b312:	88 48 ff             	mov    %cl,-0x1(%eax)
 804b315:	75 d9                	jne    804b2f0 <_dtoa_r+0xc10>
 804b317:	dd d9                	fstp   %st(1)
 804b319:	03 55 88             	add    -0x78(%ebp),%edx
 804b31c:	d9 05 60 07 05 08    	flds   0x8050760
 804b322:	d9 c2                	fld    %st(2)
 804b324:	d8 c1                	fadd   %st(1),%st
 804b326:	d9 ca                	fxch   %st(2)
 804b328:	db ea                	fucomi %st(2),%st
 804b32a:	dd da                	fstp   %st(2)
 804b32c:	0f 86 7f 03 00 00    	jbe    804b6b1 <_dtoa_r+0xfd1>
 804b332:	dd d8                	fstp   %st(0)
 804b334:	dd d8                	fstp   %st(0)
 804b336:	dd d8                	fstp   %st(0)
 804b338:	dd d8                	fstp   %st(0)
 804b33a:	89 fb                	mov    %edi,%ebx
 804b33c:	0f b6 42 ff          	movzbl -0x1(%edx),%eax
 804b340:	89 d7                	mov    %edx,%edi
 804b342:	e9 d7 f9 ff ff       	jmp    804ad1e <_dtoa_r+0x63e>
 804b347:	90                   	nop
 804b348:	8b 4d b0             	mov    -0x50(%ebp),%ecx
 804b34b:	8b 41 10             	mov    0x10(%ecx),%eax
 804b34e:	8b 44 81 10          	mov    0x10(%ecx,%eax,4),%eax
 804b352:	89 04 24             	mov    %eax,(%esp)
 804b355:	e8 c6 23 00 00       	call   804d720 <__hi0bits>
 804b35a:	ba 20 00 00 00       	mov    $0x20,%edx
 804b35f:	29 c2                	sub    %eax,%edx
 804b361:	e9 bb fa ff ff       	jmp    804ae21 <_dtoa_r+0x741>
 804b366:	66 90                	xchg   %ax,%ax
 804b368:	8b 45 b0             	mov    -0x50(%ebp),%eax
 804b36b:	89 44 24 04          	mov    %eax,0x4(%esp)
 804b36f:	8b 45 a4             	mov    -0x5c(%ebp),%eax
 804b372:	89 04 24             	mov    %eax,(%esp)
 804b375:	e8 c6 28 00 00       	call   804dc40 <__mcmp>
 804b37a:	85 c0                	test   %eax,%eax
 804b37c:	0f 89 13 fb ff ff    	jns    804ae95 <_dtoa_r+0x7b5>
 804b382:	8b 45 a4             	mov    -0x5c(%ebp),%eax
 804b385:	c7 44 24 0c 00 00 00 	movl   $0x0,0xc(%esp)
 804b38c:	00 
 804b38d:	c7 44 24 08 0a 00 00 	movl   $0xa,0x8(%esp)
 804b394:	00 
 804b395:	89 34 24             	mov    %esi,(%esp)
 804b398:	89 44 24 04          	mov    %eax,0x4(%esp)
 804b39c:	83 6d b8 01          	subl   $0x1,-0x48(%ebp)
 804b3a0:	e8 9b 21 00 00       	call   804d540 <__multadd>
 804b3a5:	8b 4d 98             	mov    -0x68(%ebp),%ecx
 804b3a8:	85 c9                	test   %ecx,%ecx
 804b3aa:	89 45 a4             	mov    %eax,-0x5c(%ebp)
 804b3ad:	0f 85 8d 00 00 00    	jne    804b440 <_dtoa_r+0xd60>
 804b3b3:	83 7d 90 00          	cmpl   $0x0,-0x70(%ebp)
 804b3b7:	8b 45 90             	mov    -0x70(%ebp),%eax
 804b3ba:	7f 0a                	jg     804b3c6 <_dtoa_r+0xce6>
 804b3bc:	83 7d 14 02          	cmpl   $0x2,0x14(%ebp)
 804b3c0:	0f 8f ff 04 00 00    	jg     804b8c5 <_dtoa_r+0x11e5>
 804b3c6:	89 45 a8             	mov    %eax,-0x58(%ebp)
 804b3c9:	e9 ed fc ff ff       	jmp    804b0bb <_dtoa_r+0x9db>
 804b3ce:	66 90                	xchg   %ax,%ax
 804b3d0:	8b 5d a8             	mov    -0x58(%ebp),%ebx
 804b3d3:	85 db                	test   %ebx,%ebx
 804b3d5:	0f 85 aa fc ff ff    	jne    804b085 <_dtoa_r+0x9a5>
 804b3db:	d8 0d 5c 07 05 08    	fmuls  0x805075c
 804b3e1:	c7 45 b0 00 00 00 00 	movl   $0x0,-0x50(%ebp)
 804b3e8:	c7 45 b4 00 00 00 00 	movl   $0x0,-0x4c(%ebp)
 804b3ef:	dd 45 c0             	fldl   -0x40(%ebp)
 804b3f2:	d9 c9                	fxch   %st(1)
 804b3f4:	df e9                	fucomip %st(1),%st
 804b3f6:	dd d8                	fstp   %st(0)
 804b3f8:	0f 83 97 fc ff ff    	jae    804b095 <_dtoa_r+0x9b5>
 804b3fe:	e9 eb fa ff ff       	jmp    804aeee <_dtoa_r+0x80e>
 804b403:	90                   	nop
 804b404:	8d 74 26 00          	lea    0x0(%esi,%eiz,1),%esi
 804b408:	8b 45 c0             	mov    -0x40(%ebp),%eax
 804b40b:	85 c0                	test   %eax,%eax
 804b40d:	0f 85 fe f9 ff ff    	jne    804ae11 <_dtoa_r+0x731>
 804b413:	8b 45 c4             	mov    -0x3c(%ebp),%eax
 804b416:	a9 ff ff 0f 00       	test   $0xfffff,%eax
 804b41b:	0f 85 f0 f9 ff ff    	jne    804ae11 <_dtoa_r+0x731>
 804b421:	a9 00 00 f0 7f       	test   $0x7ff00000,%eax
 804b426:	0f 84 e5 f9 ff ff    	je     804ae11 <_dtoa_r+0x731>
 804b42c:	83 45 a0 01          	addl   $0x1,-0x60(%ebp)
 804b430:	83 45 ac 01          	addl   $0x1,-0x54(%ebp)
 804b434:	c7 45 8c 01 00 00 00 	movl   $0x1,-0x74(%ebp)
 804b43b:	e9 d1 f9 ff ff       	jmp    804ae11 <_dtoa_r+0x731>
 804b440:	8b 45 b4             	mov    -0x4c(%ebp),%eax
 804b443:	c7 44 24 0c 00 00 00 	movl   $0x0,0xc(%esp)
 804b44a:	00 
 804b44b:	c7 44 24 08 0a 00 00 	movl   $0xa,0x8(%esp)
 804b452:	00 
 804b453:	89 34 24             	mov    %esi,(%esp)
 804b456:	89 44 24 04          	mov    %eax,0x4(%esp)
 804b45a:	e8 e1 20 00 00       	call   804d540 <__multadd>
 804b45f:	8b 55 90             	mov    -0x70(%ebp),%edx
 804b462:	85 d2                	test   %edx,%edx
 804b464:	89 45 b4             	mov    %eax,-0x4c(%ebp)
 804b467:	8b 45 90             	mov    -0x70(%ebp),%eax
 804b46a:	7f 0a                	jg     804b476 <_dtoa_r+0xd96>
 804b46c:	83 7d 14 02          	cmpl   $0x2,0x14(%ebp)
 804b470:	0f 8f 4f 04 00 00    	jg     804b8c5 <_dtoa_r+0x11e5>
 804b476:	89 45 a8             	mov    %eax,-0x58(%ebp)
 804b479:	8d b4 26 00 00 00 00 	lea    0x0(%esi,%eiz,1),%esi
 804b480:	85 db                	test   %ebx,%ebx
 804b482:	7e 16                	jle    804b49a <_dtoa_r+0xdba>
 804b484:	8b 45 b4             	mov    -0x4c(%ebp),%eax
 804b487:	89 5c 24 08          	mov    %ebx,0x8(%esp)
 804b48b:	89 34 24             	mov    %esi,(%esp)
 804b48e:	89 44 24 04          	mov    %eax,0x4(%esp)
 804b492:	e8 89 26 00 00       	call   804db20 <__lshift>
 804b497:	89 45 b4             	mov    %eax,-0x4c(%ebp)
 804b49a:	8b 5d 8c             	mov    -0x74(%ebp),%ebx
 804b49d:	8b 45 b4             	mov    -0x4c(%ebp),%eax
 804b4a0:	85 db                	test   %ebx,%ebx
 804b4a2:	89 45 ac             	mov    %eax,-0x54(%ebp)
 804b4a5:	0f 85 11 03 00 00    	jne    804b7bc <_dtoa_r+0x10dc>
 804b4ab:	8b 45 a8             	mov    -0x58(%ebp),%eax
 804b4ae:	8d 5f 01             	lea    0x1(%edi),%ebx
 804b4b1:	89 7d 8c             	mov    %edi,-0x74(%ebp)
 804b4b4:	01 f8                	add    %edi,%eax
 804b4b6:	8b 7d a4             	mov    -0x5c(%ebp),%edi
 804b4b9:	89 45 90             	mov    %eax,-0x70(%ebp)
 804b4bc:	8b 45 c0             	mov    -0x40(%ebp),%eax
 804b4bf:	83 e0 01             	and    $0x1,%eax
 804b4c2:	89 45 9c             	mov    %eax,-0x64(%ebp)
 804b4c5:	eb 2e                	jmp    804b4f5 <_dtoa_r+0xe15>
 804b4c7:	90                   	nop
 804b4c8:	e8 73 20 00 00       	call   804d540 <__multadd>
 804b4cd:	c7 44 24 0c 00 00 00 	movl   $0x0,0xc(%esp)
 804b4d4:	00 
 804b4d5:	c7 44 24 08 0a 00 00 	movl   $0xa,0x8(%esp)
 804b4dc:	00 
 804b4dd:	89 34 24             	mov    %esi,(%esp)
 804b4e0:	89 45 b4             	mov    %eax,-0x4c(%ebp)
 804b4e3:	8b 45 ac             	mov    -0x54(%ebp),%eax
 804b4e6:	89 44 24 04          	mov    %eax,0x4(%esp)
 804b4ea:	e8 51 20 00 00       	call   804d540 <__multadd>
 804b4ef:	89 45 ac             	mov    %eax,-0x54(%ebp)
 804b4f2:	83 c3 01             	add    $0x1,%ebx
 804b4f5:	8b 55 b0             	mov    -0x50(%ebp),%edx
 804b4f8:	8d 43 ff             	lea    -0x1(%ebx),%eax
 804b4fb:	89 45 98             	mov    %eax,-0x68(%ebp)
 804b4fe:	89 f8                	mov    %edi,%eax
 804b500:	e8 0b f0 ff ff       	call   804a510 <quorem>
 804b505:	89 3c 24             	mov    %edi,(%esp)
 804b508:	8d 48 30             	lea    0x30(%eax),%ecx
 804b50b:	89 4d a0             	mov    %ecx,-0x60(%ebp)
 804b50e:	8b 4d b4             	mov    -0x4c(%ebp),%ecx
 804b511:	89 45 94             	mov    %eax,-0x6c(%ebp)
 804b514:	89 4c 24 04          	mov    %ecx,0x4(%esp)
 804b518:	e8 23 27 00 00       	call   804dc40 <__mcmp>
 804b51d:	8b 4d ac             	mov    -0x54(%ebp),%ecx
 804b520:	89 34 24             	mov    %esi,(%esp)
 804b523:	89 4c 24 08          	mov    %ecx,0x8(%esp)
 804b527:	89 45 c0             	mov    %eax,-0x40(%ebp)
 804b52a:	8b 45 b0             	mov    -0x50(%ebp),%eax
 804b52d:	89 44 24 04          	mov    %eax,0x4(%esp)
 804b531:	e8 5a 27 00 00       	call   804dc90 <__mdiff>
 804b536:	8b 48 0c             	mov    0xc(%eax),%ecx
 804b539:	89 c2                	mov    %eax,%edx
 804b53b:	85 c9                	test   %ecx,%ecx
 804b53d:	0f 85 c5 00 00 00    	jne    804b608 <_dtoa_r+0xf28>
 804b543:	89 44 24 04          	mov    %eax,0x4(%esp)
 804b547:	89 3c 24             	mov    %edi,(%esp)
 804b54a:	89 45 a8             	mov    %eax,-0x58(%ebp)
 804b54d:	e8 ee 26 00 00       	call   804dc40 <__mcmp>
 804b552:	8b 55 a8             	mov    -0x58(%ebp),%edx
 804b555:	89 54 24 04          	mov    %edx,0x4(%esp)
 804b559:	89 34 24             	mov    %esi,(%esp)
 804b55c:	89 45 a8             	mov    %eax,-0x58(%ebp)
 804b55f:	e8 bc 1f 00 00       	call   804d520 <_Bfree>
 804b564:	8b 45 a8             	mov    -0x58(%ebp),%eax
 804b567:	89 c1                	mov    %eax,%ecx
 804b569:	0b 4d 14             	or     0x14(%ebp),%ecx
 804b56c:	75 0b                	jne    804b579 <_dtoa_r+0xe99>
 804b56e:	8b 55 9c             	mov    -0x64(%ebp),%edx
 804b571:	85 d2                	test   %edx,%edx
 804b573:	0f 84 fb 02 00 00    	je     804b874 <_dtoa_r+0x1194>
 804b579:	8b 55 c0             	mov    -0x40(%ebp),%edx
 804b57c:	85 d2                	test   %edx,%edx
 804b57e:	0f 88 7f 01 00 00    	js     804b703 <_dtoa_r+0x1023>
 804b584:	8b 4d c0             	mov    -0x40(%ebp),%ecx
 804b587:	0b 4d 14             	or     0x14(%ebp),%ecx
 804b58a:	75 0b                	jne    804b597 <_dtoa_r+0xeb7>
 804b58c:	8b 4d 9c             	mov    -0x64(%ebp),%ecx
 804b58f:	85 c9                	test   %ecx,%ecx
 804b591:	0f 84 6c 01 00 00    	je     804b703 <_dtoa_r+0x1023>
 804b597:	85 c0                	test   %eax,%eax
 804b599:	0f 8f 82 02 00 00    	jg     804b821 <_dtoa_r+0x1141>
 804b59f:	0f b6 45 a0          	movzbl -0x60(%ebp),%eax
 804b5a3:	89 da                	mov    %ebx,%edx
 804b5a5:	3b 5d 90             	cmp    -0x70(%ebp),%ebx
 804b5a8:	88 43 ff             	mov    %al,-0x1(%ebx)
 804b5ab:	0f 84 8d 02 00 00    	je     804b83e <_dtoa_r+0x115e>
 804b5b1:	89 7c 24 04          	mov    %edi,0x4(%esp)
 804b5b5:	c7 44 24 0c 00 00 00 	movl   $0x0,0xc(%esp)
 804b5bc:	00 
 804b5bd:	c7 44 24 08 0a 00 00 	movl   $0xa,0x8(%esp)
 804b5c4:	00 
 804b5c5:	89 34 24             	mov    %esi,(%esp)
 804b5c8:	e8 73 1f 00 00       	call   804d540 <__multadd>
 804b5cd:	c7 44 24 0c 00 00 00 	movl   $0x0,0xc(%esp)
 804b5d4:	00 
 804b5d5:	c7 44 24 08 0a 00 00 	movl   $0xa,0x8(%esp)
 804b5dc:	00 
 804b5dd:	89 34 24             	mov    %esi,(%esp)
 804b5e0:	89 c7                	mov    %eax,%edi
 804b5e2:	8b 45 ac             	mov    -0x54(%ebp),%eax
 804b5e5:	39 45 b4             	cmp    %eax,-0x4c(%ebp)
 804b5e8:	8b 45 b4             	mov    -0x4c(%ebp),%eax
 804b5eb:	89 44 24 04          	mov    %eax,0x4(%esp)
 804b5ef:	0f 85 d3 fe ff ff    	jne    804b4c8 <_dtoa_r+0xde8>
 804b5f5:	e8 46 1f 00 00       	call   804d540 <__multadd>
 804b5fa:	89 45 b4             	mov    %eax,-0x4c(%ebp)
 804b5fd:	89 45 ac             	mov    %eax,-0x54(%ebp)
 804b600:	e9 ed fe ff ff       	jmp    804b4f2 <_dtoa_r+0xe12>
 804b605:	8d 76 00             	lea    0x0(%esi),%esi
 804b608:	b8 01 00 00 00       	mov    $0x1,%eax
 804b60d:	e9 43 ff ff ff       	jmp    804b555 <_dtoa_r+0xe75>
 804b612:	c7 45 98 00 00 00 00 	movl   $0x0,-0x68(%ebp)
 804b619:	e9 d2 f2 ff ff       	jmp    804a8f0 <_dtoa_r+0x210>
 804b61e:	0f 85 87 f6 ff ff    	jne    804acab <_dtoa_r+0x5cb>
 804b624:	dd d8                	fstp   %st(0)
 804b626:	dd d8                	fstp   %st(0)
 804b628:	dd d8                	fstp   %st(0)
 804b62a:	89 fb                	mov    %edi,%ebx
 804b62c:	8b 7d c0             	mov    -0x40(%ebp),%edi
 804b62f:	e9 fc f8 ff ff       	jmp    804af30 <_dtoa_r+0x850>
 804b634:	89 c2                	mov    %eax,%edx
 804b636:	2b 55 b0             	sub    -0x50(%ebp),%edx
 804b639:	89 45 b0             	mov    %eax,-0x50(%ebp)
 804b63c:	01 55 94             	add    %edx,-0x6c(%ebp)
 804b63f:	31 d2                	xor    %edx,%edx
 804b641:	e9 b8 f9 ff ff       	jmp    804affe <_dtoa_r+0x91e>
 804b646:	8b 45 a8             	mov    -0x58(%ebp),%eax
 804b649:	85 c0                	test   %eax,%eax
 804b64b:	0f 84 f3 f9 ff ff    	je     804b044 <_dtoa_r+0x964>
 804b651:	8b 45 90             	mov    -0x70(%ebp),%eax
 804b654:	85 c0                	test   %eax,%eax
 804b656:	0f 8e c4 fb ff ff    	jle    804b220 <_dtoa_r+0xb40>
 804b65c:	d8 0d 54 07 05 08    	fmuls  0x8050754
 804b662:	83 c1 01             	add    $0x1,%ecx
 804b665:	89 4d d4             	mov    %ecx,-0x2c(%ebp)
 804b668:	8b 5d b8             	mov    -0x48(%ebp),%ebx
 804b66b:	89 c1                	mov    %eax,%ecx
 804b66d:	83 eb 01             	sub    $0x1,%ebx
 804b670:	db 45 d4             	fildl  -0x2c(%ebp)
 804b673:	d8 c9                	fmul   %st(1),%st
 804b675:	89 5d b4             	mov    %ebx,-0x4c(%ebp)
 804b678:	d8 05 58 07 05 08    	fadds  0x8050758
 804b67e:	dd 5d c0             	fstpl  -0x40(%ebp)
 804b681:	81 6d c4 00 00 40 03 	subl   $0x3400000,-0x3c(%ebp)
 804b688:	e9 53 f4 ff ff       	jmp    804aae0 <_dtoa_r+0x400>
 804b68d:	8b 45 b4             	mov    -0x4c(%ebp),%eax
 804b690:	c6 03 30             	movb   $0x30,(%ebx)
 804b693:	83 c0 01             	add    $0x1,%eax
 804b696:	89 45 b8             	mov    %eax,-0x48(%ebp)
 804b699:	b8 31 00 00 00       	mov    $0x31,%eax
 804b69e:	88 02                	mov    %al,(%edx)
 804b6a0:	e9 8b f8 ff ff       	jmp    804af30 <_dtoa_r+0x850>
 804b6a5:	d9 c0                	fld    %st(0)
 804b6a7:	b9 02 00 00 00       	mov    $0x2,%ecx
 804b6ac:	e9 f2 f3 ff ff       	jmp    804aaa3 <_dtoa_r+0x3c3>
 804b6b1:	de e2                	fsubp  %st,%st(2)
 804b6b3:	d9 c9                	fxch   %st(1)
 804b6b5:	df e9                	fucomip %st(1),%st
 804b6b7:	dd d8                	fstp   %st(0)
 804b6b9:	0f 86 69 fb ff ff    	jbe    804b228 <_dtoa_r+0xb48>
 804b6bf:	dd d8                	fstp   %st(0)
 804b6c1:	eb 07                	jmp    804b6ca <_dtoa_r+0xfea>
 804b6c3:	90                   	nop
 804b6c4:	8d 74 26 00          	lea    0x0(%esi,%eiz,1),%esi
 804b6c8:	89 c2                	mov    %eax,%edx
 804b6ca:	80 7a ff 30          	cmpb   $0x30,-0x1(%edx)
 804b6ce:	8d 42 ff             	lea    -0x1(%edx),%eax
 804b6d1:	74 f5                	je     804b6c8 <_dtoa_r+0xfe8>
 804b6d3:	e9 d9 f4 ff ff       	jmp    804abb1 <_dtoa_r+0x4d1>
 804b6d8:	c6 07 31             	movb   $0x31,(%edi)
 804b6db:	89 fb                	mov    %edi,%ebx
 804b6dd:	89 d7                	mov    %edx,%edi
 804b6df:	83 45 b8 01          	addl   $0x1,-0x48(%ebp)
 804b6e3:	e9 1a f8 ff ff       	jmp    804af02 <_dtoa_r+0x822>
 804b6e8:	8b 55 8c             	mov    -0x74(%ebp),%edx
 804b6eb:	85 d2                	test   %edx,%edx
 804b6ed:	0f 84 1b 01 00 00    	je     804b80e <_dtoa_r+0x112e>
 804b6f3:	05 33 04 00 00       	add    $0x433,%eax
 804b6f8:	8b 55 b0             	mov    -0x50(%ebp),%edx
 804b6fb:	8b 5d a0             	mov    -0x60(%ebp),%ebx
 804b6fe:	e9 0b f9 ff ff       	jmp    804b00e <_dtoa_r+0x92e>
 804b703:	85 c0                	test   %eax,%eax
 804b705:	89 7d a4             	mov    %edi,-0x5c(%ebp)
 804b708:	8b 7d 8c             	mov    -0x74(%ebp),%edi
 804b70b:	7e 45                	jle    804b752 <_dtoa_r+0x1072>
 804b70d:	8b 45 a4             	mov    -0x5c(%ebp),%eax
 804b710:	c7 44 24 08 01 00 00 	movl   $0x1,0x8(%esp)
 804b717:	00 
 804b718:	89 34 24             	mov    %esi,(%esp)
 804b71b:	89 44 24 04          	mov    %eax,0x4(%esp)
 804b71f:	e8 fc 23 00 00       	call   804db20 <__lshift>
 804b724:	8b 5d b0             	mov    -0x50(%ebp),%ebx
 804b727:	89 5c 24 04          	mov    %ebx,0x4(%esp)
 804b72b:	89 04 24             	mov    %eax,(%esp)
 804b72e:	89 45 a4             	mov    %eax,-0x5c(%ebp)
 804b731:	e8 0a 25 00 00       	call   804dc40 <__mcmp>
 804b736:	83 f8 00             	cmp    $0x0,%eax
 804b739:	0f 8e 5b 01 00 00    	jle    804b89a <_dtoa_r+0x11ba>
 804b73f:	83 7d a0 39          	cmpl   $0x39,-0x60(%ebp)
 804b743:	0f 84 0c 01 00 00    	je     804b855 <_dtoa_r+0x1175>
 804b749:	8b 45 94             	mov    -0x6c(%ebp),%eax
 804b74c:	83 c0 31             	add    $0x31,%eax
 804b74f:	89 45 a0             	mov    %eax,-0x60(%ebp)
 804b752:	8b 4d 98             	mov    -0x68(%ebp),%ecx
 804b755:	0f b6 45 a0          	movzbl -0x60(%ebp),%eax
 804b759:	89 cb                	mov    %ecx,%ebx
 804b75b:	88 03                	mov    %al,(%ebx)
 804b75d:	8b 45 b4             	mov    -0x4c(%ebp),%eax
 804b760:	89 fb                	mov    %edi,%ebx
 804b762:	8d 79 01             	lea    0x1(%ecx),%edi
 804b765:	89 45 c0             	mov    %eax,-0x40(%ebp)
 804b768:	8b 45 ac             	mov    -0x54(%ebp),%eax
 804b76b:	89 45 b4             	mov    %eax,-0x4c(%ebp)
 804b76e:	e9 8f f7 ff ff       	jmp    804af02 <_dtoa_r+0x822>
 804b773:	dd d8                	fstp   %st(0)
 804b775:	dd d8                	fstp   %st(0)
 804b777:	dd d8                	fstp   %st(0)
 804b779:	eb 0d                	jmp    804b788 <_dtoa_r+0x10a8>
 804b77b:	90                   	nop
 804b77c:	8d 74 26 00          	lea    0x0(%esi,%eiz,1),%esi
 804b780:	dd d8                	fstp   %st(0)
 804b782:	dd d8                	fstp   %st(0)
 804b784:	dd d8                	fstp   %st(0)
 804b786:	dd d8                	fstp   %st(0)
 804b788:	89 fb                	mov    %edi,%ebx
 804b78a:	89 d7                	mov    %edx,%edi
 804b78c:	e9 8d f5 ff ff       	jmp    804ad1e <_dtoa_r+0x63e>
 804b791:	29 cb                	sub    %ecx,%ebx
 804b793:	31 c0                	xor    %eax,%eax
 804b795:	e9 74 f8 ff ff       	jmp    804b00e <_dtoa_r+0x92e>
 804b79a:	75 0e                	jne    804b7aa <_dtoa_r+0x10ca>
 804b79c:	f6 45 a0 01          	testb  $0x1,-0x60(%ebp)
 804b7a0:	74 08                	je     804b7aa <_dtoa_r+0x10ca>
 804b7a2:	e9 b2 f9 ff ff       	jmp    804b159 <_dtoa_r+0xa79>
 804b7a7:	90                   	nop
 804b7a8:	89 c2                	mov    %eax,%edx
 804b7aa:	80 7a ff 30          	cmpb   $0x30,-0x1(%edx)
 804b7ae:	8d 42 ff             	lea    -0x1(%edx),%eax
 804b7b1:	74 f5                	je     804b7a8 <_dtoa_r+0x10c8>
 804b7b3:	89 fb                	mov    %edi,%ebx
 804b7b5:	89 d7                	mov    %edx,%edi
 804b7b7:	e9 46 f7 ff ff       	jmp    804af02 <_dtoa_r+0x822>
 804b7bc:	8b 40 04             	mov    0x4(%eax),%eax
 804b7bf:	89 34 24             	mov    %esi,(%esp)
 804b7c2:	89 44 24 04          	mov    %eax,0x4(%esp)
 804b7c6:	e8 b5 1c 00 00       	call   804d480 <_Balloc>
 804b7cb:	8b 4d b4             	mov    -0x4c(%ebp),%ecx
 804b7ce:	89 c3                	mov    %eax,%ebx
 804b7d0:	8b 41 10             	mov    0x10(%ecx),%eax
 804b7d3:	8d 04 85 08 00 00 00 	lea    0x8(,%eax,4),%eax
 804b7da:	89 44 24 08          	mov    %eax,0x8(%esp)
 804b7de:	89 c8                	mov    %ecx,%eax
 804b7e0:	83 c0 0c             	add    $0xc,%eax
 804b7e3:	89 44 24 04          	mov    %eax,0x4(%esp)
 804b7e7:	8d 43 0c             	lea    0xc(%ebx),%eax
 804b7ea:	89 04 24             	mov    %eax,(%esp)
 804b7ed:	e8 06 1b 00 00       	call   804d2f8 <memcpy>
 804b7f2:	c7 44 24 08 01 00 00 	movl   $0x1,0x8(%esp)
 804b7f9:	00 
 804b7fa:	89 5c 24 04          	mov    %ebx,0x4(%esp)
 804b7fe:	89 34 24             	mov    %esi,(%esp)
 804b801:	e8 1a 23 00 00       	call   804db20 <__lshift>
 804b806:	89 45 ac             	mov    %eax,-0x54(%ebp)
 804b809:	e9 9d fc ff ff       	jmp    804b4ab <_dtoa_r+0xdcb>
 804b80e:	b8 36 00 00 00       	mov    $0x36,%eax
 804b813:	8b 55 b0             	mov    -0x50(%ebp),%edx
 804b816:	2b 45 e0             	sub    -0x20(%ebp),%eax
 804b819:	8b 5d a0             	mov    -0x60(%ebp),%ebx
 804b81c:	e9 ed f7 ff ff       	jmp    804b00e <_dtoa_r+0x92e>
 804b821:	83 7d a0 39          	cmpl   $0x39,-0x60(%ebp)
 804b825:	89 7d a4             	mov    %edi,-0x5c(%ebp)
 804b828:	8b 7d 8c             	mov    -0x74(%ebp),%edi
 804b82b:	74 28                	je     804b855 <_dtoa_r+0x1175>
 804b82d:	0f b6 45 a0          	movzbl -0x60(%ebp),%eax
 804b831:	8b 4d 98             	mov    -0x68(%ebp),%ecx
 804b834:	83 c0 01             	add    $0x1,%eax
 804b837:	89 cb                	mov    %ecx,%ebx
 804b839:	e9 1d ff ff ff       	jmp    804b75b <_dtoa_r+0x107b>
 804b83e:	8b 45 b4             	mov    -0x4c(%ebp),%eax
 804b841:	89 7d a4             	mov    %edi,-0x5c(%ebp)
 804b844:	8b 7d 8c             	mov    -0x74(%ebp),%edi
 804b847:	89 45 c0             	mov    %eax,-0x40(%ebp)
 804b84a:	8b 45 ac             	mov    -0x54(%ebp),%eax
 804b84d:	89 45 b4             	mov    %eax,-0x4c(%ebp)
 804b850:	e9 cc f8 ff ff       	jmp    804b121 <_dtoa_r+0xa41>
 804b855:	8b 45 98             	mov    -0x68(%ebp),%eax
 804b858:	b9 39 00 00 00       	mov    $0x39,%ecx
 804b85d:	8d 50 01             	lea    0x1(%eax),%edx
 804b860:	c6 00 39             	movb   $0x39,(%eax)
 804b863:	8b 45 b4             	mov    -0x4c(%ebp),%eax
 804b866:	89 45 c0             	mov    %eax,-0x40(%ebp)
 804b869:	8b 45 ac             	mov    -0x54(%ebp),%eax
 804b86c:	89 45 b4             	mov    %eax,-0x4c(%ebp)
 804b86f:	e9 fa f8 ff ff       	jmp    804b16e <_dtoa_r+0xa8e>
 804b874:	8b 5d a0             	mov    -0x60(%ebp),%ebx
 804b877:	89 7d a4             	mov    %edi,-0x5c(%ebp)
 804b87a:	8b 7d 8c             	mov    -0x74(%ebp),%edi
 804b87d:	83 fb 39             	cmp    $0x39,%ebx
 804b880:	74 d3                	je     804b855 <_dtoa_r+0x1175>
 804b882:	8b 4d c0             	mov    -0x40(%ebp),%ecx
 804b885:	8b 45 94             	mov    -0x6c(%ebp),%eax
 804b888:	83 c0 31             	add    $0x31,%eax
 804b88b:	85 c9                	test   %ecx,%ecx
 804b88d:	8b 4d 98             	mov    -0x68(%ebp),%ecx
 804b890:	0f 4e c3             	cmovle %ebx,%eax
 804b893:	89 cb                	mov    %ecx,%ebx
 804b895:	e9 c1 fe ff ff       	jmp    804b75b <_dtoa_r+0x107b>
 804b89a:	0f 85 b2 fe ff ff    	jne    804b752 <_dtoa_r+0x1072>
 804b8a0:	f6 45 a0 01          	testb  $0x1,-0x60(%ebp)
 804b8a4:	0f 84 a8 fe ff ff    	je     804b752 <_dtoa_r+0x1072>
 804b8aa:	8d b6 00 00 00 00    	lea    0x0(%esi),%esi
 804b8b0:	e9 8a fe ff ff       	jmp    804b73f <_dtoa_r+0x105f>
 804b8b5:	0f 85 c7 f3 ff ff    	jne    804ac82 <_dtoa_r+0x5a2>
 804b8bb:	dd d8                	fstp   %st(0)
 804b8bd:	dd d8                	fstp   %st(0)
 804b8bf:	90                   	nop
 804b8c0:	e9 65 fd ff ff       	jmp    804b62a <_dtoa_r+0xf4a>
 804b8c5:	89 45 a8             	mov    %eax,-0x58(%ebp)
 804b8c8:	e9 dd f5 ff ff       	jmp    804aeaa <_dtoa_r+0x7ca>
 804b8cd:	8d 76 00             	lea    0x0(%esi),%esi
 804b8d0:	0f 84 7a f5 ff ff    	je     804ae50 <_dtoa_r+0x770>
 804b8d6:	b8 3c 00 00 00       	mov    $0x3c,%eax
 804b8db:	29 d0                	sub    %edx,%eax
 804b8dd:	e9 ab f8 ff ff       	jmp    804b18d <_dtoa_r+0xaad>
 804b8e2:	b8 01 00 00 00       	mov    $0x1,%eax
 804b8e7:	e9 d9 ef ff ff       	jmp    804a8c5 <_dtoa_r+0x1e5>
 804b8ec:	31 d2                	xor    %edx,%edx
 804b8ee:	e9 36 f1 ff ff       	jmp    804aa29 <_dtoa_r+0x349>
 804b8f3:	66 90                	xchg   %ax,%ax
 804b8f5:	66 90                	xchg   %ax,%ax
 804b8f7:	66 90                	xchg   %ax,%ax
 804b8f9:	66 90                	xchg   %ax,%ax
 804b8fb:	66 90                	xchg   %ax,%ax
 804b8fd:	66 90                	xchg   %ax,%ax
 804b8ff:	90                   	nop

0804b900 <__sflush_r>:
 804b900:	55                   	push   %ebp
 804b901:	89 e5                	mov    %esp,%ebp
 804b903:	57                   	push   %edi
 804b904:	56                   	push   %esi
 804b905:	53                   	push   %ebx
 804b906:	83 ec 1c             	sub    $0x1c,%esp
 804b909:	8b 7d 0c             	mov    0xc(%ebp),%edi
 804b90c:	0f b7 47 0c          	movzwl 0xc(%edi),%eax
 804b910:	a8 08                	test   $0x8,%al
 804b912:	0f 85 c8 00 00 00    	jne    804b9e0 <__sflush_r+0xe0>
 804b918:	8b 77 04             	mov    0x4(%edi),%esi
 804b91b:	89 c1                	mov    %eax,%ecx
 804b91d:	80 cd 08             	or     $0x8,%ch
 804b920:	66 89 4f 0c          	mov    %cx,0xc(%edi)
 804b924:	85 f6                	test   %esi,%esi
 804b926:	0f 8e 0c 01 00 00    	jle    804ba38 <__sflush_r+0x138>
 804b92c:	8b 57 28             	mov    0x28(%edi),%edx
 804b92f:	85 d2                	test   %edx,%edx
 804b931:	0f 84 98 00 00 00    	je     804b9cf <__sflush_r+0xcf>
 804b937:	8b 75 08             	mov    0x8(%ebp),%esi
 804b93a:	f6 c4 10             	test   $0x10,%ah
 804b93d:	8b 1e                	mov    (%esi),%ebx
 804b93f:	c7 06 00 00 00 00    	movl   $0x0,(%esi)
 804b945:	0f 84 fd 00 00 00    	je     804ba48 <__sflush_r+0x148>
 804b94b:	8b 47 50             	mov    0x50(%edi),%eax
 804b94e:	83 e1 04             	and    $0x4,%ecx
 804b951:	74 0d                	je     804b960 <__sflush_r+0x60>
 804b953:	8b 4f 30             	mov    0x30(%edi),%ecx
 804b956:	2b 47 04             	sub    0x4(%edi),%eax
 804b959:	85 c9                	test   %ecx,%ecx
 804b95b:	74 03                	je     804b960 <__sflush_r+0x60>
 804b95d:	2b 47 3c             	sub    0x3c(%edi),%eax
 804b960:	c7 44 24 0c 00 00 00 	movl   $0x0,0xc(%esp)
 804b967:	00 
 804b968:	89 44 24 08          	mov    %eax,0x8(%esp)
 804b96c:	8b 47 1c             	mov    0x1c(%edi),%eax
 804b96f:	89 44 24 04          	mov    %eax,0x4(%esp)
 804b973:	8b 45 08             	mov    0x8(%ebp),%eax
 804b976:	89 04 24             	mov    %eax,(%esp)
 804b979:	ff d2                	call   *%edx
 804b97b:	83 f8 ff             	cmp    $0xffffffff,%eax
 804b97e:	0f 84 f4 00 00 00    	je     804ba78 <__sflush_r+0x178>
 804b984:	0f b7 57 0c          	movzwl 0xc(%edi),%edx
 804b988:	c7 47 04 00 00 00 00 	movl   $0x0,0x4(%edi)
 804b98f:	89 d1                	mov    %edx,%ecx
 804b991:	80 e5 f7             	and    $0xf7,%ch
 804b994:	80 e6 10             	and    $0x10,%dh
 804b997:	66 89 4f 0c          	mov    %cx,0xc(%edi)
 804b99b:	8b 4f 10             	mov    0x10(%edi),%ecx
 804b99e:	89 0f                	mov    %ecx,(%edi)
 804b9a0:	0f 85 25 01 00 00    	jne    804bacb <__sflush_r+0x1cb>
 804b9a6:	8b 45 08             	mov    0x8(%ebp),%eax
 804b9a9:	89 18                	mov    %ebx,(%eax)
 804b9ab:	8b 47 30             	mov    0x30(%edi),%eax
 804b9ae:	85 c0                	test   %eax,%eax
 804b9b0:	74 1d                	je     804b9cf <__sflush_r+0xcf>
 804b9b2:	8d 57 40             	lea    0x40(%edi),%edx
 804b9b5:	39 d0                	cmp    %edx,%eax
 804b9b7:	74 0f                	je     804b9c8 <__sflush_r+0xc8>
 804b9b9:	89 44 24 04          	mov    %eax,0x4(%esp)
 804b9bd:	8b 45 08             	mov    0x8(%ebp),%eax
 804b9c0:	89 04 24             	mov    %eax,(%esp)
 804b9c3:	e8 d8 06 00 00       	call   804c0a0 <_free_r>
 804b9c8:	c7 47 30 00 00 00 00 	movl   $0x0,0x30(%edi)
 804b9cf:	31 c0                	xor    %eax,%eax
 804b9d1:	83 c4 1c             	add    $0x1c,%esp
 804b9d4:	5b                   	pop    %ebx
 804b9d5:	5e                   	pop    %esi
 804b9d6:	5f                   	pop    %edi
 804b9d7:	5d                   	pop    %ebp
 804b9d8:	c3                   	ret    
 804b9d9:	8d b4 26 00 00 00 00 	lea    0x0(%esi,%eiz,1),%esi
 804b9e0:	8b 77 10             	mov    0x10(%edi),%esi
 804b9e3:	85 f6                	test   %esi,%esi
 804b9e5:	74 e8                	je     804b9cf <__sflush_r+0xcf>
 804b9e7:	8b 1f                	mov    (%edi),%ebx
 804b9e9:	31 c9                	xor    %ecx,%ecx
 804b9eb:	89 37                	mov    %esi,(%edi)
 804b9ed:	29 f3                	sub    %esi,%ebx
 804b9ef:	a8 03                	test   $0x3,%al
 804b9f1:	75 03                	jne    804b9f6 <__sflush_r+0xf6>
 804b9f3:	8b 4f 14             	mov    0x14(%edi),%ecx
 804b9f6:	85 db                	test   %ebx,%ebx
 804b9f8:	89 4f 08             	mov    %ecx,0x8(%edi)
 804b9fb:	7f 0b                	jg     804ba08 <__sflush_r+0x108>
 804b9fd:	eb d0                	jmp    804b9cf <__sflush_r+0xcf>
 804b9ff:	90                   	nop
 804ba00:	29 c3                	sub    %eax,%ebx
 804ba02:	01 c6                	add    %eax,%esi
 804ba04:	85 db                	test   %ebx,%ebx
 804ba06:	7e c7                	jle    804b9cf <__sflush_r+0xcf>
 804ba08:	89 5c 24 0c          	mov    %ebx,0xc(%esp)
 804ba0c:	89 74 24 08          	mov    %esi,0x8(%esp)
 804ba10:	8b 47 1c             	mov    0x1c(%edi),%eax
 804ba13:	89 44 24 04          	mov    %eax,0x4(%esp)
 804ba17:	8b 45 08             	mov    0x8(%ebp),%eax
 804ba1a:	89 04 24             	mov    %eax,(%esp)
 804ba1d:	ff 57 24             	call   *0x24(%edi)
 804ba20:	85 c0                	test   %eax,%eax
 804ba22:	7f dc                	jg     804ba00 <__sflush_r+0x100>
 804ba24:	66 83 4f 0c 40       	orw    $0x40,0xc(%edi)
 804ba29:	83 c4 1c             	add    $0x1c,%esp
 804ba2c:	5b                   	pop    %ebx
 804ba2d:	b8 ff ff ff ff       	mov    $0xffffffff,%eax
 804ba32:	5e                   	pop    %esi
 804ba33:	5f                   	pop    %edi
 804ba34:	5d                   	pop    %ebp
 804ba35:	c3                   	ret    
 804ba36:	66 90                	xchg   %ax,%ax
 804ba38:	8b 5f 3c             	mov    0x3c(%edi),%ebx
 804ba3b:	85 db                	test   %ebx,%ebx
 804ba3d:	0f 8f e9 fe ff ff    	jg     804b92c <__sflush_r+0x2c>
 804ba43:	eb 8a                	jmp    804b9cf <__sflush_r+0xcf>
 804ba45:	8d 76 00             	lea    0x0(%esi),%esi
 804ba48:	c7 44 24 0c 01 00 00 	movl   $0x1,0xc(%esp)
 804ba4f:	00 
 804ba50:	c7 44 24 08 00 00 00 	movl   $0x0,0x8(%esp)
 804ba57:	00 
 804ba58:	8b 47 1c             	mov    0x1c(%edi),%eax
 804ba5b:	89 44 24 04          	mov    %eax,0x4(%esp)
 804ba5f:	8b 45 08             	mov    0x8(%ebp),%eax
 804ba62:	89 04 24             	mov    %eax,(%esp)
 804ba65:	ff d2                	call   *%edx
 804ba67:	83 f8 ff             	cmp    $0xffffffff,%eax
 804ba6a:	74 3c                	je     804baa8 <__sflush_r+0x1a8>
 804ba6c:	0f b7 4f 0c          	movzwl 0xc(%edi),%ecx
 804ba70:	8b 57 28             	mov    0x28(%edi),%edx
 804ba73:	e9 d6 fe ff ff       	jmp    804b94e <__sflush_r+0x4e>
 804ba78:	8b 55 08             	mov    0x8(%ebp),%edx
 804ba7b:	8b 12                	mov    (%edx),%edx
 804ba7d:	85 d2                	test   %edx,%edx
 804ba7f:	0f 84 ff fe ff ff    	je     804b984 <__sflush_r+0x84>
 804ba85:	83 fa 1d             	cmp    $0x1d,%edx
 804ba88:	74 05                	je     804ba8f <__sflush_r+0x18f>
 804ba8a:	83 fa 16             	cmp    $0x16,%edx
 804ba8d:	75 95                	jne    804ba24 <__sflush_r+0x124>
 804ba8f:	8b 47 10             	mov    0x10(%edi),%eax
 804ba92:	66 81 67 0c ff f7    	andw   $0xf7ff,0xc(%edi)
 804ba98:	c7 47 04 00 00 00 00 	movl   $0x0,0x4(%edi)
 804ba9f:	89 07                	mov    %eax,(%edi)
 804baa1:	e9 00 ff ff ff       	jmp    804b9a6 <__sflush_r+0xa6>
 804baa6:	66 90                	xchg   %ax,%ax
 804baa8:	8b 55 08             	mov    0x8(%ebp),%edx
 804baab:	8b 12                	mov    (%edx),%edx
 804baad:	85 d2                	test   %edx,%edx
 804baaf:	74 bb                	je     804ba6c <__sflush_r+0x16c>
 804bab1:	83 fa 16             	cmp    $0x16,%edx
 804bab4:	74 09                	je     804babf <__sflush_r+0x1bf>
 804bab6:	83 fa 1d             	cmp    $0x1d,%edx
 804bab9:	0f 85 65 ff ff ff    	jne    804ba24 <__sflush_r+0x124>
 804babf:	8b 45 08             	mov    0x8(%ebp),%eax
 804bac2:	89 18                	mov    %ebx,(%eax)
 804bac4:	31 c0                	xor    %eax,%eax
 804bac6:	e9 06 ff ff ff       	jmp    804b9d1 <__sflush_r+0xd1>
 804bacb:	89 47 50             	mov    %eax,0x50(%edi)
 804bace:	e9 d3 fe ff ff       	jmp    804b9a6 <__sflush_r+0xa6>
 804bad3:	8d b6 00 00 00 00    	lea    0x0(%esi),%esi
 804bad9:	8d bc 27 00 00 00 00 	lea    0x0(%edi,%eiz,1),%edi

0804bae0 <_fflush_r>:
 804bae0:	55                   	push   %ebp
 804bae1:	89 e5                	mov    %esp,%ebp
 804bae3:	56                   	push   %esi
 804bae4:	53                   	push   %ebx
 804bae5:	83 ec 10             	sub    $0x10,%esp
 804bae8:	8b 5d 08             	mov    0x8(%ebp),%ebx
 804baeb:	8b 75 0c             	mov    0xc(%ebp),%esi
 804baee:	85 db                	test   %ebx,%ebx
 804baf0:	74 07                	je     804baf9 <_fflush_r+0x19>
 804baf2:	8b 43 38             	mov    0x38(%ebx),%eax
 804baf5:	85 c0                	test   %eax,%eax
 804baf7:	74 2f                	je     804bb28 <_fflush_r+0x48>
 804baf9:	66 83 7e 0c 00       	cmpw   $0x0,0xc(%esi)
 804bafe:	75 10                	jne    804bb10 <_fflush_r+0x30>
 804bb00:	83 c4 10             	add    $0x10,%esp
 804bb03:	31 c0                	xor    %eax,%eax
 804bb05:	5b                   	pop    %ebx
 804bb06:	5e                   	pop    %esi
 804bb07:	5d                   	pop    %ebp
 804bb08:	c3                   	ret    
 804bb09:	8d b4 26 00 00 00 00 	lea    0x0(%esi,%eiz,1),%esi
 804bb10:	89 75 0c             	mov    %esi,0xc(%ebp)
 804bb13:	89 5d 08             	mov    %ebx,0x8(%ebp)
 804bb16:	83 c4 10             	add    $0x10,%esp
 804bb19:	5b                   	pop    %ebx
 804bb1a:	5e                   	pop    %esi
 804bb1b:	5d                   	pop    %ebp
 804bb1c:	e9 df fd ff ff       	jmp    804b900 <__sflush_r>
 804bb21:	8d b4 26 00 00 00 00 	lea    0x0(%esi,%eiz,1),%esi
 804bb28:	89 1c 24             	mov    %ebx,(%esp)
 804bb2b:	e8 20 01 00 00       	call   804bc50 <__sinit>
 804bb30:	eb c7                	jmp    804baf9 <_fflush_r+0x19>
 804bb32:	8d b4 26 00 00 00 00 	lea    0x0(%esi,%eiz,1),%esi
 804bb39:	8d bc 27 00 00 00 00 	lea    0x0(%edi,%eiz,1),%edi

0804bb40 <fflush>:
 804bb40:	55                   	push   %ebp
 804bb41:	89 e5                	mov    %esp,%ebp
 804bb43:	53                   	push   %ebx
 804bb44:	83 ec 14             	sub    $0x14,%esp
 804bb47:	8b 5d 08             	mov    0x8(%ebp),%ebx
 804bb4a:	85 db                	test   %ebx,%ebx
 804bb4c:	74 1a                	je     804bb68 <fflush+0x28>
 804bb4e:	e8 6d 0d 00 00       	call   804c8c0 <__getreent>
 804bb53:	89 5c 24 04          	mov    %ebx,0x4(%esp)
 804bb57:	89 04 24             	mov    %eax,(%esp)
 804bb5a:	e8 81 ff ff ff       	call   804bae0 <_fflush_r>
 804bb5f:	83 c4 14             	add    $0x14,%esp
 804bb62:	5b                   	pop    %ebx
 804bb63:	5d                   	pop    %ebp
 804bb64:	c3                   	ret    
 804bb65:	8d 76 00             	lea    0x0(%esi),%esi
 804bb68:	a1 80 07 05 08       	mov    0x8050780,%eax
 804bb6d:	c7 44 24 04 e0 ba 04 	movl   $0x804bae0,0x4(%esp)
 804bb74:	08 
 804bb75:	89 04 24             	mov    %eax,(%esp)
 804bb78:	e8 c3 0c 00 00       	call   804c840 <_fwalk_reent>
 804bb7d:	83 c4 14             	add    $0x14,%esp
 804bb80:	5b                   	pop    %ebx
 804bb81:	5d                   	pop    %ebp
 804bb82:	c3                   	ret    
 804bb83:	66 90                	xchg   %ax,%ax
 804bb85:	66 90                	xchg   %ax,%ax
 804bb87:	66 90                	xchg   %ax,%ax
 804bb89:	66 90                	xchg   %ax,%ax
 804bb8b:	66 90                	xchg   %ax,%ax
 804bb8d:	66 90                	xchg   %ax,%ax
 804bb8f:	90                   	nop

0804bb90 <__fp_lock>:
 804bb90:	55                   	push   %ebp
 804bb91:	31 c0                	xor    %eax,%eax
 804bb93:	89 e5                	mov    %esp,%ebp
 804bb95:	5d                   	pop    %ebp
 804bb96:	c3                   	ret    
 804bb97:	89 f6                	mov    %esi,%esi
 804bb99:	8d bc 27 00 00 00 00 	lea    0x0(%edi,%eiz,1),%edi

0804bba0 <__fp_unlock>:
 804bba0:	55                   	push   %ebp
 804bba1:	31 c0                	xor    %eax,%eax
 804bba3:	89 e5                	mov    %esp,%ebp
 804bba5:	5d                   	pop    %ebp
 804bba6:	c3                   	ret    
 804bba7:	89 f6                	mov    %esi,%esi
 804bba9:	8d bc 27 00 00 00 00 	lea    0x0(%edi,%eiz,1),%edi

0804bbb0 <_cleanup_r>:
 804bbb0:	55                   	push   %ebp
 804bbb1:	89 e5                	mov    %esp,%ebp
 804bbb3:	83 ec 18             	sub    $0x18,%esp
 804bbb6:	8b 45 08             	mov    0x8(%ebp),%eax
 804bbb9:	c7 44 24 04 60 fe 04 	movl   $0x804fe60,0x4(%esp)
 804bbc0:	08 
 804bbc1:	89 04 24             	mov    %eax,(%esp)
 804bbc4:	e8 07 0c 00 00       	call   804c7d0 <_fwalk>
 804bbc9:	c9                   	leave  
 804bbca:	c3                   	ret    
 804bbcb:	90                   	nop
 804bbcc:	8d 74 26 00          	lea    0x0(%esi,%eiz,1),%esi

0804bbd0 <__sfmoreglue>:
 804bbd0:	55                   	push   %ebp
 804bbd1:	89 e5                	mov    %esp,%ebp
 804bbd3:	57                   	push   %edi
 804bbd4:	56                   	push   %esi
 804bbd5:	53                   	push   %ebx
 804bbd6:	83 ec 1c             	sub    $0x1c,%esp
 804bbd9:	8b 75 0c             	mov    0xc(%ebp),%esi
 804bbdc:	8d 7e ff             	lea    -0x1(%esi),%edi
 804bbdf:	6b ff 68             	imul   $0x68,%edi,%edi
 804bbe2:	8d 47 74             	lea    0x74(%edi),%eax
 804bbe5:	89 44 24 04          	mov    %eax,0x4(%esp)
 804bbe9:	8b 45 08             	mov    0x8(%ebp),%eax
 804bbec:	89 04 24             	mov    %eax,(%esp)
 804bbef:	e8 2c 0f 00 00       	call   804cb20 <_malloc_r>
 804bbf4:	85 c0                	test   %eax,%eax
 804bbf6:	89 c3                	mov    %eax,%ebx
 804bbf8:	74 26                	je     804bc20 <__sfmoreglue+0x50>
 804bbfa:	c7 00 00 00 00 00    	movl   $0x0,(%eax)
 804bc00:	83 c7 68             	add    $0x68,%edi
 804bc03:	89 70 04             	mov    %esi,0x4(%eax)
 804bc06:	8d 40 0c             	lea    0xc(%eax),%eax
 804bc09:	89 43 08             	mov    %eax,0x8(%ebx)
 804bc0c:	89 7c 24 08          	mov    %edi,0x8(%esp)
 804bc10:	c7 44 24 04 00 00 00 	movl   $0x0,0x4(%esp)
 804bc17:	00 
 804bc18:	89 04 24             	mov    %eax,(%esp)
 804bc1b:	e8 ad 17 00 00       	call   804d3cd <memset>
 804bc20:	83 c4 1c             	add    $0x1c,%esp
 804bc23:	89 d8                	mov    %ebx,%eax
 804bc25:	5b                   	pop    %ebx
 804bc26:	5e                   	pop    %esi
 804bc27:	5f                   	pop    %edi
 804bc28:	5d                   	pop    %ebp
 804bc29:	c3                   	ret    
 804bc2a:	8d b6 00 00 00 00    	lea    0x0(%esi),%esi

0804bc30 <_cleanup>:
 804bc30:	55                   	push   %ebp
 804bc31:	89 e5                	mov    %esp,%ebp
 804bc33:	83 ec 18             	sub    $0x18,%esp
 804bc36:	a1 80 07 05 08       	mov    0x8050780,%eax
 804bc3b:	c7 44 24 04 60 fe 04 	movl   $0x804fe60,0x4(%esp)
 804bc42:	08 
 804bc43:	89 04 24             	mov    %eax,(%esp)
 804bc46:	e8 85 0b 00 00       	call   804c7d0 <_fwalk>
 804bc4b:	c9                   	leave  
 804bc4c:	c3                   	ret    
 804bc4d:	8d 76 00             	lea    0x0(%esi),%esi

0804bc50 <__sinit>:
 804bc50:	55                   	push   %ebp
 804bc51:	89 e5                	mov    %esp,%ebp
 804bc53:	56                   	push   %esi
 804bc54:	53                   	push   %ebx
 804bc55:	83 ec 10             	sub    $0x10,%esp
 804bc58:	8b 75 08             	mov    0x8(%ebp),%esi
 804bc5b:	8b 46 38             	mov    0x38(%esi),%eax
 804bc5e:	85 c0                	test   %eax,%eax
 804bc60:	0f 85 a8 01 00 00    	jne    804be0e <__sinit+0x1be>
 804bc66:	8b 5e 04             	mov    0x4(%esi),%ebx
 804bc69:	8d 86 ec 02 00 00    	lea    0x2ec(%esi),%eax
 804bc6f:	31 d2                	xor    %edx,%edx
 804bc71:	89 86 e8 02 00 00    	mov    %eax,0x2e8(%esi)
 804bc77:	b8 04 00 00 00       	mov    $0x4,%eax
 804bc7c:	c7 46 3c b0 bb 04 08 	movl   $0x804bbb0,0x3c(%esi)
 804bc83:	c7 86 e0 02 00 00 00 	movl   $0x0,0x2e0(%esi)
 804bc8a:	00 00 00 
 804bc8d:	c7 86 e4 02 00 00 03 	movl   $0x3,0x2e4(%esi)
 804bc94:	00 00 00 
 804bc97:	66 89 43 0c          	mov    %ax,0xc(%ebx)
 804bc9b:	8d 43 5c             	lea    0x5c(%ebx),%eax
 804bc9e:	66 89 53 0e          	mov    %dx,0xe(%ebx)
 804bca2:	c7 03 00 00 00 00    	movl   $0x0,(%ebx)
 804bca8:	c7 43 04 00 00 00 00 	movl   $0x0,0x4(%ebx)
 804bcaf:	c7 43 08 00 00 00 00 	movl   $0x0,0x8(%ebx)
 804bcb6:	c7 43 64 00 00 00 00 	movl   $0x0,0x64(%ebx)
 804bcbd:	c7 43 10 00 00 00 00 	movl   $0x0,0x10(%ebx)
 804bcc4:	c7 43 14 00 00 00 00 	movl   $0x0,0x14(%ebx)
 804bccb:	c7 43 18 00 00 00 00 	movl   $0x0,0x18(%ebx)
 804bcd2:	c7 44 24 08 08 00 00 	movl   $0x8,0x8(%esp)
 804bcd9:	00 
 804bcda:	c7 44 24 04 00 00 00 	movl   $0x0,0x4(%esp)
 804bce1:	00 
 804bce2:	89 04 24             	mov    %eax,(%esp)
 804bce5:	e8 e3 16 00 00       	call   804d3cd <memset>
 804bcea:	b8 01 00 00 00       	mov    $0x1,%eax
 804bcef:	b9 09 00 00 00       	mov    $0x9,%ecx
 804bcf4:	89 5b 1c             	mov    %ebx,0x1c(%ebx)
 804bcf7:	c7 43 20 b0 e8 04 08 	movl   $0x804e8b0,0x20(%ebx)
 804bcfe:	c7 43 24 10 e9 04 08 	movl   $0x804e910,0x24(%ebx)
 804bd05:	c7 43 28 80 e9 04 08 	movl   $0x804e980,0x28(%ebx)
 804bd0c:	c7 43 2c d0 e9 04 08 	movl   $0x804e9d0,0x2c(%ebx)
 804bd13:	8b 5e 08             	mov    0x8(%esi),%ebx
 804bd16:	66 89 43 0e          	mov    %ax,0xe(%ebx)
 804bd1a:	8d 43 5c             	lea    0x5c(%ebx),%eax
 804bd1d:	66 89 4b 0c          	mov    %cx,0xc(%ebx)
 804bd21:	c7 03 00 00 00 00    	movl   $0x0,(%ebx)
 804bd27:	c7 43 04 00 00 00 00 	movl   $0x0,0x4(%ebx)
 804bd2e:	c7 43 08 00 00 00 00 	movl   $0x0,0x8(%ebx)
 804bd35:	c7 43 64 00 00 00 00 	movl   $0x0,0x64(%ebx)
 804bd3c:	c7 43 10 00 00 00 00 	movl   $0x0,0x10(%ebx)
 804bd43:	c7 43 14 00 00 00 00 	movl   $0x0,0x14(%ebx)
 804bd4a:	c7 43 18 00 00 00 00 	movl   $0x0,0x18(%ebx)
 804bd51:	c7 44 24 08 08 00 00 	movl   $0x8,0x8(%esp)
 804bd58:	00 
 804bd59:	c7 44 24 04 00 00 00 	movl   $0x0,0x4(%esp)
 804bd60:	00 
 804bd61:	89 04 24             	mov    %eax,(%esp)
 804bd64:	e8 64 16 00 00       	call   804d3cd <memset>
 804bd69:	b8 12 00 00 00       	mov    $0x12,%eax
 804bd6e:	89 5b 1c             	mov    %ebx,0x1c(%ebx)
 804bd71:	c7 43 20 b0 e8 04 08 	movl   $0x804e8b0,0x20(%ebx)
 804bd78:	c7 43 24 10 e9 04 08 	movl   $0x804e910,0x24(%ebx)
 804bd7f:	c7 43 28 80 e9 04 08 	movl   $0x804e980,0x28(%ebx)
 804bd86:	c7 43 2c d0 e9 04 08 	movl   $0x804e9d0,0x2c(%ebx)
 804bd8d:	8b 5e 0c             	mov    0xc(%esi),%ebx
 804bd90:	66 89 43 0c          	mov    %ax,0xc(%ebx)
 804bd94:	b8 02 00 00 00       	mov    $0x2,%eax
 804bd99:	66 89 43 0e          	mov    %ax,0xe(%ebx)
 804bd9d:	8d 43 5c             	lea    0x5c(%ebx),%eax
 804bda0:	c7 03 00 00 00 00    	movl   $0x0,(%ebx)
 804bda6:	c7 43 04 00 00 00 00 	movl   $0x0,0x4(%ebx)
 804bdad:	c7 43 08 00 00 00 00 	movl   $0x0,0x8(%ebx)
 804bdb4:	c7 43 64 00 00 00 00 	movl   $0x0,0x64(%ebx)
 804bdbb:	c7 43 10 00 00 00 00 	movl   $0x0,0x10(%ebx)
 804bdc2:	c7 43 14 00 00 00 00 	movl   $0x0,0x14(%ebx)
 804bdc9:	c7 43 18 00 00 00 00 	movl   $0x0,0x18(%ebx)
 804bdd0:	c7 44 24 08 08 00 00 	movl   $0x8,0x8(%esp)
 804bdd7:	00 
 804bdd8:	c7 44 24 04 00 00 00 	movl   $0x0,0x4(%esp)
 804bddf:	00 
 804bde0:	89 04 24             	mov    %eax,(%esp)
 804bde3:	e8 e5 15 00 00       	call   804d3cd <memset>
 804bde8:	89 5b 1c             	mov    %ebx,0x1c(%ebx)
 804bdeb:	c7 43 20 b0 e8 04 08 	movl   $0x804e8b0,0x20(%ebx)
 804bdf2:	c7 43 24 10 e9 04 08 	movl   $0x804e910,0x24(%ebx)
 804bdf9:	c7 43 28 80 e9 04 08 	movl   $0x804e980,0x28(%ebx)
 804be00:	c7 43 2c d0 e9 04 08 	movl   $0x804e9d0,0x2c(%ebx)
 804be07:	c7 46 38 01 00 00 00 	movl   $0x1,0x38(%esi)
 804be0e:	83 c4 10             	add    $0x10,%esp
 804be11:	5b                   	pop    %ebx
 804be12:	5e                   	pop    %esi
 804be13:	5d                   	pop    %ebp
 804be14:	c3                   	ret    
 804be15:	8d 74 26 00          	lea    0x0(%esi,%eiz,1),%esi
 804be19:	8d bc 27 00 00 00 00 	lea    0x0(%edi,%eiz,1),%edi

0804be20 <__sfp>:
 804be20:	55                   	push   %ebp
 804be21:	89 e5                	mov    %esp,%ebp
 804be23:	56                   	push   %esi
 804be24:	53                   	push   %ebx
 804be25:	83 ec 10             	sub    $0x10,%esp
 804be28:	8b 35 80 07 05 08    	mov    0x8050780,%esi
 804be2e:	8b 4e 38             	mov    0x38(%esi),%ecx
 804be31:	85 c9                	test   %ecx,%ecx
 804be33:	0f 84 bf 00 00 00    	je     804bef8 <__sfp+0xd8>
 804be39:	81 c6 e0 02 00 00    	add    $0x2e0,%esi
 804be3f:	8b 46 04             	mov    0x4(%esi),%eax
 804be42:	8b 5e 08             	mov    0x8(%esi),%ebx
 804be45:	83 e8 01             	sub    $0x1,%eax
 804be48:	79 15                	jns    804be5f <__sfp+0x3f>
 804be4a:	e9 99 00 00 00       	jmp    804bee8 <__sfp+0xc8>
 804be4f:	90                   	nop
 804be50:	83 e8 01             	sub    $0x1,%eax
 804be53:	83 c3 68             	add    $0x68,%ebx
 804be56:	83 f8 ff             	cmp    $0xffffffff,%eax
 804be59:	0f 84 89 00 00 00    	je     804bee8 <__sfp+0xc8>
 804be5f:	66 83 7b 0c 00       	cmpw   $0x0,0xc(%ebx)
 804be64:	75 ea                	jne    804be50 <__sfp+0x30>
 804be66:	b8 ff ff ff ff       	mov    $0xffffffff,%eax
 804be6b:	ba 01 00 00 00       	mov    $0x1,%edx
 804be70:	66 89 43 0e          	mov    %ax,0xe(%ebx)
 804be74:	8d 43 5c             	lea    0x5c(%ebx),%eax
 804be77:	66 89 53 0c          	mov    %dx,0xc(%ebx)
 804be7b:	c7 43 64 00 00 00 00 	movl   $0x0,0x64(%ebx)
 804be82:	c7 03 00 00 00 00    	movl   $0x0,(%ebx)
 804be88:	c7 43 08 00 00 00 00 	movl   $0x0,0x8(%ebx)
 804be8f:	c7 43 04 00 00 00 00 	movl   $0x0,0x4(%ebx)
 804be96:	c7 43 10 00 00 00 00 	movl   $0x0,0x10(%ebx)
 804be9d:	c7 43 14 00 00 00 00 	movl   $0x0,0x14(%ebx)
 804bea4:	c7 43 18 00 00 00 00 	movl   $0x0,0x18(%ebx)
 804beab:	c7 44 24 08 08 00 00 	movl   $0x8,0x8(%esp)
 804beb2:	00 
 804beb3:	c7 44 24 04 00 00 00 	movl   $0x0,0x4(%esp)
 804beba:	00 
 804bebb:	89 04 24             	mov    %eax,(%esp)
 804bebe:	e8 0a 15 00 00       	call   804d3cd <memset>
 804bec3:	89 d8                	mov    %ebx,%eax
 804bec5:	c7 43 30 00 00 00 00 	movl   $0x0,0x30(%ebx)
 804becc:	c7 43 34 00 00 00 00 	movl   $0x0,0x34(%ebx)
 804bed3:	c7 43 44 00 00 00 00 	movl   $0x0,0x44(%ebx)
 804beda:	c7 43 48 00 00 00 00 	movl   $0x0,0x48(%ebx)
 804bee1:	83 c4 10             	add    $0x10,%esp
 804bee4:	5b                   	pop    %ebx
 804bee5:	5e                   	pop    %esi
 804bee6:	5d                   	pop    %ebp
 804bee7:	c3                   	ret    
 804bee8:	8b 06                	mov    (%esi),%eax
 804beea:	85 c0                	test   %eax,%eax
 804beec:	74 17                	je     804bf05 <__sfp+0xe5>
 804beee:	89 c6                	mov    %eax,%esi
 804bef0:	e9 4a ff ff ff       	jmp    804be3f <__sfp+0x1f>
 804bef5:	8d 76 00             	lea    0x0(%esi),%esi
 804bef8:	89 34 24             	mov    %esi,(%esp)
 804befb:	e8 50 fd ff ff       	call   804bc50 <__sinit>
 804bf00:	e9 34 ff ff ff       	jmp    804be39 <__sfp+0x19>
 804bf05:	8b 45 08             	mov    0x8(%ebp),%eax
 804bf08:	c7 44 24 04 04 00 00 	movl   $0x4,0x4(%esp)
 804bf0f:	00 
 804bf10:	89 04 24             	mov    %eax,(%esp)
 804bf13:	e8 b8 fc ff ff       	call   804bbd0 <__sfmoreglue>
 804bf18:	85 c0                	test   %eax,%eax
 804bf1a:	89 06                	mov    %eax,(%esi)
 804bf1c:	75 d0                	jne    804beee <__sfp+0xce>
 804bf1e:	8b 45 08             	mov    0x8(%ebp),%eax
 804bf21:	c7 00 0c 00 00 00    	movl   $0xc,(%eax)
 804bf27:	31 c0                	xor    %eax,%eax
 804bf29:	eb b6                	jmp    804bee1 <__sfp+0xc1>
 804bf2b:	90                   	nop
 804bf2c:	8d 74 26 00          	lea    0x0(%esi,%eiz,1),%esi

0804bf30 <__sfp_lock_acquire>:
 804bf30:	55                   	push   %ebp
 804bf31:	89 e5                	mov    %esp,%ebp
 804bf33:	5d                   	pop    %ebp
 804bf34:	c3                   	ret    
 804bf35:	8d 74 26 00          	lea    0x0(%esi,%eiz,1),%esi
 804bf39:	8d bc 27 00 00 00 00 	lea    0x0(%edi,%eiz,1),%edi

0804bf40 <__sfp_lock_release>:
 804bf40:	55                   	push   %ebp
 804bf41:	89 e5                	mov    %esp,%ebp
 804bf43:	5d                   	pop    %ebp
 804bf44:	c3                   	ret    
 804bf45:	8d 74 26 00          	lea    0x0(%esi,%eiz,1),%esi
 804bf49:	8d bc 27 00 00 00 00 	lea    0x0(%edi,%eiz,1),%edi

0804bf50 <__sinit_lock_acquire>:
 804bf50:	55                   	push   %ebp
 804bf51:	89 e5                	mov    %esp,%ebp
 804bf53:	5d                   	pop    %ebp
 804bf54:	c3                   	ret    
 804bf55:	8d 74 26 00          	lea    0x0(%esi,%eiz,1),%esi
 804bf59:	8d bc 27 00 00 00 00 	lea    0x0(%edi,%eiz,1),%edi

0804bf60 <__sinit_lock_release>:
 804bf60:	55                   	push   %ebp
 804bf61:	89 e5                	mov    %esp,%ebp
 804bf63:	5d                   	pop    %ebp
 804bf64:	c3                   	ret    
 804bf65:	8d 74 26 00          	lea    0x0(%esi,%eiz,1),%esi
 804bf69:	8d bc 27 00 00 00 00 	lea    0x0(%edi,%eiz,1),%edi

0804bf70 <__fp_lock_all>:
 804bf70:	55                   	push   %ebp
 804bf71:	89 e5                	mov    %esp,%ebp
 804bf73:	83 ec 18             	sub    $0x18,%esp
 804bf76:	e8 45 09 00 00       	call   804c8c0 <__getreent>
 804bf7b:	c7 44 24 04 90 bb 04 	movl   $0x804bb90,0x4(%esp)
 804bf82:	08 
 804bf83:	89 04 24             	mov    %eax,(%esp)
 804bf86:	e8 45 08 00 00       	call   804c7d0 <_fwalk>
 804bf8b:	c9                   	leave  
 804bf8c:	c3                   	ret    
 804bf8d:	8d 76 00             	lea    0x0(%esi),%esi

0804bf90 <__fp_unlock_all>:
 804bf90:	55                   	push   %ebp
 804bf91:	89 e5                	mov    %esp,%ebp
 804bf93:	83 ec 18             	sub    $0x18,%esp
 804bf96:	e8 25 09 00 00       	call   804c8c0 <__getreent>
 804bf9b:	c7 44 24 04 a0 bb 04 	movl   $0x804bba0,0x4(%esp)
 804bfa2:	08 
 804bfa3:	89 04 24             	mov    %eax,(%esp)
 804bfa6:	e8 25 08 00 00       	call   804c7d0 <_fwalk>
 804bfab:	c9                   	leave  
 804bfac:	c3                   	ret    
 804bfad:	66 90                	xchg   %ax,%ax
 804bfaf:	90                   	nop

0804bfb0 <_malloc_trim_r>:
 804bfb0:	55                   	push   %ebp
 804bfb1:	89 e5                	mov    %esp,%ebp
 804bfb3:	57                   	push   %edi
 804bfb4:	56                   	push   %esi
 804bfb5:	53                   	push   %ebx
 804bfb6:	83 ec 1c             	sub    $0x1c,%esp
 804bfb9:	8b 75 08             	mov    0x8(%ebp),%esi
 804bfbc:	89 34 24             	mov    %esi,(%esp)
 804bfbf:	e8 9c 14 00 00       	call   804d460 <__malloc_lock>
 804bfc4:	a1 08 25 05 08       	mov    0x8052508,%eax
 804bfc9:	8b 58 04             	mov    0x4(%eax),%ebx
 804bfcc:	83 e3 fc             	and    $0xfffffffc,%ebx
 804bfcf:	89 d8                	mov    %ebx,%eax
 804bfd1:	2b 45 0c             	sub    0xc(%ebp),%eax
 804bfd4:	05 ef 0f 00 00       	add    $0xfef,%eax
 804bfd9:	25 00 f0 ff ff       	and    $0xfffff000,%eax
 804bfde:	8d b8 00 f0 ff ff    	lea    -0x1000(%eax),%edi
 804bfe4:	81 ff ff 0f 00 00    	cmp    $0xfff,%edi
 804bfea:	7e 1c                	jle    804c008 <_malloc_trim_r+0x58>
 804bfec:	c7 44 24 04 00 00 00 	movl   $0x0,0x4(%esp)
 804bff3:	00 
 804bff4:	89 34 24             	mov    %esi,(%esp)
 804bff7:	e8 04 28 00 00       	call   804e800 <_sbrk_r>
 804bffc:	8b 15 08 25 05 08    	mov    0x8052508,%edx
 804c002:	01 da                	add    %ebx,%edx
 804c004:	39 d0                	cmp    %edx,%eax
 804c006:	74 18                	je     804c020 <_malloc_trim_r+0x70>
 804c008:	89 34 24             	mov    %esi,(%esp)
 804c00b:	e8 60 14 00 00       	call   804d470 <__malloc_unlock>
 804c010:	83 c4 1c             	add    $0x1c,%esp
 804c013:	31 c0                	xor    %eax,%eax
 804c015:	5b                   	pop    %ebx
 804c016:	5e                   	pop    %esi
 804c017:	5f                   	pop    %edi
 804c018:	5d                   	pop    %ebp
 804c019:	c3                   	ret    
 804c01a:	8d b6 00 00 00 00    	lea    0x0(%esi),%esi
 804c020:	89 f8                	mov    %edi,%eax
 804c022:	f7 d8                	neg    %eax
 804c024:	89 44 24 04          	mov    %eax,0x4(%esp)
 804c028:	89 34 24             	mov    %esi,(%esp)
 804c02b:	e8 d0 27 00 00       	call   804e800 <_sbrk_r>
 804c030:	83 f8 ff             	cmp    $0xffffffff,%eax
 804c033:	74 2b                	je     804c060 <_malloc_trim_r+0xb0>
 804c035:	a1 08 25 05 08       	mov    0x8052508,%eax
 804c03a:	29 fb                	sub    %edi,%ebx
 804c03c:	83 cb 01             	or     $0x1,%ebx
 804c03f:	29 3d 40 29 05 08    	sub    %edi,0x8052940
 804c045:	89 58 04             	mov    %ebx,0x4(%eax)
 804c048:	89 34 24             	mov    %esi,(%esp)
 804c04b:	e8 20 14 00 00       	call   804d470 <__malloc_unlock>
 804c050:	83 c4 1c             	add    $0x1c,%esp
 804c053:	b8 01 00 00 00       	mov    $0x1,%eax
 804c058:	5b                   	pop    %ebx
 804c059:	5e                   	pop    %esi
 804c05a:	5f                   	pop    %edi
 804c05b:	5d                   	pop    %ebp
 804c05c:	c3                   	ret    
 804c05d:	8d 76 00             	lea    0x0(%esi),%esi
 804c060:	c7 44 24 04 00 00 00 	movl   $0x0,0x4(%esp)
 804c067:	00 
 804c068:	89 34 24             	mov    %esi,(%esp)
 804c06b:	e8 90 27 00 00       	call   804e800 <_sbrk_r>
 804c070:	8b 15 08 25 05 08    	mov    0x8052508,%edx
 804c076:	89 c1                	mov    %eax,%ecx
 804c078:	29 d1                	sub    %edx,%ecx
 804c07a:	83 f9 0f             	cmp    $0xf,%ecx
 804c07d:	7e 89                	jle    804c008 <_malloc_trim_r+0x58>
 804c07f:	2b 05 e0 24 05 08    	sub    0x80524e0,%eax
 804c085:	83 c9 01             	or     $0x1,%ecx
 804c088:	89 4a 04             	mov    %ecx,0x4(%edx)
 804c08b:	a3 40 29 05 08       	mov    %eax,0x8052940
 804c090:	e9 73 ff ff ff       	jmp    804c008 <_malloc_trim_r+0x58>
 804c095:	8d 74 26 00          	lea    0x0(%esi,%eiz,1),%esi
 804c099:	8d bc 27 00 00 00 00 	lea    0x0(%edi,%eiz,1),%edi

0804c0a0 <_free_r>:
 804c0a0:	55                   	push   %ebp
 804c0a1:	89 e5                	mov    %esp,%ebp
 804c0a3:	57                   	push   %edi
 804c0a4:	56                   	push   %esi
 804c0a5:	53                   	push   %ebx
 804c0a6:	83 ec 1c             	sub    $0x1c,%esp
 804c0a9:	8b 75 0c             	mov    0xc(%ebp),%esi
 804c0ac:	8b 45 08             	mov    0x8(%ebp),%eax
 804c0af:	85 f6                	test   %esi,%esi
 804c0b1:	89 45 e4             	mov    %eax,-0x1c(%ebp)
 804c0b4:	0f 84 fe 00 00 00    	je     804c1b8 <_free_r+0x118>
 804c0ba:	89 04 24             	mov    %eax,(%esp)
 804c0bd:	e8 9e 13 00 00       	call   804d460 <__malloc_lock>
 804c0c2:	8b 7e fc             	mov    -0x4(%esi),%edi
 804c0c5:	8d 56 f8             	lea    -0x8(%esi),%edx
 804c0c8:	89 f8                	mov    %edi,%eax
 804c0ca:	83 e0 fe             	and    $0xfffffffe,%eax
 804c0cd:	8d 0c 02             	lea    (%edx,%eax,1),%ecx
 804c0d0:	8b 59 04             	mov    0x4(%ecx),%ebx
 804c0d3:	83 e3 fc             	and    $0xfffffffc,%ebx
 804c0d6:	39 0d 08 25 05 08    	cmp    %ecx,0x8052508
 804c0dc:	0f 84 0e 01 00 00    	je     804c1f0 <_free_r+0x150>
 804c0e2:	83 e7 01             	and    $0x1,%edi
 804c0e5:	89 59 04             	mov    %ebx,0x4(%ecx)
 804c0e8:	c7 45 e0 00 00 00 00 	movl   $0x0,-0x20(%ebp)
 804c0ef:	75 1f                	jne    804c110 <_free_r+0x70>
 804c0f1:	8b 76 f8             	mov    -0x8(%esi),%esi
 804c0f4:	29 f2                	sub    %esi,%edx
 804c0f6:	01 f0                	add    %esi,%eax
 804c0f8:	8b 72 08             	mov    0x8(%edx),%esi
 804c0fb:	81 fe 08 25 05 08    	cmp    $0x8052508,%esi
 804c101:	0f 84 39 01 00 00    	je     804c240 <_free_r+0x1a0>
 804c107:	8b 7a 0c             	mov    0xc(%edx),%edi
 804c10a:	89 7e 0c             	mov    %edi,0xc(%esi)
 804c10d:	89 77 08             	mov    %esi,0x8(%edi)
 804c110:	f6 44 19 04 01       	testb  $0x1,0x4(%ecx,%ebx,1)
 804c115:	75 21                	jne    804c138 <_free_r+0x98>
 804c117:	8b 75 e0             	mov    -0x20(%ebp),%esi
 804c11a:	01 d8                	add    %ebx,%eax
 804c11c:	8b 59 08             	mov    0x8(%ecx),%ebx
 804c11f:	85 f6                	test   %esi,%esi
 804c121:	75 0c                	jne    804c12f <_free_r+0x8f>
 804c123:	81 fb 08 25 05 08    	cmp    $0x8052508,%ebx
 804c129:	0f 84 21 01 00 00    	je     804c250 <_free_r+0x1b0>
 804c12f:	8b 49 0c             	mov    0xc(%ecx),%ecx
 804c132:	89 4b 0c             	mov    %ecx,0xc(%ebx)
 804c135:	89 59 08             	mov    %ebx,0x8(%ecx)
 804c138:	89 c1                	mov    %eax,%ecx
 804c13a:	83 c9 01             	or     $0x1,%ecx
 804c13d:	89 4a 04             	mov    %ecx,0x4(%edx)
 804c140:	8b 4d e0             	mov    -0x20(%ebp),%ecx
 804c143:	89 04 02             	mov    %eax,(%edx,%eax,1)
 804c146:	85 c9                	test   %ecx,%ecx
 804c148:	75 56                	jne    804c1a0 <_free_r+0x100>
 804c14a:	3d ff 01 00 00       	cmp    $0x1ff,%eax
 804c14f:	76 6f                	jbe    804c1c0 <_free_r+0x120>
 804c151:	89 c1                	mov    %eax,%ecx
 804c153:	c1 e9 09             	shr    $0x9,%ecx
 804c156:	83 f9 04             	cmp    $0x4,%ecx
 804c159:	0f 87 21 01 00 00    	ja     804c280 <_free_r+0x1e0>
 804c15f:	89 c1                	mov    %eax,%ecx
 804c161:	c1 e9 06             	shr    $0x6,%ecx
 804c164:	83 c1 38             	add    $0x38,%ecx
 804c167:	8d 1c 09             	lea    (%ecx,%ecx,1),%ebx
 804c16a:	8d 34 9d 00 25 05 08 	lea    0x8052500(,%ebx,4),%esi
 804c171:	8b 5e 08             	mov    0x8(%esi),%ebx
 804c174:	39 f3                	cmp    %esi,%ebx
 804c176:	0f 84 14 01 00 00    	je     804c290 <_free_r+0x1f0>
 804c17c:	8d 74 26 00          	lea    0x0(%esi,%eiz,1),%esi
 804c180:	8b 4b 04             	mov    0x4(%ebx),%ecx
 804c183:	83 e1 fc             	and    $0xfffffffc,%ecx
 804c186:	39 c8                	cmp    %ecx,%eax
 804c188:	73 07                	jae    804c191 <_free_r+0xf1>
 804c18a:	8b 5b 08             	mov    0x8(%ebx),%ebx
 804c18d:	39 de                	cmp    %ebx,%esi
 804c18f:	75 ef                	jne    804c180 <_free_r+0xe0>
 804c191:	8b 43 0c             	mov    0xc(%ebx),%eax
 804c194:	89 42 0c             	mov    %eax,0xc(%edx)
 804c197:	89 5a 08             	mov    %ebx,0x8(%edx)
 804c19a:	89 50 08             	mov    %edx,0x8(%eax)
 804c19d:	89 53 0c             	mov    %edx,0xc(%ebx)
 804c1a0:	8b 45 e4             	mov    -0x1c(%ebp),%eax
 804c1a3:	89 45 08             	mov    %eax,0x8(%ebp)
 804c1a6:	83 c4 1c             	add    $0x1c,%esp
 804c1a9:	5b                   	pop    %ebx
 804c1aa:	5e                   	pop    %esi
 804c1ab:	5f                   	pop    %edi
 804c1ac:	5d                   	pop    %ebp
 804c1ad:	e9 be 12 00 00       	jmp    804d470 <__malloc_unlock>
 804c1b2:	8d b6 00 00 00 00    	lea    0x0(%esi),%esi
 804c1b8:	83 c4 1c             	add    $0x1c,%esp
 804c1bb:	5b                   	pop    %ebx
 804c1bc:	5e                   	pop    %esi
 804c1bd:	5f                   	pop    %edi
 804c1be:	5d                   	pop    %ebp
 804c1bf:	c3                   	ret    
 804c1c0:	c1 e8 03             	shr    $0x3,%eax
 804c1c3:	bb 01 00 00 00       	mov    $0x1,%ebx
 804c1c8:	89 c1                	mov    %eax,%ecx
 804c1ca:	c1 f9 02             	sar    $0x2,%ecx
 804c1cd:	8d 04 c5 00 25 05 08 	lea    0x8052500(,%eax,8),%eax
 804c1d4:	d3 e3                	shl    %cl,%ebx
 804c1d6:	8b 48 08             	mov    0x8(%eax),%ecx
 804c1d9:	09 1d 04 25 05 08    	or     %ebx,0x8052504
 804c1df:	89 42 0c             	mov    %eax,0xc(%edx)
 804c1e2:	89 4a 08             	mov    %ecx,0x8(%edx)
 804c1e5:	89 50 08             	mov    %edx,0x8(%eax)
 804c1e8:	89 51 0c             	mov    %edx,0xc(%ecx)
 804c1eb:	eb b3                	jmp    804c1a0 <_free_r+0x100>
 804c1ed:	8d 76 00             	lea    0x0(%esi),%esi
 804c1f0:	01 d8                	add    %ebx,%eax
 804c1f2:	83 e7 01             	and    $0x1,%edi
 804c1f5:	75 13                	jne    804c20a <_free_r+0x16a>
 804c1f7:	8b 4e f8             	mov    -0x8(%esi),%ecx
 804c1fa:	29 ca                	sub    %ecx,%edx
 804c1fc:	01 c8                	add    %ecx,%eax
 804c1fe:	8b 5a 08             	mov    0x8(%edx),%ebx
 804c201:	8b 4a 0c             	mov    0xc(%edx),%ecx
 804c204:	89 4b 0c             	mov    %ecx,0xc(%ebx)
 804c207:	89 59 08             	mov    %ebx,0x8(%ecx)
 804c20a:	89 c1                	mov    %eax,%ecx
 804c20c:	83 c9 01             	or     $0x1,%ecx
 804c20f:	3b 05 e4 24 05 08    	cmp    0x80524e4,%eax
 804c215:	89 4a 04             	mov    %ecx,0x4(%edx)
 804c218:	89 15 08 25 05 08    	mov    %edx,0x8052508
 804c21e:	72 80                	jb     804c1a0 <_free_r+0x100>
 804c220:	a1 70 29 05 08       	mov    0x8052970,%eax
 804c225:	89 44 24 04          	mov    %eax,0x4(%esp)
 804c229:	8b 45 e4             	mov    -0x1c(%ebp),%eax
 804c22c:	89 04 24             	mov    %eax,(%esp)
 804c22f:	e8 7c fd ff ff       	call   804bfb0 <_malloc_trim_r>
 804c234:	e9 67 ff ff ff       	jmp    804c1a0 <_free_r+0x100>
 804c239:	8d b4 26 00 00 00 00 	lea    0x0(%esi,%eiz,1),%esi
 804c240:	c7 45 e0 01 00 00 00 	movl   $0x1,-0x20(%ebp)
 804c247:	e9 c4 fe ff ff       	jmp    804c110 <_free_r+0x70>
 804c24c:	8d 74 26 00          	lea    0x0(%esi,%eiz,1),%esi
 804c250:	89 c1                	mov    %eax,%ecx
 804c252:	83 c9 01             	or     $0x1,%ecx
 804c255:	89 15 14 25 05 08    	mov    %edx,0x8052514
 804c25b:	89 15 10 25 05 08    	mov    %edx,0x8052510
 804c261:	c7 42 0c 08 25 05 08 	movl   $0x8052508,0xc(%edx)
 804c268:	c7 42 08 08 25 05 08 	movl   $0x8052508,0x8(%edx)
 804c26f:	89 4a 04             	mov    %ecx,0x4(%edx)
 804c272:	89 04 02             	mov    %eax,(%edx,%eax,1)
 804c275:	e9 26 ff ff ff       	jmp    804c1a0 <_free_r+0x100>
 804c27a:	8d b6 00 00 00 00    	lea    0x0(%esi),%esi
 804c280:	83 f9 14             	cmp    $0x14,%ecx
 804c283:	77 23                	ja     804c2a8 <_free_r+0x208>
 804c285:	83 c1 5b             	add    $0x5b,%ecx
 804c288:	8d 1c 09             	lea    (%ecx,%ecx,1),%ebx
 804c28b:	e9 da fe ff ff       	jmp    804c16a <_free_r+0xca>
 804c290:	c1 f9 02             	sar    $0x2,%ecx
 804c293:	b8 01 00 00 00       	mov    $0x1,%eax
 804c298:	d3 e0                	shl    %cl,%eax
 804c29a:	09 05 04 25 05 08    	or     %eax,0x8052504
 804c2a0:	89 d8                	mov    %ebx,%eax
 804c2a2:	e9 ed fe ff ff       	jmp    804c194 <_free_r+0xf4>
 804c2a7:	90                   	nop
 804c2a8:	83 f9 54             	cmp    $0x54,%ecx
 804c2ab:	77 10                	ja     804c2bd <_free_r+0x21d>
 804c2ad:	89 c1                	mov    %eax,%ecx
 804c2af:	c1 e9 0c             	shr    $0xc,%ecx
 804c2b2:	83 c1 6e             	add    $0x6e,%ecx
 804c2b5:	8d 1c 09             	lea    (%ecx,%ecx,1),%ebx
 804c2b8:	e9 ad fe ff ff       	jmp    804c16a <_free_r+0xca>
 804c2bd:	81 f9 54 01 00 00    	cmp    $0x154,%ecx
 804c2c3:	77 10                	ja     804c2d5 <_free_r+0x235>
 804c2c5:	89 c1                	mov    %eax,%ecx
 804c2c7:	c1 e9 0f             	shr    $0xf,%ecx
 804c2ca:	83 c1 77             	add    $0x77,%ecx
 804c2cd:	8d 1c 09             	lea    (%ecx,%ecx,1),%ebx
 804c2d0:	e9 95 fe ff ff       	jmp    804c16a <_free_r+0xca>
 804c2d5:	81 f9 54 05 00 00    	cmp    $0x554,%ecx
 804c2db:	77 10                	ja     804c2ed <_free_r+0x24d>
 804c2dd:	89 c1                	mov    %eax,%ecx
 804c2df:	c1 e9 12             	shr    $0x12,%ecx
 804c2e2:	83 c1 7c             	add    $0x7c,%ecx
 804c2e5:	8d 1c 09             	lea    (%ecx,%ecx,1),%ebx
 804c2e8:	e9 7d fe ff ff       	jmp    804c16a <_free_r+0xca>
 804c2ed:	bb fc 00 00 00       	mov    $0xfc,%ebx
 804c2f2:	b9 7e 00 00 00       	mov    $0x7e,%ecx
 804c2f7:	e9 6e fe ff ff       	jmp    804c16a <_free_r+0xca>
 804c2fc:	66 90                	xchg   %ax,%ax
 804c2fe:	66 90                	xchg   %ax,%ax

0804c300 <__sfvwrite_r>:
 804c300:	55                   	push   %ebp
 804c301:	89 e5                	mov    %esp,%ebp
 804c303:	57                   	push   %edi
 804c304:	56                   	push   %esi
 804c305:	53                   	push   %ebx
 804c306:	83 ec 3c             	sub    $0x3c,%esp
 804c309:	8b 45 10             	mov    0x10(%ebp),%eax
 804c30c:	8b 5d 0c             	mov    0xc(%ebp),%ebx
 804c30f:	8b 48 08             	mov    0x8(%eax),%ecx
 804c312:	85 c9                	test   %ecx,%ecx
 804c314:	74 7e                	je     804c394 <__sfvwrite_r+0x94>
 804c316:	0f b7 43 0c          	movzwl 0xc(%ebx),%eax
 804c31a:	a8 08                	test   $0x8,%al
 804c31c:	0f 84 7e 00 00 00    	je     804c3a0 <__sfvwrite_r+0xa0>
 804c322:	8b 53 10             	mov    0x10(%ebx),%edx
 804c325:	85 d2                	test   %edx,%edx
 804c327:	74 77                	je     804c3a0 <__sfvwrite_r+0xa0>
 804c329:	8b 7d 10             	mov    0x10(%ebp),%edi
 804c32c:	a8 02                	test   $0x2,%al
 804c32e:	8b 3f                	mov    (%edi),%edi
 804c330:	89 7d e4             	mov    %edi,-0x1c(%ebp)
 804c333:	0f 84 92 00 00 00    	je     804c3cb <__sfvwrite_r+0xcb>
 804c339:	31 ff                	xor    %edi,%edi
 804c33b:	31 f6                	xor    %esi,%esi
 804c33d:	89 5d 0c             	mov    %ebx,0xc(%ebp)
 804c340:	89 fb                	mov    %edi,%ebx
 804c342:	8b 7d 0c             	mov    0xc(%ebp),%edi
 804c345:	8d 76 00             	lea    0x0(%esi),%esi
 804c348:	85 f6                	test   %esi,%esi
 804c34a:	0f 84 00 01 00 00    	je     804c450 <__sfvwrite_r+0x150>
 804c350:	81 fe 00 fc ff 7f    	cmp    $0x7ffffc00,%esi
 804c356:	b8 00 fc ff 7f       	mov    $0x7ffffc00,%eax
 804c35b:	0f 46 c6             	cmovbe %esi,%eax
 804c35e:	89 44 24 0c          	mov    %eax,0xc(%esp)
 804c362:	89 5c 24 08          	mov    %ebx,0x8(%esp)
 804c366:	8b 47 1c             	mov    0x1c(%edi),%eax
 804c369:	89 44 24 04          	mov    %eax,0x4(%esp)
 804c36d:	8b 45 08             	mov    0x8(%ebp),%eax
 804c370:	89 04 24             	mov    %eax,(%esp)
 804c373:	ff 57 24             	call   *0x24(%edi)
 804c376:	85 c0                	test   %eax,%eax
 804c378:	0f 8e 2a 04 00 00    	jle    804c7a8 <__sfvwrite_r+0x4a8>
 804c37e:	8b 4d 10             	mov    0x10(%ebp),%ecx
 804c381:	01 c3                	add    %eax,%ebx
 804c383:	29 c6                	sub    %eax,%esi
 804c385:	8b 49 08             	mov    0x8(%ecx),%ecx
 804c388:	29 c1                	sub    %eax,%ecx
 804c38a:	8b 45 10             	mov    0x10(%ebp),%eax
 804c38d:	85 c9                	test   %ecx,%ecx
 804c38f:	89 48 08             	mov    %ecx,0x8(%eax)
 804c392:	75 b4                	jne    804c348 <__sfvwrite_r+0x48>
 804c394:	31 c0                	xor    %eax,%eax
 804c396:	83 c4 3c             	add    $0x3c,%esp
 804c399:	5b                   	pop    %ebx
 804c39a:	5e                   	pop    %esi
 804c39b:	5f                   	pop    %edi
 804c39c:	5d                   	pop    %ebp
 804c39d:	c3                   	ret    
 804c39e:	66 90                	xchg   %ax,%ax
 804c3a0:	8b 45 08             	mov    0x8(%ebp),%eax
 804c3a3:	89 5c 24 04          	mov    %ebx,0x4(%esp)
 804c3a7:	89 04 24             	mov    %eax,(%esp)
 804c3aa:	e8 31 e0 ff ff       	call   804a3e0 <__swsetup_r>
 804c3af:	85 c0                	test   %eax,%eax
 804c3b1:	0f 85 f8 03 00 00    	jne    804c7af <__sfvwrite_r+0x4af>
 804c3b7:	8b 7d 10             	mov    0x10(%ebp),%edi
 804c3ba:	0f b7 43 0c          	movzwl 0xc(%ebx),%eax
 804c3be:	8b 3f                	mov    (%edi),%edi
 804c3c0:	a8 02                	test   $0x2,%al
 804c3c2:	89 7d e4             	mov    %edi,-0x1c(%ebp)
 804c3c5:	0f 85 6e ff ff ff    	jne    804c339 <__sfvwrite_r+0x39>
 804c3cb:	a8 01                	test   $0x1,%al
 804c3cd:	0f 85 95 00 00 00    	jne    804c468 <__sfvwrite_r+0x168>
 804c3d3:	c7 45 e0 00 00 00 00 	movl   $0x0,-0x20(%ebp)
 804c3da:	31 ff                	xor    %edi,%edi
 804c3dc:	8d 74 26 00          	lea    0x0(%esi,%eiz,1),%esi
 804c3e0:	85 ff                	test   %edi,%edi
 804c3e2:	74 5b                	je     804c43f <__sfvwrite_r+0x13f>
 804c3e4:	f6 c4 02             	test   $0x2,%ah
 804c3e7:	8b 73 08             	mov    0x8(%ebx),%esi
 804c3ea:	0f 84 30 01 00 00    	je     804c520 <__sfvwrite_r+0x220>
 804c3f0:	39 f7                	cmp    %esi,%edi
 804c3f2:	0f 82 d8 01 00 00    	jb     804c5d0 <__sfvwrite_r+0x2d0>
 804c3f8:	66 a9 80 04          	test   $0x480,%ax
 804c3fc:	0f 85 16 02 00 00    	jne    804c618 <__sfvwrite_r+0x318>
 804c402:	8b 03                	mov    (%ebx),%eax
 804c404:	89 f2                	mov    %esi,%edx
 804c406:	89 54 24 08          	mov    %edx,0x8(%esp)
 804c40a:	89 55 dc             	mov    %edx,-0x24(%ebp)
 804c40d:	8b 55 e0             	mov    -0x20(%ebp),%edx
 804c410:	89 04 24             	mov    %eax,(%esp)
 804c413:	89 54 24 04          	mov    %edx,0x4(%esp)
 804c417:	e8 24 0f 00 00       	call   804d340 <memmove>
 804c41c:	8b 55 dc             	mov    -0x24(%ebp),%edx
 804c41f:	01 13                	add    %edx,(%ebx)
 804c421:	29 73 08             	sub    %esi,0x8(%ebx)
 804c424:	89 fe                	mov    %edi,%esi
 804c426:	8b 45 10             	mov    0x10(%ebp),%eax
 804c429:	29 f7                	sub    %esi,%edi
 804c42b:	01 75 e0             	add    %esi,-0x20(%ebp)
 804c42e:	29 70 08             	sub    %esi,0x8(%eax)
 804c431:	0f 84 5d ff ff ff    	je     804c394 <__sfvwrite_r+0x94>
 804c437:	85 ff                	test   %edi,%edi
 804c439:	0f b7 43 0c          	movzwl 0xc(%ebx),%eax
 804c43d:	75 a5                	jne    804c3e4 <__sfvwrite_r+0xe4>
 804c43f:	8b 4d e4             	mov    -0x1c(%ebp),%ecx
 804c442:	83 45 e4 08          	addl   $0x8,-0x1c(%ebp)
 804c446:	8b 11                	mov    (%ecx),%edx
 804c448:	8b 79 04             	mov    0x4(%ecx),%edi
 804c44b:	89 55 e0             	mov    %edx,-0x20(%ebp)
 804c44e:	eb 90                	jmp    804c3e0 <__sfvwrite_r+0xe0>
 804c450:	8b 45 e4             	mov    -0x1c(%ebp),%eax
 804c453:	83 45 e4 08          	addl   $0x8,-0x1c(%ebp)
 804c457:	8b 18                	mov    (%eax),%ebx
 804c459:	8b 70 04             	mov    0x4(%eax),%esi
 804c45c:	e9 e7 fe ff ff       	jmp    804c348 <__sfvwrite_r+0x48>
 804c461:	8d b4 26 00 00 00 00 	lea    0x0(%esi,%eiz,1),%esi
 804c468:	c7 45 d8 00 00 00 00 	movl   $0x0,-0x28(%ebp)
 804c46f:	31 ff                	xor    %edi,%edi
 804c471:	c7 45 dc 00 00 00 00 	movl   $0x0,-0x24(%ebp)
 804c478:	c7 45 e0 00 00 00 00 	movl   $0x0,-0x20(%ebp)
 804c47f:	90                   	nop
 804c480:	85 ff                	test   %edi,%edi
 804c482:	74 7f                	je     804c503 <__sfvwrite_r+0x203>
 804c484:	8b 45 dc             	mov    -0x24(%ebp),%eax
 804c487:	85 c0                	test   %eax,%eax
 804c489:	0f 84 51 01 00 00    	je     804c5e0 <__sfvwrite_r+0x2e0>
 804c48f:	8b 75 d8             	mov    -0x28(%ebp),%esi
 804c492:	8b 0b                	mov    (%ebx),%ecx
 804c494:	8b 53 08             	mov    0x8(%ebx),%edx
 804c497:	8b 43 14             	mov    0x14(%ebx),%eax
 804c49a:	39 fe                	cmp    %edi,%esi
 804c49c:	0f 47 f7             	cmova  %edi,%esi
 804c49f:	3b 4b 10             	cmp    0x10(%ebx),%ecx
 804c4a2:	76 0a                	jbe    804c4ae <__sfvwrite_r+0x1ae>
 804c4a4:	01 c2                	add    %eax,%edx
 804c4a6:	39 d6                	cmp    %edx,%esi
 804c4a8:	0f 8f 4a 02 00 00    	jg     804c6f8 <__sfvwrite_r+0x3f8>
 804c4ae:	39 c6                	cmp    %eax,%esi
 804c4b0:	0f 8c da 00 00 00    	jl     804c590 <__sfvwrite_r+0x290>
 804c4b6:	89 44 24 0c          	mov    %eax,0xc(%esp)
 804c4ba:	8b 45 e0             	mov    -0x20(%ebp),%eax
 804c4bd:	89 44 24 08          	mov    %eax,0x8(%esp)
 804c4c1:	8b 43 1c             	mov    0x1c(%ebx),%eax
 804c4c4:	89 44 24 04          	mov    %eax,0x4(%esp)
 804c4c8:	8b 45 08             	mov    0x8(%ebp),%eax
 804c4cb:	89 04 24             	mov    %eax,(%esp)
 804c4ce:	ff 53 24             	call   *0x24(%ebx)
 804c4d1:	85 c0                	test   %eax,%eax
 804c4d3:	89 c6                	mov    %eax,%esi
 804c4d5:	0f 8e 9d 00 00 00    	jle    804c578 <__sfvwrite_r+0x278>
 804c4db:	29 75 d8             	sub    %esi,-0x28(%ebp)
 804c4de:	0f 84 cd 00 00 00    	je     804c5b1 <__sfvwrite_r+0x2b1>
 804c4e4:	8b 45 10             	mov    0x10(%ebp),%eax
 804c4e7:	29 f7                	sub    %esi,%edi
 804c4e9:	8b 55 10             	mov    0x10(%ebp),%edx
 804c4ec:	01 75 e0             	add    %esi,-0x20(%ebp)
 804c4ef:	8b 40 08             	mov    0x8(%eax),%eax
 804c4f2:	29 f0                	sub    %esi,%eax
 804c4f4:	85 c0                	test   %eax,%eax
 804c4f6:	89 42 08             	mov    %eax,0x8(%edx)
 804c4f9:	0f 84 95 fe ff ff    	je     804c394 <__sfvwrite_r+0x94>
 804c4ff:	85 ff                	test   %edi,%edi
 804c501:	75 81                	jne    804c484 <__sfvwrite_r+0x184>
 804c503:	8b 45 e4             	mov    -0x1c(%ebp),%eax
 804c506:	c7 45 dc 00 00 00 00 	movl   $0x0,-0x24(%ebp)
 804c50d:	83 45 e4 08          	addl   $0x8,-0x1c(%ebp)
 804c511:	8b 08                	mov    (%eax),%ecx
 804c513:	8b 78 04             	mov    0x4(%eax),%edi
 804c516:	89 4d e0             	mov    %ecx,-0x20(%ebp)
 804c519:	e9 62 ff ff ff       	jmp    804c480 <__sfvwrite_r+0x180>
 804c51e:	66 90                	xchg   %ax,%ax
 804c520:	8b 03                	mov    (%ebx),%eax
 804c522:	3b 43 10             	cmp    0x10(%ebx),%eax
 804c525:	77 0b                	ja     804c532 <__sfvwrite_r+0x232>
 804c527:	8b 4b 14             	mov    0x14(%ebx),%ecx
 804c52a:	39 cf                	cmp    %ecx,%edi
 804c52c:	0f 83 86 01 00 00    	jae    804c6b8 <__sfvwrite_r+0x3b8>
 804c532:	8b 55 e0             	mov    -0x20(%ebp),%edx
 804c535:	39 f7                	cmp    %esi,%edi
 804c537:	0f 46 f7             	cmovbe %edi,%esi
 804c53a:	89 74 24 08          	mov    %esi,0x8(%esp)
 804c53e:	89 04 24             	mov    %eax,(%esp)
 804c541:	89 54 24 04          	mov    %edx,0x4(%esp)
 804c545:	e8 f6 0d 00 00       	call   804d340 <memmove>
 804c54a:	8b 43 08             	mov    0x8(%ebx),%eax
 804c54d:	01 33                	add    %esi,(%ebx)
 804c54f:	29 f0                	sub    %esi,%eax
 804c551:	85 c0                	test   %eax,%eax
 804c553:	89 43 08             	mov    %eax,0x8(%ebx)
 804c556:	0f 85 ca fe ff ff    	jne    804c426 <__sfvwrite_r+0x126>
 804c55c:	8b 45 08             	mov    0x8(%ebp),%eax
 804c55f:	89 5c 24 04          	mov    %ebx,0x4(%esp)
 804c563:	89 04 24             	mov    %eax,(%esp)
 804c566:	e8 75 f5 ff ff       	call   804bae0 <_fflush_r>
 804c56b:	85 c0                	test   %eax,%eax
 804c56d:	0f 84 b3 fe ff ff    	je     804c426 <__sfvwrite_r+0x126>
 804c573:	90                   	nop
 804c574:	8d 74 26 00          	lea    0x0(%esi,%eiz,1),%esi
 804c578:	0f b7 43 0c          	movzwl 0xc(%ebx),%eax
 804c57c:	83 c8 40             	or     $0x40,%eax
 804c57f:	66 89 43 0c          	mov    %ax,0xc(%ebx)
 804c583:	83 c4 3c             	add    $0x3c,%esp
 804c586:	b8 ff ff ff ff       	mov    $0xffffffff,%eax
 804c58b:	5b                   	pop    %ebx
 804c58c:	5e                   	pop    %esi
 804c58d:	5f                   	pop    %edi
 804c58e:	5d                   	pop    %ebp
 804c58f:	c3                   	ret    
 804c590:	8b 45 e0             	mov    -0x20(%ebp),%eax
 804c593:	89 74 24 08          	mov    %esi,0x8(%esp)
 804c597:	89 0c 24             	mov    %ecx,(%esp)
 804c59a:	89 44 24 04          	mov    %eax,0x4(%esp)
 804c59e:	e8 9d 0d 00 00       	call   804d340 <memmove>
 804c5a3:	29 73 08             	sub    %esi,0x8(%ebx)
 804c5a6:	01 33                	add    %esi,(%ebx)
 804c5a8:	29 75 d8             	sub    %esi,-0x28(%ebp)
 804c5ab:	0f 85 33 ff ff ff    	jne    804c4e4 <__sfvwrite_r+0x1e4>
 804c5b1:	8b 45 08             	mov    0x8(%ebp),%eax
 804c5b4:	89 5c 24 04          	mov    %ebx,0x4(%esp)
 804c5b8:	89 04 24             	mov    %eax,(%esp)
 804c5bb:	e8 20 f5 ff ff       	call   804bae0 <_fflush_r>
 804c5c0:	85 c0                	test   %eax,%eax
 804c5c2:	75 b4                	jne    804c578 <__sfvwrite_r+0x278>
 804c5c4:	c7 45 dc 00 00 00 00 	movl   $0x0,-0x24(%ebp)
 804c5cb:	e9 14 ff ff ff       	jmp    804c4e4 <__sfvwrite_r+0x1e4>
 804c5d0:	89 fe                	mov    %edi,%esi
 804c5d2:	8b 03                	mov    (%ebx),%eax
 804c5d4:	89 fa                	mov    %edi,%edx
 804c5d6:	e9 2b fe ff ff       	jmp    804c406 <__sfvwrite_r+0x106>
 804c5db:	90                   	nop
 804c5dc:	8d 74 26 00          	lea    0x0(%esi,%eiz,1),%esi
 804c5e0:	8b 75 e0             	mov    -0x20(%ebp),%esi
 804c5e3:	89 7c 24 08          	mov    %edi,0x8(%esp)
 804c5e7:	c7 44 24 04 0a 00 00 	movl   $0xa,0x4(%esp)
 804c5ee:	00 
 804c5ef:	89 34 24             	mov    %esi,(%esp)
 804c5f2:	e8 69 0c 00 00       	call   804d260 <memchr>
 804c5f7:	85 c0                	test   %eax,%eax
 804c5f9:	0f 84 91 01 00 00    	je     804c790 <__sfvwrite_r+0x490>
 804c5ff:	83 c0 01             	add    $0x1,%eax
 804c602:	89 45 d8             	mov    %eax,-0x28(%ebp)
 804c605:	c7 45 dc 01 00 00 00 	movl   $0x1,-0x24(%ebp)
 804c60c:	29 75 d8             	sub    %esi,-0x28(%ebp)
 804c60f:	e9 7b fe ff ff       	jmp    804c48f <__sfvwrite_r+0x18f>
 804c614:	8d 74 26 00          	lea    0x0(%esi,%eiz,1),%esi
 804c618:	8b 53 14             	mov    0x14(%ebx),%edx
 804c61b:	8b 0b                	mov    (%ebx),%ecx
 804c61d:	8b 73 10             	mov    0x10(%ebx),%esi
 804c620:	8d 14 52             	lea    (%edx,%edx,2),%edx
 804c623:	89 4d dc             	mov    %ecx,-0x24(%ebp)
 804c626:	89 d1                	mov    %edx,%ecx
 804c628:	c1 e9 1f             	shr    $0x1f,%ecx
 804c62b:	29 75 dc             	sub    %esi,-0x24(%ebp)
 804c62e:	01 ca                	add    %ecx,%edx
 804c630:	8b 4d dc             	mov    -0x24(%ebp),%ecx
 804c633:	d1 fa                	sar    %edx
 804c635:	8d 4c 0f 01          	lea    0x1(%edi,%ecx,1),%ecx
 804c639:	39 ca                	cmp    %ecx,%edx
 804c63b:	0f 83 f7 00 00 00    	jae    804c738 <__sfvwrite_r+0x438>
 804c641:	89 ca                	mov    %ecx,%edx
 804c643:	f6 c4 04             	test   $0x4,%ah
 804c646:	89 55 d8             	mov    %edx,-0x28(%ebp)
 804c649:	0f 84 f7 00 00 00    	je     804c746 <__sfvwrite_r+0x446>
 804c64f:	8b 45 08             	mov    0x8(%ebp),%eax
 804c652:	89 4c 24 04          	mov    %ecx,0x4(%esp)
 804c656:	89 04 24             	mov    %eax,(%esp)
 804c659:	e8 c2 04 00 00       	call   804cb20 <_malloc_r>
 804c65e:	8b 55 d8             	mov    -0x28(%ebp),%edx
 804c661:	85 c0                	test   %eax,%eax
 804c663:	89 c6                	mov    %eax,%esi
 804c665:	0f 84 4e 01 00 00    	je     804c7b9 <__sfvwrite_r+0x4b9>
 804c66b:	8b 45 dc             	mov    -0x24(%ebp),%eax
 804c66e:	89 55 d8             	mov    %edx,-0x28(%ebp)
 804c671:	89 44 24 08          	mov    %eax,0x8(%esp)
 804c675:	8b 43 10             	mov    0x10(%ebx),%eax
 804c678:	89 34 24             	mov    %esi,(%esp)
 804c67b:	89 44 24 04          	mov    %eax,0x4(%esp)
 804c67f:	e8 74 0c 00 00       	call   804d2f8 <memcpy>
 804c684:	0f b7 43 0c          	movzwl 0xc(%ebx),%eax
 804c688:	8b 55 d8             	mov    -0x28(%ebp),%edx
 804c68b:	66 25 7f fb          	and    $0xfb7f,%ax
 804c68f:	0c 80                	or     $0x80,%al
 804c691:	66 89 43 0c          	mov    %ax,0xc(%ebx)
 804c695:	8b 4d dc             	mov    -0x24(%ebp),%ecx
 804c698:	89 53 14             	mov    %edx,0x14(%ebx)
 804c69b:	89 73 10             	mov    %esi,0x10(%ebx)
 804c69e:	89 c8                	mov    %ecx,%eax
 804c6a0:	29 ca                	sub    %ecx,%edx
 804c6a2:	01 f0                	add    %esi,%eax
 804c6a4:	89 fe                	mov    %edi,%esi
 804c6a6:	89 53 08             	mov    %edx,0x8(%ebx)
 804c6a9:	89 fa                	mov    %edi,%edx
 804c6ab:	89 03                	mov    %eax,(%ebx)
 804c6ad:	e9 54 fd ff ff       	jmp    804c406 <__sfvwrite_r+0x106>
 804c6b2:	8d b6 00 00 00 00    	lea    0x0(%esi),%esi
 804c6b8:	81 ff ff ff ff 7f    	cmp    $0x7fffffff,%edi
 804c6be:	b8 ff ff ff 7f       	mov    $0x7fffffff,%eax
 804c6c3:	0f 46 c7             	cmovbe %edi,%eax
 804c6c6:	99                   	cltd   
 804c6c7:	f7 f9                	idiv   %ecx
 804c6c9:	0f af c1             	imul   %ecx,%eax
 804c6cc:	89 44 24 0c          	mov    %eax,0xc(%esp)
 804c6d0:	8b 45 e0             	mov    -0x20(%ebp),%eax
 804c6d3:	89 44 24 08          	mov    %eax,0x8(%esp)
 804c6d7:	8b 43 1c             	mov    0x1c(%ebx),%eax
 804c6da:	89 44 24 04          	mov    %eax,0x4(%esp)
 804c6de:	8b 45 08             	mov    0x8(%ebp),%eax
 804c6e1:	89 04 24             	mov    %eax,(%esp)
 804c6e4:	ff 53 24             	call   *0x24(%ebx)
 804c6e7:	85 c0                	test   %eax,%eax
 804c6e9:	0f 8e 89 fe ff ff    	jle    804c578 <__sfvwrite_r+0x278>
 804c6ef:	89 c6                	mov    %eax,%esi
 804c6f1:	e9 30 fd ff ff       	jmp    804c426 <__sfvwrite_r+0x126>
 804c6f6:	66 90                	xchg   %ax,%ax
 804c6f8:	8b 45 e0             	mov    -0x20(%ebp),%eax
 804c6fb:	89 54 24 08          	mov    %edx,0x8(%esp)
 804c6ff:	89 0c 24             	mov    %ecx,(%esp)
 804c702:	89 55 d4             	mov    %edx,-0x2c(%ebp)
 804c705:	89 44 24 04          	mov    %eax,0x4(%esp)
 804c709:	e8 32 0c 00 00       	call   804d340 <memmove>
 804c70e:	8b 55 d4             	mov    -0x2c(%ebp),%edx
 804c711:	8b 45 08             	mov    0x8(%ebp),%eax
 804c714:	01 13                	add    %edx,(%ebx)
 804c716:	89 5c 24 04          	mov    %ebx,0x4(%esp)
 804c71a:	89 04 24             	mov    %eax,(%esp)
 804c71d:	e8 be f3 ff ff       	call   804bae0 <_fflush_r>
 804c722:	8b 55 d4             	mov    -0x2c(%ebp),%edx
 804c725:	85 c0                	test   %eax,%eax
 804c727:	0f 85 4b fe ff ff    	jne    804c578 <__sfvwrite_r+0x278>
 804c72d:	89 d6                	mov    %edx,%esi
 804c72f:	e9 a7 fd ff ff       	jmp    804c4db <__sfvwrite_r+0x1db>
 804c734:	8d 74 26 00          	lea    0x0(%esi,%eiz,1),%esi
 804c738:	f6 c4 04             	test   $0x4,%ah
 804c73b:	89 d1                	mov    %edx,%ecx
 804c73d:	89 55 d8             	mov    %edx,-0x28(%ebp)
 804c740:	0f 85 09 ff ff ff    	jne    804c64f <__sfvwrite_r+0x34f>
 804c746:	8b 45 08             	mov    0x8(%ebp),%eax
 804c749:	89 74 24 04          	mov    %esi,0x4(%esp)
 804c74d:	89 4c 24 08          	mov    %ecx,0x8(%esp)
 804c751:	89 04 24             	mov    %eax,(%esp)
 804c754:	e8 07 1b 00 00       	call   804e260 <_realloc_r>
 804c759:	8b 55 d8             	mov    -0x28(%ebp),%edx
 804c75c:	85 c0                	test   %eax,%eax
 804c75e:	89 c6                	mov    %eax,%esi
 804c760:	0f 85 2f ff ff ff    	jne    804c695 <__sfvwrite_r+0x395>
 804c766:	8b 43 10             	mov    0x10(%ebx),%eax
 804c769:	89 44 24 04          	mov    %eax,0x4(%esp)
 804c76d:	8b 45 08             	mov    0x8(%ebp),%eax
 804c770:	89 04 24             	mov    %eax,(%esp)
 804c773:	e8 28 f9 ff ff       	call   804c0a0 <_free_r>
 804c778:	0f b7 43 0c          	movzwl 0xc(%ebx),%eax
 804c77c:	8b 7d 08             	mov    0x8(%ebp),%edi
 804c77f:	24 7f                	and    $0x7f,%al
 804c781:	c7 07 0c 00 00 00    	movl   $0xc,(%edi)
 804c787:	e9 f0 fd ff ff       	jmp    804c57c <__sfvwrite_r+0x27c>
 804c78c:	8d 74 26 00          	lea    0x0(%esi,%eiz,1),%esi
 804c790:	8d 47 01             	lea    0x1(%edi),%eax
 804c793:	89 45 d8             	mov    %eax,-0x28(%ebp)
 804c796:	c7 45 dc 01 00 00 00 	movl   $0x1,-0x24(%ebp)
 804c79d:	e9 ed fc ff ff       	jmp    804c48f <__sfvwrite_r+0x18f>
 804c7a2:	8d b6 00 00 00 00    	lea    0x0(%esi),%esi
 804c7a8:	89 fb                	mov    %edi,%ebx
 804c7aa:	e9 c9 fd ff ff       	jmp    804c578 <__sfvwrite_r+0x278>
 804c7af:	b8 ff ff ff ff       	mov    $0xffffffff,%eax
 804c7b4:	e9 dd fb ff ff       	jmp    804c396 <__sfvwrite_r+0x96>
 804c7b9:	8b 45 08             	mov    0x8(%ebp),%eax
 804c7bc:	c7 00 0c 00 00 00    	movl   $0xc,(%eax)
 804c7c2:	0f b7 43 0c          	movzwl 0xc(%ebx),%eax
 804c7c6:	e9 b1 fd ff ff       	jmp    804c57c <__sfvwrite_r+0x27c>
 804c7cb:	66 90                	xchg   %ax,%ax
 804c7cd:	66 90                	xchg   %ax,%ax
 804c7cf:	90                   	nop

0804c7d0 <_fwalk>:
 804c7d0:	55                   	push   %ebp
 804c7d1:	89 e5                	mov    %esp,%ebp
 804c7d3:	57                   	push   %edi
 804c7d4:	56                   	push   %esi
 804c7d5:	53                   	push   %ebx
 804c7d6:	83 ec 1c             	sub    $0x1c,%esp
 804c7d9:	8b 75 08             	mov    0x8(%ebp),%esi
 804c7dc:	c7 45 e4 00 00 00 00 	movl   $0x0,-0x1c(%ebp)
 804c7e3:	81 c6 e0 02 00 00    	add    $0x2e0,%esi
 804c7e9:	74 3d                	je     804c828 <_fwalk+0x58>
 804c7eb:	90                   	nop
 804c7ec:	8d 74 26 00          	lea    0x0(%esi,%eiz,1),%esi
 804c7f0:	8b 7e 04             	mov    0x4(%esi),%edi
 804c7f3:	8b 5e 08             	mov    0x8(%esi),%ebx
 804c7f6:	83 ef 01             	sub    $0x1,%edi
 804c7f9:	78 27                	js     804c822 <_fwalk+0x52>
 804c7fb:	90                   	nop
 804c7fc:	8d 74 26 00          	lea    0x0(%esi,%eiz,1),%esi
 804c800:	66 83 7b 0c 01       	cmpw   $0x1,0xc(%ebx)
 804c805:	76 10                	jbe    804c817 <_fwalk+0x47>
 804c807:	66 83 7b 0e ff       	cmpw   $0xffff,0xe(%ebx)
 804c80c:	74 09                	je     804c817 <_fwalk+0x47>
 804c80e:	89 1c 24             	mov    %ebx,(%esp)
 804c811:	ff 55 0c             	call   *0xc(%ebp)
 804c814:	09 45 e4             	or     %eax,-0x1c(%ebp)
 804c817:	83 ef 01             	sub    $0x1,%edi
 804c81a:	83 c3 68             	add    $0x68,%ebx
 804c81d:	83 ff ff             	cmp    $0xffffffff,%edi
 804c820:	75 de                	jne    804c800 <_fwalk+0x30>
 804c822:	8b 36                	mov    (%esi),%esi
 804c824:	85 f6                	test   %esi,%esi
 804c826:	75 c8                	jne    804c7f0 <_fwalk+0x20>
 804c828:	8b 45 e4             	mov    -0x1c(%ebp),%eax
 804c82b:	83 c4 1c             	add    $0x1c,%esp
 804c82e:	5b                   	pop    %ebx
 804c82f:	5e                   	pop    %esi
 804c830:	5f                   	pop    %edi
 804c831:	5d                   	pop    %ebp
 804c832:	c3                   	ret    
 804c833:	8d b6 00 00 00 00    	lea    0x0(%esi),%esi
 804c839:	8d bc 27 00 00 00 00 	lea    0x0(%edi,%eiz,1),%edi

0804c840 <_fwalk_reent>:
 804c840:	55                   	push   %ebp
 804c841:	89 e5                	mov    %esp,%ebp
 804c843:	57                   	push   %edi
 804c844:	56                   	push   %esi
 804c845:	53                   	push   %ebx
 804c846:	83 ec 1c             	sub    $0x1c,%esp
 804c849:	8b 7d 08             	mov    0x8(%ebp),%edi
 804c84c:	c7 45 e4 00 00 00 00 	movl   $0x0,-0x1c(%ebp)
 804c853:	81 c7 e0 02 00 00    	add    $0x2e0,%edi
 804c859:	74 4c                	je     804c8a7 <_fwalk_reent+0x67>
 804c85b:	90                   	nop
 804c85c:	8d 74 26 00          	lea    0x0(%esi,%eiz,1),%esi
 804c860:	8b 77 04             	mov    0x4(%edi),%esi
 804c863:	8b 5f 08             	mov    0x8(%edi),%ebx
 804c866:	83 ee 01             	sub    $0x1,%esi
 804c869:	78 36                	js     804c8a1 <_fwalk_reent+0x61>
 804c86b:	89 d8                	mov    %ebx,%eax
 804c86d:	89 f3                	mov    %esi,%ebx
 804c86f:	89 c6                	mov    %eax,%esi
 804c871:	8d b4 26 00 00 00 00 	lea    0x0(%esi,%eiz,1),%esi
 804c878:	66 83 7e 0c 01       	cmpw   $0x1,0xc(%esi)
 804c87d:	76 17                	jbe    804c896 <_fwalk_reent+0x56>
 804c87f:	66 83 7e 0e ff       	cmpw   $0xffff,0xe(%esi)
 804c884:	74 10                	je     804c896 <_fwalk_reent+0x56>
 804c886:	8b 45 08             	mov    0x8(%ebp),%eax
 804c889:	89 74 24 04          	mov    %esi,0x4(%esp)
 804c88d:	89 04 24             	mov    %eax,(%esp)
 804c890:	ff 55 0c             	call   *0xc(%ebp)
 804c893:	09 45 e4             	or     %eax,-0x1c(%ebp)
 804c896:	83 eb 01             	sub    $0x1,%ebx
 804c899:	83 c6 68             	add    $0x68,%esi
 804c89c:	83 fb ff             	cmp    $0xffffffff,%ebx
 804c89f:	75 d7                	jne    804c878 <_fwalk_reent+0x38>
 804c8a1:	8b 3f                	mov    (%edi),%edi
 804c8a3:	85 ff                	test   %edi,%edi
 804c8a5:	75 b9                	jne    804c860 <_fwalk_reent+0x20>
 804c8a7:	8b 45 e4             	mov    -0x1c(%ebp),%eax
 804c8aa:	83 c4 1c             	add    $0x1c,%esp
 804c8ad:	5b                   	pop    %ebx
 804c8ae:	5e                   	pop    %esi
 804c8af:	5f                   	pop    %edi
 804c8b0:	5d                   	pop    %ebp
 804c8b1:	c3                   	ret    
 804c8b2:	66 90                	xchg   %ax,%ax
 804c8b4:	66 90                	xchg   %ax,%ax
 804c8b6:	66 90                	xchg   %ax,%ax
 804c8b8:	66 90                	xchg   %ax,%ax
 804c8ba:	66 90                	xchg   %ax,%ax
 804c8bc:	66 90                	xchg   %ax,%ax
 804c8be:	66 90                	xchg   %ax,%ax

0804c8c0 <__getreent>:
 804c8c0:	55                   	push   %ebp
 804c8c1:	a1 00 20 05 08       	mov    0x8052000,%eax
 804c8c6:	89 e5                	mov    %esp,%ebp
 804c8c8:	5d                   	pop    %ebp
 804c8c9:	c3                   	ret    
 804c8ca:	66 90                	xchg   %ax,%ax
 804c8cc:	66 90                	xchg   %ax,%ax
 804c8ce:	66 90                	xchg   %ax,%ax

0804c8d0 <_setlocale_r>:
 804c8d0:	55                   	push   %ebp
 804c8d1:	89 e5                	mov    %esp,%ebp
 804c8d3:	53                   	push   %ebx
 804c8d4:	83 ec 14             	sub    $0x14,%esp
 804c8d7:	8b 5d 10             	mov    0x10(%ebp),%ebx
 804c8da:	85 db                	test   %ebx,%ebx
 804c8dc:	74 14                	je     804c8f2 <_setlocale_r+0x22>
 804c8de:	c7 44 24 04 86 07 05 	movl   $0x8050786,0x4(%esp)
 804c8e5:	08 
 804c8e6:	89 1c 24             	mov    %ebx,(%esp)
 804c8e9:	e8 02 21 00 00       	call   804e9f0 <strcmp>
 804c8ee:	85 c0                	test   %eax,%eax
 804c8f0:	75 0e                	jne    804c900 <_setlocale_r+0x30>
 804c8f2:	83 c4 14             	add    $0x14,%esp
 804c8f5:	b8 84 07 05 08       	mov    $0x8050784,%eax
 804c8fa:	5b                   	pop    %ebx
 804c8fb:	5d                   	pop    %ebp
 804c8fc:	c3                   	ret    
 804c8fd:	8d 76 00             	lea    0x0(%esi),%esi
 804c900:	c7 44 24 04 84 07 05 	movl   $0x8050784,0x4(%esp)
 804c907:	08 
 804c908:	89 1c 24             	mov    %ebx,(%esp)
 804c90b:	e8 e0 20 00 00       	call   804e9f0 <strcmp>
 804c910:	85 c0                	test   %eax,%eax
 804c912:	74 de                	je     804c8f2 <_setlocale_r+0x22>
 804c914:	89 1c 24             	mov    %ebx,(%esp)
 804c917:	c7 44 24 04 7c 05 05 	movl   $0x805057c,0x4(%esp)
 804c91e:	08 
 804c91f:	e8 cc 20 00 00       	call   804e9f0 <strcmp>
 804c924:	89 c2                	mov    %eax,%edx
 804c926:	31 c0                	xor    %eax,%eax
 804c928:	85 d2                	test   %edx,%edx
 804c92a:	ba 84 07 05 08       	mov    $0x8050784,%edx
 804c92f:	0f 44 c2             	cmove  %edx,%eax
 804c932:	83 c4 14             	add    $0x14,%esp
 804c935:	5b                   	pop    %ebx
 804c936:	5d                   	pop    %ebp
 804c937:	c3                   	ret    
 804c938:	90                   	nop
 804c939:	8d b4 26 00 00 00 00 	lea    0x0(%esi,%eiz,1),%esi

0804c940 <__locale_charset>:
 804c940:	55                   	push   %ebp
 804c941:	b8 80 24 05 08       	mov    $0x8052480,%eax
 804c946:	89 e5                	mov    %esp,%ebp
 804c948:	5d                   	pop    %ebp
 804c949:	c3                   	ret    
 804c94a:	8d b6 00 00 00 00    	lea    0x0(%esi),%esi

0804c950 <__locale_mb_cur_max>:
 804c950:	55                   	push   %ebp
 804c951:	a1 d8 24 05 08       	mov    0x80524d8,%eax
 804c956:	89 e5                	mov    %esp,%ebp
 804c958:	5d                   	pop    %ebp
 804c959:	c3                   	ret    
 804c95a:	8d b6 00 00 00 00    	lea    0x0(%esi),%esi

0804c960 <__locale_msgcharset>:
 804c960:	55                   	push   %ebp
 804c961:	b8 60 24 05 08       	mov    $0x8052460,%eax
 804c966:	89 e5                	mov    %esp,%ebp
 804c968:	5d                   	pop    %ebp
 804c969:	c3                   	ret    
 804c96a:	8d b6 00 00 00 00    	lea    0x0(%esi),%esi

0804c970 <__locale_cjk_lang>:
 804c970:	55                   	push   %ebp
 804c971:	31 c0                	xor    %eax,%eax
 804c973:	89 e5                	mov    %esp,%ebp
 804c975:	5d                   	pop    %ebp
 804c976:	c3                   	ret    
 804c977:	89 f6                	mov    %esi,%esi
 804c979:	8d bc 27 00 00 00 00 	lea    0x0(%edi,%eiz,1),%edi

0804c980 <_localeconv_r>:
 804c980:	55                   	push   %ebp
 804c981:	b8 a0 24 05 08       	mov    $0x80524a0,%eax
 804c986:	89 e5                	mov    %esp,%ebp
 804c988:	5d                   	pop    %ebp
 804c989:	c3                   	ret    
 804c98a:	8d b6 00 00 00 00    	lea    0x0(%esi),%esi

0804c990 <setlocale>:
 804c990:	55                   	push   %ebp
 804c991:	89 e5                	mov    %esp,%ebp
 804c993:	83 ec 18             	sub    $0x18,%esp
 804c996:	e8 25 ff ff ff       	call   804c8c0 <__getreent>
 804c99b:	8b 55 0c             	mov    0xc(%ebp),%edx
 804c99e:	89 54 24 08          	mov    %edx,0x8(%esp)
 804c9a2:	8b 55 08             	mov    0x8(%ebp),%edx
 804c9a5:	89 04 24             	mov    %eax,(%esp)
 804c9a8:	89 54 24 04          	mov    %edx,0x4(%esp)
 804c9ac:	e8 1f ff ff ff       	call   804c8d0 <_setlocale_r>
 804c9b1:	c9                   	leave  
 804c9b2:	c3                   	ret    
 804c9b3:	8d b6 00 00 00 00    	lea    0x0(%esi),%esi
 804c9b9:	8d bc 27 00 00 00 00 	lea    0x0(%edi,%eiz,1),%edi

0804c9c0 <localeconv>:
 804c9c0:	55                   	push   %ebp
 804c9c1:	89 e5                	mov    %esp,%ebp
 804c9c3:	83 ec 08             	sub    $0x8,%esp
 804c9c6:	e8 f5 fe ff ff       	call   804c8c0 <__getreent>
 804c9cb:	b8 a0 24 05 08       	mov    $0x80524a0,%eax
 804c9d0:	c9                   	leave  
 804c9d1:	c3                   	ret    
 804c9d2:	66 90                	xchg   %ax,%ax
 804c9d4:	66 90                	xchg   %ax,%ax
 804c9d6:	66 90                	xchg   %ax,%ax
 804c9d8:	66 90                	xchg   %ax,%ax
 804c9da:	66 90                	xchg   %ax,%ax
 804c9dc:	66 90                	xchg   %ax,%ax
 804c9de:	66 90                	xchg   %ax,%ax

0804c9e0 <__smakebuf_r>:
 804c9e0:	55                   	push   %ebp
 804c9e1:	89 e5                	mov    %esp,%ebp
 804c9e3:	57                   	push   %edi
 804c9e4:	56                   	push   %esi
 804c9e5:	53                   	push   %ebx
 804c9e6:	83 ec 5c             	sub    $0x5c,%esp
 804c9e9:	8b 5d 0c             	mov    0xc(%ebp),%ebx
 804c9ec:	0f b7 43 0c          	movzwl 0xc(%ebx),%eax
 804c9f0:	a8 02                	test   $0x2,%al
 804c9f2:	0f 85 c0 00 00 00    	jne    804cab8 <__smakebuf_r+0xd8>
 804c9f8:	0f bf 53 0e          	movswl 0xe(%ebx),%edx
 804c9fc:	66 85 d2             	test   %dx,%dx
 804c9ff:	78 4b                	js     804ca4c <__smakebuf_r+0x6c>
 804ca01:	8d 45 ac             	lea    -0x54(%ebp),%eax
 804ca04:	89 44 24 08          	mov    %eax,0x8(%esp)
 804ca08:	8b 45 08             	mov    0x8(%ebp),%eax
 804ca0b:	89 54 24 04          	mov    %edx,0x4(%esp)
 804ca0f:	89 04 24             	mov    %eax,(%esp)
 804ca12:	e8 e9 35 00 00       	call   8050000 <_fstat_r>
 804ca17:	85 c0                	test   %eax,%eax
 804ca19:	78 2d                	js     804ca48 <__smakebuf_r+0x68>
 804ca1b:	8b 45 b0             	mov    -0x50(%ebp),%eax
 804ca1e:	31 c9                	xor    %ecx,%ecx
 804ca20:	25 00 f0 00 00       	and    $0xf000,%eax
 804ca25:	3d 00 20 00 00       	cmp    $0x2000,%eax
 804ca2a:	0f 94 c1             	sete   %cl
 804ca2d:	3d 00 80 00 00       	cmp    $0x8000,%eax
 804ca32:	89 cf                	mov    %ecx,%edi
 804ca34:	0f 84 96 00 00 00    	je     804cad0 <__smakebuf_r+0xf0>
 804ca3a:	66 81 4b 0c 00 08    	orw    $0x800,0xc(%ebx)
 804ca40:	be 00 04 00 00       	mov    $0x400,%esi
 804ca45:	eb 24                	jmp    804ca6b <__smakebuf_r+0x8b>
 804ca47:	90                   	nop
 804ca48:	0f b7 43 0c          	movzwl 0xc(%ebx),%eax
 804ca4c:	89 c2                	mov    %eax,%edx
 804ca4e:	66 81 e2 80 00       	and    $0x80,%dx
 804ca53:	66 83 fa 01          	cmp    $0x1,%dx
 804ca57:	19 f6                	sbb    %esi,%esi
 804ca59:	80 cc 08             	or     $0x8,%ah
 804ca5c:	81 e6 c0 03 00 00    	and    $0x3c0,%esi
 804ca62:	31 ff                	xor    %edi,%edi
 804ca64:	83 c6 40             	add    $0x40,%esi
 804ca67:	66 89 43 0c          	mov    %ax,0xc(%ebx)
 804ca6b:	8b 45 08             	mov    0x8(%ebp),%eax
 804ca6e:	89 74 24 04          	mov    %esi,0x4(%esp)
 804ca72:	89 04 24             	mov    %eax,(%esp)
 804ca75:	e8 a6 00 00 00       	call   804cb20 <_malloc_r>
 804ca7a:	85 c0                	test   %eax,%eax
 804ca7c:	74 2a                	je     804caa8 <__smakebuf_r+0xc8>
 804ca7e:	8b 4d 08             	mov    0x8(%ebp),%ecx
 804ca81:	c7 41 3c b0 bb 04 08 	movl   $0x804bbb0,0x3c(%ecx)
 804ca88:	66 81 4b 0c 80 00    	orw    $0x80,0xc(%ebx)
 804ca8e:	85 ff                	test   %edi,%edi
 804ca90:	89 03                	mov    %eax,(%ebx)
 804ca92:	89 43 10             	mov    %eax,0x10(%ebx)
 804ca95:	89 73 14             	mov    %esi,0x14(%ebx)
 804ca98:	75 5e                	jne    804caf8 <__smakebuf_r+0x118>
 804ca9a:	83 c4 5c             	add    $0x5c,%esp
 804ca9d:	5b                   	pop    %ebx
 804ca9e:	5e                   	pop    %esi
 804ca9f:	5f                   	pop    %edi
 804caa0:	5d                   	pop    %ebp
 804caa1:	c3                   	ret    
 804caa2:	8d b6 00 00 00 00    	lea    0x0(%esi),%esi
 804caa8:	0f b7 43 0c          	movzwl 0xc(%ebx),%eax
 804caac:	f6 c4 02             	test   $0x2,%ah
 804caaf:	75 e9                	jne    804ca9a <__smakebuf_r+0xba>
 804cab1:	83 c8 02             	or     $0x2,%eax
 804cab4:	66 89 43 0c          	mov    %ax,0xc(%ebx)
 804cab8:	8d 43 43             	lea    0x43(%ebx),%eax
 804cabb:	89 03                	mov    %eax,(%ebx)
 804cabd:	89 43 10             	mov    %eax,0x10(%ebx)
 804cac0:	c7 43 14 01 00 00 00 	movl   $0x1,0x14(%ebx)
 804cac7:	83 c4 5c             	add    $0x5c,%esp
 804caca:	5b                   	pop    %ebx
 804cacb:	5e                   	pop    %esi
 804cacc:	5f                   	pop    %edi
 804cacd:	5d                   	pop    %ebp
 804cace:	c3                   	ret    
 804cacf:	90                   	nop
 804cad0:	81 7b 28 80 e9 04 08 	cmpl   $0x804e980,0x28(%ebx)
 804cad7:	0f 85 5d ff ff ff    	jne    804ca3a <__smakebuf_r+0x5a>
 804cadd:	66 81 4b 0c 00 04    	orw    $0x400,0xc(%ebx)
 804cae3:	be 00 04 00 00       	mov    $0x400,%esi
 804cae8:	c7 43 4c 00 04 00 00 	movl   $0x400,0x4c(%ebx)
 804caef:	e9 77 ff ff ff       	jmp    804ca6b <__smakebuf_r+0x8b>
 804caf4:	8d 74 26 00          	lea    0x0(%esi,%eiz,1),%esi
 804caf8:	0f bf 43 0e          	movswl 0xe(%ebx),%eax
 804cafc:	89 0c 24             	mov    %ecx,(%esp)
 804caff:	89 44 24 04          	mov    %eax,0x4(%esp)
 804cb03:	e8 48 35 00 00       	call   8050050 <_isatty_r>
 804cb08:	85 c0                	test   %eax,%eax
 804cb0a:	74 8e                	je     804ca9a <__smakebuf_r+0xba>
 804cb0c:	66 83 4b 0c 01       	orw    $0x1,0xc(%ebx)
 804cb11:	eb 87                	jmp    804ca9a <__smakebuf_r+0xba>
 804cb13:	66 90                	xchg   %ax,%ax
 804cb15:	66 90                	xchg   %ax,%ax
 804cb17:	66 90                	xchg   %ax,%ax
 804cb19:	66 90                	xchg   %ax,%ax
 804cb1b:	66 90                	xchg   %ax,%ax
 804cb1d:	66 90                	xchg   %ax,%ax
 804cb1f:	90                   	nop

0804cb20 <_malloc_r>:
 804cb20:	55                   	push   %ebp
 804cb21:	89 e5                	mov    %esp,%ebp
 804cb23:	57                   	push   %edi
 804cb24:	56                   	push   %esi
 804cb25:	53                   	push   %ebx
 804cb26:	83 ec 2c             	sub    $0x2c,%esp
 804cb29:	8b 45 0c             	mov    0xc(%ebp),%eax
 804cb2c:	8d 50 0b             	lea    0xb(%eax),%edx
 804cb2f:	83 fa 16             	cmp    $0x16,%edx
 804cb32:	76 6c                	jbe    804cba0 <_malloc_r+0x80>
 804cb34:	89 d7                	mov    %edx,%edi
 804cb36:	83 e7 f8             	and    $0xfffffff8,%edi
 804cb39:	89 fe                	mov    %edi,%esi
 804cb3b:	c1 ee 1f             	shr    $0x1f,%esi
 804cb3e:	39 c7                	cmp    %eax,%edi
 804cb40:	8b 45 08             	mov    0x8(%ebp),%eax
 804cb43:	89 f2                	mov    %esi,%edx
 804cb45:	72 67                	jb     804cbae <_malloc_r+0x8e>
 804cb47:	84 d2                	test   %dl,%dl
 804cb49:	75 63                	jne    804cbae <_malloc_r+0x8e>
 804cb4b:	89 04 24             	mov    %eax,(%esp)
 804cb4e:	e8 0d 09 00 00       	call   804d460 <__malloc_lock>
 804cb53:	81 ff f7 01 00 00    	cmp    $0x1f7,%edi
 804cb59:	77 65                	ja     804cbc0 <_malloc_r+0xa0>
 804cb5b:	89 fa                	mov    %edi,%edx
 804cb5d:	c1 ea 03             	shr    $0x3,%edx
 804cb60:	8d 04 d5 00 25 05 08 	lea    0x8052500(,%edx,8),%eax
 804cb67:	8b 58 0c             	mov    0xc(%eax),%ebx
 804cb6a:	39 c3                	cmp    %eax,%ebx
 804cb6c:	0f 84 3e 05 00 00    	je     804d0b0 <_malloc_r+0x590>
 804cb72:	8b 43 04             	mov    0x4(%ebx),%eax
 804cb75:	83 e0 fc             	and    $0xfffffffc,%eax
 804cb78:	8b 53 0c             	mov    0xc(%ebx),%edx
 804cb7b:	8b 4b 08             	mov    0x8(%ebx),%ecx
 804cb7e:	89 51 0c             	mov    %edx,0xc(%ecx)
 804cb81:	89 4a 08             	mov    %ecx,0x8(%edx)
 804cb84:	83 4c 03 04 01       	orl    $0x1,0x4(%ebx,%eax,1)
 804cb89:	8b 45 08             	mov    0x8(%ebp),%eax
 804cb8c:	89 04 24             	mov    %eax,(%esp)
 804cb8f:	e8 dc 08 00 00       	call   804d470 <__malloc_unlock>
 804cb94:	8d 43 08             	lea    0x8(%ebx),%eax
 804cb97:	83 c4 2c             	add    $0x2c,%esp
 804cb9a:	5b                   	pop    %ebx
 804cb9b:	5e                   	pop    %esi
 804cb9c:	5f                   	pop    %edi
 804cb9d:	5d                   	pop    %ebp
 804cb9e:	c3                   	ret    
 804cb9f:	90                   	nop
 804cba0:	bf 10 00 00 00       	mov    $0x10,%edi
 804cba5:	31 d2                	xor    %edx,%edx
 804cba7:	39 c7                	cmp    %eax,%edi
 804cba9:	8b 45 08             	mov    0x8(%ebp),%eax
 804cbac:	73 99                	jae    804cb47 <_malloc_r+0x27>
 804cbae:	c7 00 0c 00 00 00    	movl   $0xc,(%eax)
 804cbb4:	83 c4 2c             	add    $0x2c,%esp
 804cbb7:	31 c0                	xor    %eax,%eax
 804cbb9:	5b                   	pop    %ebx
 804cbba:	5e                   	pop    %esi
 804cbbb:	5f                   	pop    %edi
 804cbbc:	5d                   	pop    %ebp
 804cbbd:	c3                   	ret    
 804cbbe:	66 90                	xchg   %ax,%ax
 804cbc0:	89 fe                	mov    %edi,%esi
 804cbc2:	c1 ee 09             	shr    $0x9,%esi
 804cbc5:	85 f6                	test   %esi,%esi
 804cbc7:	0f 84 ab 01 00 00    	je     804cd78 <_malloc_r+0x258>
 804cbcd:	83 fe 04             	cmp    $0x4,%esi
 804cbd0:	0f 87 8a 03 00 00    	ja     804cf60 <_malloc_r+0x440>
 804cbd6:	89 fe                	mov    %edi,%esi
 804cbd8:	c1 ee 06             	shr    $0x6,%esi
 804cbdb:	83 c6 38             	add    $0x38,%esi
 804cbde:	8d 04 36             	lea    (%esi,%esi,1),%eax
 804cbe1:	8d 0c 85 00 25 05 08 	lea    0x8052500(,%eax,4),%ecx
 804cbe8:	8b 59 0c             	mov    0xc(%ecx),%ebx
 804cbeb:	39 d9                	cmp    %ebx,%ecx
 804cbed:	75 18                	jne    804cc07 <_malloc_r+0xe7>
 804cbef:	eb 28                	jmp    804cc19 <_malloc_r+0xf9>
 804cbf1:	8d b4 26 00 00 00 00 	lea    0x0(%esi,%eiz,1),%esi
 804cbf8:	85 d2                	test   %edx,%edx
 804cbfa:	0f 89 78 ff ff ff    	jns    804cb78 <_malloc_r+0x58>
 804cc00:	8b 5b 0c             	mov    0xc(%ebx),%ebx
 804cc03:	39 d9                	cmp    %ebx,%ecx
 804cc05:	74 12                	je     804cc19 <_malloc_r+0xf9>
 804cc07:	8b 43 04             	mov    0x4(%ebx),%eax
 804cc0a:	83 e0 fc             	and    $0xfffffffc,%eax
 804cc0d:	89 c2                	mov    %eax,%edx
 804cc0f:	29 fa                	sub    %edi,%edx
 804cc11:	83 fa 0f             	cmp    $0xf,%edx
 804cc14:	7e e2                	jle    804cbf8 <_malloc_r+0xd8>
 804cc16:	83 ee 01             	sub    $0x1,%esi
 804cc19:	8d 46 01             	lea    0x1(%esi),%eax
 804cc1c:	89 45 e4             	mov    %eax,-0x1c(%ebp)
 804cc1f:	8b 1d 10 25 05 08    	mov    0x8052510,%ebx
 804cc25:	a1 04 25 05 08       	mov    0x8052504,%eax
 804cc2a:	81 fb 08 25 05 08    	cmp    $0x8052508,%ebx
 804cc30:	74 6b                	je     804cc9d <_malloc_r+0x17d>
 804cc32:	8b 73 04             	mov    0x4(%ebx),%esi
 804cc35:	83 e6 fc             	and    $0xfffffffc,%esi
 804cc38:	89 f0                	mov    %esi,%eax
 804cc3a:	29 f8                	sub    %edi,%eax
 804cc3c:	83 f8 0f             	cmp    $0xf,%eax
 804cc3f:	0f 8f a3 03 00 00    	jg     804cfe8 <_malloc_r+0x4c8>
 804cc45:	85 c0                	test   %eax,%eax
 804cc47:	c7 05 14 25 05 08 08 	movl   $0x8052508,0x8052514
 804cc4e:	25 05 08 
 804cc51:	c7 05 10 25 05 08 08 	movl   $0x8052508,0x8052510
 804cc58:	25 05 08 
 804cc5b:	0f 89 27 01 00 00    	jns    804cd88 <_malloc_r+0x268>
 804cc61:	81 fe ff 01 00 00    	cmp    $0x1ff,%esi
 804cc67:	0f 87 1b 03 00 00    	ja     804cf88 <_malloc_r+0x468>
 804cc6d:	c1 ee 03             	shr    $0x3,%esi
 804cc70:	b8 01 00 00 00       	mov    $0x1,%eax
 804cc75:	89 f1                	mov    %esi,%ecx
 804cc77:	8d 14 f5 00 25 05 08 	lea    0x8052500(,%esi,8),%edx
 804cc7e:	c1 f9 02             	sar    $0x2,%ecx
 804cc81:	d3 e0                	shl    %cl,%eax
 804cc83:	8b 4a 08             	mov    0x8(%edx),%ecx
 804cc86:	0b 05 04 25 05 08    	or     0x8052504,%eax
 804cc8c:	89 53 0c             	mov    %edx,0xc(%ebx)
 804cc8f:	89 4b 08             	mov    %ecx,0x8(%ebx)
 804cc92:	a3 04 25 05 08       	mov    %eax,0x8052504
 804cc97:	89 5a 08             	mov    %ebx,0x8(%edx)
 804cc9a:	89 59 0c             	mov    %ebx,0xc(%ecx)
 804cc9d:	8b 4d e4             	mov    -0x1c(%ebp),%ecx
 804cca0:	be 01 00 00 00       	mov    $0x1,%esi
 804cca5:	c1 f9 02             	sar    $0x2,%ecx
 804cca8:	d3 e6                	shl    %cl,%esi
 804ccaa:	39 c6                	cmp    %eax,%esi
 804ccac:	0f 87 f6 00 00 00    	ja     804cda8 <_malloc_r+0x288>
 804ccb2:	85 f0                	test   %esi,%eax
 804ccb4:	0f 85 76 03 00 00    	jne    804d030 <_malloc_r+0x510>
 804ccba:	8b 55 e4             	mov    -0x1c(%ebp),%edx
 804ccbd:	01 f6                	add    %esi,%esi
 804ccbf:	83 e2 fc             	and    $0xfffffffc,%edx
 804ccc2:	85 f0                	test   %esi,%eax
 804ccc4:	8d 4a 04             	lea    0x4(%edx),%ecx
 804ccc7:	89 4d e4             	mov    %ecx,-0x1c(%ebp)
 804ccca:	0f 85 60 03 00 00    	jne    804d030 <_malloc_r+0x510>
 804ccd0:	89 ca                	mov    %ecx,%edx
 804ccd2:	8d b6 00 00 00 00    	lea    0x0(%esi),%esi
 804ccd8:	01 f6                	add    %esi,%esi
 804ccda:	83 c2 04             	add    $0x4,%edx
 804ccdd:	85 f0                	test   %esi,%eax
 804ccdf:	74 f7                	je     804ccd8 <_malloc_r+0x1b8>
 804cce1:	89 55 e4             	mov    %edx,-0x1c(%ebp)
 804cce4:	89 75 dc             	mov    %esi,-0x24(%ebp)
 804cce7:	8b 45 e4             	mov    -0x1c(%ebp),%eax
 804ccea:	8d 34 c5 00 25 05 08 	lea    0x8052500(,%eax,8),%esi
 804ccf1:	89 f1                	mov    %esi,%ecx
 804ccf3:	89 45 e0             	mov    %eax,-0x20(%ebp)
 804ccf6:	8b 59 0c             	mov    0xc(%ecx),%ebx
 804ccf9:	39 d9                	cmp    %ebx,%ecx
 804ccfb:	75 1e                	jne    804cd1b <_malloc_r+0x1fb>
 804ccfd:	e9 36 03 00 00       	jmp    804d038 <_malloc_r+0x518>
 804cd02:	8d b6 00 00 00 00    	lea    0x0(%esi),%esi
 804cd08:	85 d2                	test   %edx,%edx
 804cd0a:	0f 89 c0 03 00 00    	jns    804d0d0 <_malloc_r+0x5b0>
 804cd10:	8b 5b 0c             	mov    0xc(%ebx),%ebx
 804cd13:	39 d9                	cmp    %ebx,%ecx
 804cd15:	0f 84 1d 03 00 00    	je     804d038 <_malloc_r+0x518>
 804cd1b:	8b 43 04             	mov    0x4(%ebx),%eax
 804cd1e:	83 e0 fc             	and    $0xfffffffc,%eax
 804cd21:	89 c2                	mov    %eax,%edx
 804cd23:	29 fa                	sub    %edi,%edx
 804cd25:	83 fa 0f             	cmp    $0xf,%edx
 804cd28:	7e de                	jle    804cd08 <_malloc_r+0x1e8>
 804cd2a:	8b 4b 0c             	mov    0xc(%ebx),%ecx
 804cd2d:	8d 04 3b             	lea    (%ebx,%edi,1),%eax
 804cd30:	83 cf 01             	or     $0x1,%edi
 804cd33:	8b 73 08             	mov    0x8(%ebx),%esi
 804cd36:	89 7b 04             	mov    %edi,0x4(%ebx)
 804cd39:	89 4e 0c             	mov    %ecx,0xc(%esi)
 804cd3c:	89 71 08             	mov    %esi,0x8(%ecx)
 804cd3f:	89 d1                	mov    %edx,%ecx
 804cd41:	83 c9 01             	or     $0x1,%ecx
 804cd44:	a3 14 25 05 08       	mov    %eax,0x8052514
 804cd49:	a3 10 25 05 08       	mov    %eax,0x8052510
 804cd4e:	c7 40 0c 08 25 05 08 	movl   $0x8052508,0xc(%eax)
 804cd55:	c7 40 08 08 25 05 08 	movl   $0x8052508,0x8(%eax)
 804cd5c:	89 48 04             	mov    %ecx,0x4(%eax)
 804cd5f:	89 14 10             	mov    %edx,(%eax,%edx,1)
 804cd62:	8b 45 08             	mov    0x8(%ebp),%eax
 804cd65:	89 04 24             	mov    %eax,(%esp)
 804cd68:	e8 03 07 00 00       	call   804d470 <__malloc_unlock>
 804cd6d:	8d 43 08             	lea    0x8(%ebx),%eax
 804cd70:	e9 22 fe ff ff       	jmp    804cb97 <_malloc_r+0x77>
 804cd75:	8d 76 00             	lea    0x0(%esi),%esi
 804cd78:	b8 7e 00 00 00       	mov    $0x7e,%eax
 804cd7d:	be 3f 00 00 00       	mov    $0x3f,%esi
 804cd82:	e9 5a fe ff ff       	jmp    804cbe1 <_malloc_r+0xc1>
 804cd87:	90                   	nop
 804cd88:	8b 45 08             	mov    0x8(%ebp),%eax
 804cd8b:	83 4c 33 04 01       	orl    $0x1,0x4(%ebx,%esi,1)
 804cd90:	89 04 24             	mov    %eax,(%esp)
 804cd93:	e8 d8 06 00 00       	call   804d470 <__malloc_unlock>
 804cd98:	83 c4 2c             	add    $0x2c,%esp
 804cd9b:	8d 43 08             	lea    0x8(%ebx),%eax
 804cd9e:	5b                   	pop    %ebx
 804cd9f:	5e                   	pop    %esi
 804cda0:	5f                   	pop    %edi
 804cda1:	5d                   	pop    %ebp
 804cda2:	c3                   	ret    
 804cda3:	90                   	nop
 804cda4:	8d 74 26 00          	lea    0x0(%esi,%eiz,1),%esi
 804cda8:	8b 1d 08 25 05 08    	mov    0x8052508,%ebx
 804cdae:	8b 73 04             	mov    0x4(%ebx),%esi
 804cdb1:	83 e6 fc             	and    $0xfffffffc,%esi
 804cdb4:	39 f7                	cmp    %esi,%edi
 804cdb6:	77 0d                	ja     804cdc5 <_malloc_r+0x2a5>
 804cdb8:	89 f0                	mov    %esi,%eax
 804cdba:	29 f8                	sub    %edi,%eax
 804cdbc:	83 f8 0f             	cmp    $0xf,%eax
 804cdbf:	0f 8f 6b 01 00 00    	jg     804cf30 <_malloc_r+0x410>
 804cdc5:	8b 0d 70 29 05 08    	mov    0x8052970,%ecx
 804cdcb:	8d 04 33             	lea    (%ebx,%esi,1),%eax
 804cdce:	89 45 e4             	mov    %eax,-0x1c(%ebp)
 804cdd1:	01 f9                	add    %edi,%ecx
 804cdd3:	8d 81 0f 10 00 00    	lea    0x100f(%ecx),%eax
 804cdd9:	83 c1 10             	add    $0x10,%ecx
 804cddc:	25 00 f0 ff ff       	and    $0xfffff000,%eax
 804cde1:	83 3d e0 24 05 08 ff 	cmpl   $0xffffffff,0x80524e0
 804cde8:	0f 44 c1             	cmove  %ecx,%eax
 804cdeb:	89 45 e0             	mov    %eax,-0x20(%ebp)
 804cdee:	89 44 24 04          	mov    %eax,0x4(%esp)
 804cdf2:	8b 45 08             	mov    0x8(%ebp),%eax
 804cdf5:	89 04 24             	mov    %eax,(%esp)
 804cdf8:	e8 03 1a 00 00       	call   804e800 <_sbrk_r>
 804cdfd:	83 f8 ff             	cmp    $0xffffffff,%eax
 804ce00:	89 c1                	mov    %eax,%ecx
 804ce02:	0f 84 17 03 00 00    	je     804d11f <_malloc_r+0x5ff>
 804ce08:	39 45 e4             	cmp    %eax,-0x1c(%ebp)
 804ce0b:	0f 87 02 03 00 00    	ja     804d113 <_malloc_r+0x5f3>
 804ce11:	8b 55 e0             	mov    -0x20(%ebp),%edx
 804ce14:	03 15 40 29 05 08    	add    0x8052940,%edx
 804ce1a:	39 4d e4             	cmp    %ecx,-0x1c(%ebp)
 804ce1d:	89 15 40 29 05 08    	mov    %edx,0x8052940
 804ce23:	0f 84 a9 03 00 00    	je     804d1d2 <_malloc_r+0x6b2>
 804ce29:	83 3d e0 24 05 08 ff 	cmpl   $0xffffffff,0x80524e0
 804ce30:	0f 84 ca 03 00 00    	je     804d200 <_malloc_r+0x6e0>
 804ce36:	89 c8                	mov    %ecx,%eax
 804ce38:	2b 45 e4             	sub    -0x1c(%ebp),%eax
 804ce3b:	01 d0                	add    %edx,%eax
 804ce3d:	a3 40 29 05 08       	mov    %eax,0x8052940
 804ce42:	89 c8                	mov    %ecx,%eax
 804ce44:	ba 00 10 00 00       	mov    $0x1000,%edx
 804ce49:	83 e0 07             	and    $0x7,%eax
 804ce4c:	74 0c                	je     804ce5a <_malloc_r+0x33a>
 804ce4e:	29 c1                	sub    %eax,%ecx
 804ce50:	ba 08 10 00 00       	mov    $0x1008,%edx
 804ce55:	8d 49 08             	lea    0x8(%ecx),%ecx
 804ce58:	29 c2                	sub    %eax,%edx
 804ce5a:	8b 45 e0             	mov    -0x20(%ebp),%eax
 804ce5d:	89 4d e4             	mov    %ecx,-0x1c(%ebp)
 804ce60:	01 c8                	add    %ecx,%eax
 804ce62:	25 ff 0f 00 00       	and    $0xfff,%eax
 804ce67:	29 c2                	sub    %eax,%edx
 804ce69:	8b 45 08             	mov    0x8(%ebp),%eax
 804ce6c:	89 54 24 04          	mov    %edx,0x4(%esp)
 804ce70:	89 55 e0             	mov    %edx,-0x20(%ebp)
 804ce73:	89 04 24             	mov    %eax,(%esp)
 804ce76:	e8 85 19 00 00       	call   804e800 <_sbrk_r>
 804ce7b:	8b 4d e4             	mov    -0x1c(%ebp),%ecx
 804ce7e:	83 f8 ff             	cmp    $0xffffffff,%eax
 804ce81:	0f 84 6d 03 00 00    	je     804d1f4 <_malloc_r+0x6d4>
 804ce87:	8b 55 e0             	mov    -0x20(%ebp),%edx
 804ce8a:	29 c8                	sub    %ecx,%eax
 804ce8c:	01 d0                	add    %edx,%eax
 804ce8e:	83 c8 01             	or     $0x1,%eax
 804ce91:	03 15 40 29 05 08    	add    0x8052940,%edx
 804ce97:	81 fb 00 25 05 08    	cmp    $0x8052500,%ebx
 804ce9d:	89 0d 08 25 05 08    	mov    %ecx,0x8052508
 804cea3:	89 41 04             	mov    %eax,0x4(%ecx)
 804cea6:	89 15 40 29 05 08    	mov    %edx,0x8052940
 804ceac:	0f 84 f2 02 00 00    	je     804d1a4 <_malloc_r+0x684>
 804ceb2:	83 fe 0f             	cmp    $0xf,%esi
 804ceb5:	0f 86 8d 02 00 00    	jbe    804d148 <_malloc_r+0x628>
 804cebb:	8b 43 04             	mov    0x4(%ebx),%eax
 804cebe:	83 ee 0c             	sub    $0xc,%esi
 804cec1:	83 e6 f8             	and    $0xfffffff8,%esi
 804cec4:	83 e0 01             	and    $0x1,%eax
 804cec7:	09 f0                	or     %esi,%eax
 804cec9:	83 fe 0f             	cmp    $0xf,%esi
 804cecc:	89 43 04             	mov    %eax,0x4(%ebx)
 804cecf:	a1 08 25 05 08       	mov    0x8052508,%eax
 804ced4:	c7 44 33 04 05 00 00 	movl   $0x5,0x4(%ebx,%esi,1)
 804cedb:	00 
 804cedc:	c7 44 33 08 05 00 00 	movl   $0x5,0x8(%ebx,%esi,1)
 804cee3:	00 
 804cee4:	0f 87 a2 02 00 00    	ja     804d18c <_malloc_r+0x66c>
 804ceea:	3b 15 6c 29 05 08    	cmp    0x805296c,%edx
 804cef0:	76 06                	jbe    804cef8 <_malloc_r+0x3d8>
 804cef2:	89 15 6c 29 05 08    	mov    %edx,0x805296c
 804cef8:	3b 15 68 29 05 08    	cmp    0x8052968,%edx
 804cefe:	76 06                	jbe    804cf06 <_malloc_r+0x3e6>
 804cf00:	89 15 68 29 05 08    	mov    %edx,0x8052968
 804cf06:	8b 50 04             	mov    0x4(%eax),%edx
 804cf09:	89 c3                	mov    %eax,%ebx
 804cf0b:	83 e2 fc             	and    $0xfffffffc,%edx
 804cf0e:	89 d0                	mov    %edx,%eax
 804cf10:	29 f8                	sub    %edi,%eax
 804cf12:	39 d7                	cmp    %edx,%edi
 804cf14:	77 05                	ja     804cf1b <_malloc_r+0x3fb>
 804cf16:	83 f8 0f             	cmp    $0xf,%eax
 804cf19:	7f 15                	jg     804cf30 <_malloc_r+0x410>
 804cf1b:	8b 45 08             	mov    0x8(%ebp),%eax
 804cf1e:	89 04 24             	mov    %eax,(%esp)
 804cf21:	e8 4a 05 00 00       	call   804d470 <__malloc_unlock>
 804cf26:	31 c0                	xor    %eax,%eax
 804cf28:	e9 6a fc ff ff       	jmp    804cb97 <_malloc_r+0x77>
 804cf2d:	8d 76 00             	lea    0x0(%esi),%esi
 804cf30:	89 fa                	mov    %edi,%edx
 804cf32:	83 c8 01             	or     $0x1,%eax
 804cf35:	83 ca 01             	or     $0x1,%edx
 804cf38:	89 53 04             	mov    %edx,0x4(%ebx)
 804cf3b:	8d 14 3b             	lea    (%ebx,%edi,1),%edx
 804cf3e:	89 15 08 25 05 08    	mov    %edx,0x8052508
 804cf44:	89 42 04             	mov    %eax,0x4(%edx)
 804cf47:	8b 45 08             	mov    0x8(%ebp),%eax
 804cf4a:	89 04 24             	mov    %eax,(%esp)
 804cf4d:	e8 1e 05 00 00       	call   804d470 <__malloc_unlock>
 804cf52:	83 c4 2c             	add    $0x2c,%esp
 804cf55:	8d 43 08             	lea    0x8(%ebx),%eax
 804cf58:	5b                   	pop    %ebx
 804cf59:	5e                   	pop    %esi
 804cf5a:	5f                   	pop    %edi
 804cf5b:	5d                   	pop    %ebp
 804cf5c:	c3                   	ret    
 804cf5d:	8d 76 00             	lea    0x0(%esi),%esi
 804cf60:	83 fe 14             	cmp    $0x14,%esi
 804cf63:	0f 86 8f 01 00 00    	jbe    804d0f8 <_malloc_r+0x5d8>
 804cf69:	83 fe 54             	cmp    $0x54,%esi
 804cf6c:	0f 87 be 01 00 00    	ja     804d130 <_malloc_r+0x610>
 804cf72:	89 fe                	mov    %edi,%esi
 804cf74:	c1 ee 0c             	shr    $0xc,%esi
 804cf77:	83 c6 6e             	add    $0x6e,%esi
 804cf7a:	8d 04 36             	lea    (%esi,%esi,1),%eax
 804cf7d:	e9 5f fc ff ff       	jmp    804cbe1 <_malloc_r+0xc1>
 804cf82:	8d b6 00 00 00 00    	lea    0x0(%esi),%esi
 804cf88:	89 f1                	mov    %esi,%ecx
 804cf8a:	c1 e9 09             	shr    $0x9,%ecx
 804cf8d:	83 f9 04             	cmp    $0x4,%ecx
 804cf90:	0f 86 6d 01 00 00    	jbe    804d103 <_malloc_r+0x5e3>
 804cf96:	83 f9 14             	cmp    $0x14,%ecx
 804cf99:	0f 87 0f 02 00 00    	ja     804d1ae <_malloc_r+0x68e>
 804cf9f:	83 c1 5b             	add    $0x5b,%ecx
 804cfa2:	8d 04 09             	lea    (%ecx,%ecx,1),%eax
 804cfa5:	8d 04 85 00 25 05 08 	lea    0x8052500(,%eax,4),%eax
 804cfac:	8b 50 08             	mov    0x8(%eax),%edx
 804cfaf:	39 c2                	cmp    %eax,%edx
 804cfb1:	0f 84 a1 01 00 00    	je     804d158 <_malloc_r+0x638>
 804cfb7:	90                   	nop
 804cfb8:	8b 4a 04             	mov    0x4(%edx),%ecx
 804cfbb:	83 e1 fc             	and    $0xfffffffc,%ecx
 804cfbe:	39 ce                	cmp    %ecx,%esi
 804cfc0:	73 07                	jae    804cfc9 <_malloc_r+0x4a9>
 804cfc2:	8b 52 08             	mov    0x8(%edx),%edx
 804cfc5:	39 d0                	cmp    %edx,%eax
 804cfc7:	75 ef                	jne    804cfb8 <_malloc_r+0x498>
 804cfc9:	8b 4a 0c             	mov    0xc(%edx),%ecx
 804cfcc:	a1 04 25 05 08       	mov    0x8052504,%eax
 804cfd1:	89 4b 0c             	mov    %ecx,0xc(%ebx)
 804cfd4:	89 53 08             	mov    %edx,0x8(%ebx)
 804cfd7:	89 59 08             	mov    %ebx,0x8(%ecx)
 804cfda:	89 5a 0c             	mov    %ebx,0xc(%edx)
 804cfdd:	e9 bb fc ff ff       	jmp    804cc9d <_malloc_r+0x17d>
 804cfe2:	8d b6 00 00 00 00    	lea    0x0(%esi),%esi
 804cfe8:	89 c1                	mov    %eax,%ecx
 804cfea:	8d 14 3b             	lea    (%ebx,%edi,1),%edx
 804cfed:	83 c9 01             	or     $0x1,%ecx
 804cff0:	83 cf 01             	or     $0x1,%edi
 804cff3:	89 7b 04             	mov    %edi,0x4(%ebx)
 804cff6:	89 15 14 25 05 08    	mov    %edx,0x8052514
 804cffc:	89 15 10 25 05 08    	mov    %edx,0x8052510
 804d002:	c7 42 0c 08 25 05 08 	movl   $0x8052508,0xc(%edx)
 804d009:	c7 42 08 08 25 05 08 	movl   $0x8052508,0x8(%edx)
 804d010:	89 4a 04             	mov    %ecx,0x4(%edx)
 804d013:	89 04 02             	mov    %eax,(%edx,%eax,1)
 804d016:	8b 45 08             	mov    0x8(%ebp),%eax
 804d019:	89 04 24             	mov    %eax,(%esp)
 804d01c:	e8 4f 04 00 00       	call   804d470 <__malloc_unlock>
 804d021:	8d 43 08             	lea    0x8(%ebx),%eax
 804d024:	e9 6e fb ff ff       	jmp    804cb97 <_malloc_r+0x77>
 804d029:	8d b4 26 00 00 00 00 	lea    0x0(%esi,%eiz,1),%esi
 804d030:	89 75 dc             	mov    %esi,-0x24(%ebp)
 804d033:	e9 af fc ff ff       	jmp    804cce7 <_malloc_r+0x1c7>
 804d038:	83 45 e0 01          	addl   $0x1,-0x20(%ebp)
 804d03c:	83 c1 08             	add    $0x8,%ecx
 804d03f:	f6 45 e0 03          	testb  $0x3,-0x20(%ebp)
 804d043:	0f 85 ad fc ff ff    	jne    804ccf6 <_malloc_r+0x1d6>
 804d049:	8b 45 e4             	mov    -0x1c(%ebp),%eax
 804d04c:	eb 12                	jmp    804d060 <_malloc_r+0x540>
 804d04e:	66 90                	xchg   %ax,%ax
 804d050:	8d 56 f8             	lea    -0x8(%esi),%edx
 804d053:	8b 36                	mov    (%esi),%esi
 804d055:	83 e8 01             	sub    $0x1,%eax
 804d058:	39 d6                	cmp    %edx,%esi
 804d05a:	0f 85 ea 01 00 00    	jne    804d24a <_malloc_r+0x72a>
 804d060:	a8 03                	test   $0x3,%al
 804d062:	75 ec                	jne    804d050 <_malloc_r+0x530>
 804d064:	8b 45 dc             	mov    -0x24(%ebp),%eax
 804d067:	f7 d0                	not    %eax
 804d069:	23 05 04 25 05 08    	and    0x8052504,%eax
 804d06f:	a3 04 25 05 08       	mov    %eax,0x8052504
 804d074:	d1 65 dc             	shll   -0x24(%ebp)
 804d077:	8b 55 dc             	mov    -0x24(%ebp),%edx
 804d07a:	39 c2                	cmp    %eax,%edx
 804d07c:	0f 87 26 fd ff ff    	ja     804cda8 <_malloc_r+0x288>
 804d082:	85 d2                	test   %edx,%edx
 804d084:	0f 84 1e fd ff ff    	je     804cda8 <_malloc_r+0x288>
 804d08a:	85 c2                	test   %eax,%edx
 804d08c:	0f 85 c2 01 00 00    	jne    804d254 <_malloc_r+0x734>
 804d092:	8b 75 e0             	mov    -0x20(%ebp),%esi
 804d095:	89 f1                	mov    %esi,%ecx
 804d097:	01 d2                	add    %edx,%edx
 804d099:	83 c1 04             	add    $0x4,%ecx
 804d09c:	85 d0                	test   %edx,%eax
 804d09e:	74 f7                	je     804d097 <_malloc_r+0x577>
 804d0a0:	89 4d e4             	mov    %ecx,-0x1c(%ebp)
 804d0a3:	89 55 dc             	mov    %edx,-0x24(%ebp)
 804d0a6:	e9 3c fc ff ff       	jmp    804cce7 <_malloc_r+0x1c7>
 804d0ab:	90                   	nop
 804d0ac:	8d 74 26 00          	lea    0x0(%esi,%eiz,1),%esi
 804d0b0:	8d 43 08             	lea    0x8(%ebx),%eax
 804d0b3:	8b 5b 14             	mov    0x14(%ebx),%ebx
 804d0b6:	39 d8                	cmp    %ebx,%eax
 804d0b8:	0f 85 b4 fa ff ff    	jne    804cb72 <_malloc_r+0x52>
 804d0be:	8d 42 02             	lea    0x2(%edx),%eax
 804d0c1:	89 45 e4             	mov    %eax,-0x1c(%ebp)
 804d0c4:	e9 56 fb ff ff       	jmp    804cc1f <_malloc_r+0xff>
 804d0c9:	8d b4 26 00 00 00 00 	lea    0x0(%esi,%eiz,1),%esi
 804d0d0:	83 4c 03 04 01       	orl    $0x1,0x4(%ebx,%eax,1)
 804d0d5:	8b 53 08             	mov    0x8(%ebx),%edx
 804d0d8:	8b 43 0c             	mov    0xc(%ebx),%eax
 804d0db:	89 42 0c             	mov    %eax,0xc(%edx)
 804d0de:	89 50 08             	mov    %edx,0x8(%eax)
 804d0e1:	8b 45 08             	mov    0x8(%ebp),%eax
 804d0e4:	89 04 24             	mov    %eax,(%esp)
 804d0e7:	e8 84 03 00 00       	call   804d470 <__malloc_unlock>
 804d0ec:	8d 43 08             	lea    0x8(%ebx),%eax
 804d0ef:	e9 a3 fa ff ff       	jmp    804cb97 <_malloc_r+0x77>
 804d0f4:	8d 74 26 00          	lea    0x0(%esi,%eiz,1),%esi
 804d0f8:	83 c6 5b             	add    $0x5b,%esi
 804d0fb:	8d 04 36             	lea    (%esi,%esi,1),%eax
 804d0fe:	e9 de fa ff ff       	jmp    804cbe1 <_malloc_r+0xc1>
 804d103:	89 f1                	mov    %esi,%ecx
 804d105:	c1 e9 06             	shr    $0x6,%ecx
 804d108:	83 c1 38             	add    $0x38,%ecx
 804d10b:	8d 04 09             	lea    (%ecx,%ecx,1),%eax
 804d10e:	e9 92 fe ff ff       	jmp    804cfa5 <_malloc_r+0x485>
 804d113:	81 fb 00 25 05 08    	cmp    $0x8052500,%ebx
 804d119:	0f 84 f2 fc ff ff    	je     804ce11 <_malloc_r+0x2f1>
 804d11f:	8b 1d 08 25 05 08    	mov    0x8052508,%ebx
 804d125:	8b 53 04             	mov    0x4(%ebx),%edx
 804d128:	83 e2 fc             	and    $0xfffffffc,%edx
 804d12b:	e9 de fd ff ff       	jmp    804cf0e <_malloc_r+0x3ee>
 804d130:	81 fe 54 01 00 00    	cmp    $0x154,%esi
 804d136:	77 3c                	ja     804d174 <_malloc_r+0x654>
 804d138:	89 fe                	mov    %edi,%esi
 804d13a:	c1 ee 0f             	shr    $0xf,%esi
 804d13d:	83 c6 77             	add    $0x77,%esi
 804d140:	8d 04 36             	lea    (%esi,%esi,1),%eax
 804d143:	e9 99 fa ff ff       	jmp    804cbe1 <_malloc_r+0xc1>
 804d148:	c7 41 04 01 00 00 00 	movl   $0x1,0x4(%ecx)
 804d14f:	89 cb                	mov    %ecx,%ebx
 804d151:	31 d2                	xor    %edx,%edx
 804d153:	e9 b6 fd ff ff       	jmp    804cf0e <_malloc_r+0x3ee>
 804d158:	c1 f9 02             	sar    $0x2,%ecx
 804d15b:	b8 01 00 00 00       	mov    $0x1,%eax
 804d160:	d3 e0                	shl    %cl,%eax
 804d162:	89 d1                	mov    %edx,%ecx
 804d164:	0b 05 04 25 05 08    	or     0x8052504,%eax
 804d16a:	a3 04 25 05 08       	mov    %eax,0x8052504
 804d16f:	e9 5d fe ff ff       	jmp    804cfd1 <_malloc_r+0x4b1>
 804d174:	81 fe 54 05 00 00    	cmp    $0x554,%esi
 804d17a:	77 47                	ja     804d1c3 <_malloc_r+0x6a3>
 804d17c:	89 fe                	mov    %edi,%esi
 804d17e:	c1 ee 12             	shr    $0x12,%esi
 804d181:	83 c6 7c             	add    $0x7c,%esi
 804d184:	8d 04 36             	lea    (%esi,%esi,1),%eax
 804d187:	e9 55 fa ff ff       	jmp    804cbe1 <_malloc_r+0xc1>
 804d18c:	8b 45 08             	mov    0x8(%ebp),%eax
 804d18f:	83 c3 08             	add    $0x8,%ebx
 804d192:	89 5c 24 04          	mov    %ebx,0x4(%esp)
 804d196:	89 04 24             	mov    %eax,(%esp)
 804d199:	e8 02 ef ff ff       	call   804c0a0 <_free_r>
 804d19e:	8b 15 40 29 05 08    	mov    0x8052940,%edx
 804d1a4:	a1 08 25 05 08       	mov    0x8052508,%eax
 804d1a9:	e9 3c fd ff ff       	jmp    804ceea <_malloc_r+0x3ca>
 804d1ae:	83 f9 54             	cmp    $0x54,%ecx
 804d1b1:	77 58                	ja     804d20b <_malloc_r+0x6eb>
 804d1b3:	89 f1                	mov    %esi,%ecx
 804d1b5:	c1 e9 0c             	shr    $0xc,%ecx
 804d1b8:	83 c1 6e             	add    $0x6e,%ecx
 804d1bb:	8d 04 09             	lea    (%ecx,%ecx,1),%eax
 804d1be:	e9 e2 fd ff ff       	jmp    804cfa5 <_malloc_r+0x485>
 804d1c3:	b8 fc 00 00 00       	mov    $0xfc,%eax
 804d1c8:	be 7e 00 00 00       	mov    $0x7e,%esi
 804d1cd:	e9 0f fa ff ff       	jmp    804cbe1 <_malloc_r+0xc1>
 804d1d2:	f7 45 e4 ff 0f 00 00 	testl  $0xfff,-0x1c(%ebp)
 804d1d9:	0f 85 4a fc ff ff    	jne    804ce29 <_malloc_r+0x309>
 804d1df:	8b 4d e0             	mov    -0x20(%ebp),%ecx
 804d1e2:	a1 08 25 05 08       	mov    0x8052508,%eax
 804d1e7:	01 f1                	add    %esi,%ecx
 804d1e9:	83 c9 01             	or     $0x1,%ecx
 804d1ec:	89 48 04             	mov    %ecx,0x4(%eax)
 804d1ef:	e9 f6 fc ff ff       	jmp    804ceea <_malloc_r+0x3ca>
 804d1f4:	b8 01 00 00 00       	mov    $0x1,%eax
 804d1f9:	31 d2                	xor    %edx,%edx
 804d1fb:	e9 91 fc ff ff       	jmp    804ce91 <_malloc_r+0x371>
 804d200:	89 0d e0 24 05 08    	mov    %ecx,0x80524e0
 804d206:	e9 37 fc ff ff       	jmp    804ce42 <_malloc_r+0x322>
 804d20b:	81 f9 54 01 00 00    	cmp    $0x154,%ecx
 804d211:	77 10                	ja     804d223 <_malloc_r+0x703>
 804d213:	89 f1                	mov    %esi,%ecx
 804d215:	c1 e9 0f             	shr    $0xf,%ecx
 804d218:	83 c1 77             	add    $0x77,%ecx
 804d21b:	8d 04 09             	lea    (%ecx,%ecx,1),%eax
 804d21e:	e9 82 fd ff ff       	jmp    804cfa5 <_malloc_r+0x485>
 804d223:	81 f9 54 05 00 00    	cmp    $0x554,%ecx
 804d229:	77 10                	ja     804d23b <_malloc_r+0x71b>
 804d22b:	89 f1                	mov    %esi,%ecx
 804d22d:	c1 e9 12             	shr    $0x12,%ecx
 804d230:	83 c1 7c             	add    $0x7c,%ecx
 804d233:	8d 04 09             	lea    (%ecx,%ecx,1),%eax
 804d236:	e9 6a fd ff ff       	jmp    804cfa5 <_malloc_r+0x485>
 804d23b:	b8 fc 00 00 00       	mov    $0xfc,%eax
 804d240:	b9 7e 00 00 00       	mov    $0x7e,%ecx
 804d245:	e9 5b fd ff ff       	jmp    804cfa5 <_malloc_r+0x485>
 804d24a:	a1 04 25 05 08       	mov    0x8052504,%eax
 804d24f:	e9 20 fe ff ff       	jmp    804d074 <_malloc_r+0x554>
 804d254:	8b 45 e0             	mov    -0x20(%ebp),%eax
 804d257:	89 45 e4             	mov    %eax,-0x1c(%ebp)
 804d25a:	e9 88 fa ff ff       	jmp    804cce7 <_malloc_r+0x1c7>
 804d25f:	90                   	nop

0804d260 <memchr>:
 804d260:	55                   	push   %ebp
 804d261:	89 e5                	mov    %esp,%ebp
 804d263:	57                   	push   %edi
 804d264:	0f b6 45 0c          	movzbl 0xc(%ebp),%eax
 804d268:	8b 4d 10             	mov    0x10(%ebp),%ecx
 804d26b:	8b 7d 08             	mov    0x8(%ebp),%edi
 804d26e:	31 d2                	xor    %edx,%edx
 804d270:	85 c9                	test   %ecx,%ecx
 804d272:	74 79                	je     804d2ed <L20>
 804d274:	f7 c7 03 00 00 00    	test   $0x3,%edi
 804d27a:	74 28                	je     804d2a4 <L5>
 804d27c:	3a 07                	cmp    (%edi),%al
 804d27e:	74 6a                	je     804d2ea <L15>
 804d280:	47                   	inc    %edi
 804d281:	49                   	dec    %ecx
 804d282:	74 69                	je     804d2ed <L20>
 804d284:	f7 c7 03 00 00 00    	test   $0x3,%edi
 804d28a:	74 18                	je     804d2a4 <L5>
 804d28c:	3a 07                	cmp    (%edi),%al
 804d28e:	74 5a                	je     804d2ea <L15>
 804d290:	47                   	inc    %edi
 804d291:	49                   	dec    %ecx
 804d292:	74 59                	je     804d2ed <L20>
 804d294:	f7 c7 03 00 00 00    	test   $0x3,%edi
 804d29a:	74 08                	je     804d2a4 <L5>
 804d29c:	3a 07                	cmp    (%edi),%al
 804d29e:	74 4a                	je     804d2ea <L15>
 804d2a0:	47                   	inc    %edi
 804d2a1:	49                   	dec    %ecx
 804d2a2:	74 49                	je     804d2ed <L20>

0804d2a4 <L5>:
 804d2a4:	88 c4                	mov    %al,%ah
 804d2a6:	89 c2                	mov    %eax,%edx
 804d2a8:	c1 e2 10             	shl    $0x10,%edx
 804d2ab:	09 d0                	or     %edx,%eax
 804d2ad:	53                   	push   %ebx
 804d2ae:	66 90                	xchg   %ax,%ax

0804d2b0 <L8>:
 804d2b0:	83 e9 04             	sub    $0x4,%ecx
 804d2b3:	72 1c                	jb     804d2d1 <L9>
 804d2b5:	8b 17                	mov    (%edi),%edx
 804d2b7:	83 c7 04             	add    $0x4,%edi
 804d2ba:	31 c2                	xor    %eax,%edx
 804d2bc:	8d 9a ff fe fe fe    	lea    -0x1010101(%edx),%ebx
 804d2c2:	f7 d2                	not    %edx
 804d2c4:	21 d3                	and    %edx,%ebx
 804d2c6:	f7 c3 80 80 80 80    	test   $0x80808080,%ebx
 804d2cc:	74 e2                	je     804d2b0 <L8>
 804d2ce:	83 ef 04             	sub    $0x4,%edi

0804d2d1 <L9>:
 804d2d1:	5b                   	pop    %ebx
 804d2d2:	31 d2                	xor    %edx,%edx
 804d2d4:	83 c1 04             	add    $0x4,%ecx
 804d2d7:	74 14                	je     804d2ed <L20>
 804d2d9:	8d b4 26 00 00 00 00 	lea    0x0(%esi,%eiz,1),%esi

0804d2e0 <L10>:
 804d2e0:	3a 07                	cmp    (%edi),%al
 804d2e2:	74 06                	je     804d2ea <L15>
 804d2e4:	47                   	inc    %edi
 804d2e5:	49                   	dec    %ecx
 804d2e6:	75 f8                	jne    804d2e0 <L10>
 804d2e8:	31 ff                	xor    %edi,%edi

0804d2ea <L15>:
 804d2ea:	4a                   	dec    %edx
 804d2eb:	21 fa                	and    %edi,%edx

0804d2ed <L20>:
 804d2ed:	89 d0                	mov    %edx,%eax
 804d2ef:	8d 65 fc             	lea    -0x4(%ebp),%esp
 804d2f2:	5f                   	pop    %edi
 804d2f3:	c9                   	leave  
 804d2f4:	c3                   	ret    
 804d2f5:	66 90                	xchg   %ax,%ax
 804d2f7:	90                   	nop

0804d2f8 <memcpy>:
 804d2f8:	55                   	push   %ebp
 804d2f9:	89 e5                	mov    %esp,%ebp
 804d2fb:	56                   	push   %esi
 804d2fc:	57                   	push   %edi
 804d2fd:	53                   	push   %ebx
 804d2fe:	8b 7d 08             	mov    0x8(%ebp),%edi
 804d301:	8b 4d 10             	mov    0x10(%ebp),%ecx
 804d304:	8b 75 0c             	mov    0xc(%ebp),%esi
 804d307:	fc                   	cld    
 804d308:	83 f9 08             	cmp    $0x8,%ecx
 804d30b:	76 26                	jbe    804d333 <memcpy+0x3b>
 804d30d:	89 fa                	mov    %edi,%edx
 804d30f:	89 cb                	mov    %ecx,%ebx
 804d311:	83 e2 03             	and    $0x3,%edx
 804d314:	74 10                	je     804d326 <memcpy+0x2e>
 804d316:	b9 04 00 00 00       	mov    $0x4,%ecx
 804d31b:	29 d1                	sub    %edx,%ecx
 804d31d:	83 e1 03             	and    $0x3,%ecx
 804d320:	29 cb                	sub    %ecx,%ebx
 804d322:	f3 a4                	rep movsb %ds:(%esi),%es:(%edi)
 804d324:	89 d9                	mov    %ebx,%ecx
 804d326:	c1 e9 02             	shr    $0x2,%ecx
 804d329:	8d 76 00             	lea    0x0(%esi),%esi
 804d32c:	f3 a5                	rep movsl %ds:(%esi),%es:(%edi)
 804d32e:	89 d9                	mov    %ebx,%ecx
 804d330:	83 e1 03             	and    $0x3,%ecx
 804d333:	f3 a4                	rep movsb %ds:(%esi),%es:(%edi)
 804d335:	8b 45 08             	mov    0x8(%ebp),%eax
 804d338:	8d 65 f4             	lea    -0xc(%ebp),%esp
 804d33b:	5b                   	pop    %ebx
 804d33c:	5f                   	pop    %edi
 804d33d:	5e                   	pop    %esi
 804d33e:	c9                   	leave  
 804d33f:	c3                   	ret    

0804d340 <memmove>:
 804d340:	55                   	push   %ebp
 804d341:	89 e5                	mov    %esp,%ebp
 804d343:	56                   	push   %esi
 804d344:	57                   	push   %edi
 804d345:	53                   	push   %ebx
 804d346:	8b 7d 08             	mov    0x8(%ebp),%edi
 804d349:	8b 4d 10             	mov    0x10(%ebp),%ecx
 804d34c:	8b 75 0c             	mov    0xc(%ebp),%esi
 804d34f:	fc                   	cld    
 804d350:	39 fe                	cmp    %edi,%esi
 804d352:	73 43                	jae    804d397 <memmove+0x57>
 804d354:	8d 5c 31 ff          	lea    -0x1(%ecx,%esi,1),%ebx
 804d358:	39 df                	cmp    %ebx,%edi
 804d35a:	77 3b                	ja     804d397 <memmove+0x57>
 804d35c:	01 ce                	add    %ecx,%esi
 804d35e:	01 cf                	add    %ecx,%edi
 804d360:	fd                   	std    
 804d361:	83 f9 08             	cmp    $0x8,%ecx
 804d364:	76 2b                	jbe    804d391 <memmove+0x51>
 804d366:	89 fa                	mov    %edi,%edx
 804d368:	89 cb                	mov    %ecx,%ebx
 804d36a:	83 e2 03             	and    $0x3,%edx
 804d36d:	74 0c                	je     804d37b <memmove+0x3b>
 804d36f:	89 d1                	mov    %edx,%ecx
 804d371:	4e                   	dec    %esi
 804d372:	4f                   	dec    %edi
 804d373:	29 cb                	sub    %ecx,%ebx
 804d375:	f3 a4                	rep movsb %ds:(%esi),%es:(%edi)
 804d377:	89 d9                	mov    %ebx,%ecx
 804d379:	46                   	inc    %esi
 804d37a:	47                   	inc    %edi
 804d37b:	c1 e9 02             	shr    $0x2,%ecx
 804d37e:	83 ee 04             	sub    $0x4,%esi
 804d381:	83 ef 04             	sub    $0x4,%edi
 804d384:	f3 a5                	rep movsl %ds:(%esi),%es:(%edi)
 804d386:	83 c6 04             	add    $0x4,%esi
 804d389:	83 c7 04             	add    $0x4,%edi
 804d38c:	89 d9                	mov    %ebx,%ecx
 804d38e:	83 e1 03             	and    $0x3,%ecx
 804d391:	4e                   	dec    %esi
 804d392:	4f                   	dec    %edi
 804d393:	f3 a4                	rep movsb %ds:(%esi),%es:(%edi)
 804d395:	eb 2a                	jmp    804d3c1 <memmove+0x81>
 804d397:	83 f9 08             	cmp    $0x8,%ecx
 804d39a:	76 23                	jbe    804d3bf <memmove+0x7f>
 804d39c:	89 fa                	mov    %edi,%edx
 804d39e:	89 cb                	mov    %ecx,%ebx
 804d3a0:	83 e2 03             	and    $0x3,%edx
 804d3a3:	74 10                	je     804d3b5 <memmove+0x75>
 804d3a5:	b9 04 00 00 00       	mov    $0x4,%ecx
 804d3aa:	29 d1                	sub    %edx,%ecx
 804d3ac:	83 e1 03             	and    $0x3,%ecx
 804d3af:	29 cb                	sub    %ecx,%ebx
 804d3b1:	f3 a4                	rep movsb %ds:(%esi),%es:(%edi)
 804d3b3:	89 d9                	mov    %ebx,%ecx
 804d3b5:	c1 e9 02             	shr    $0x2,%ecx
 804d3b8:	f3 a5                	rep movsl %ds:(%esi),%es:(%edi)
 804d3ba:	89 d9                	mov    %ebx,%ecx
 804d3bc:	83 e1 03             	and    $0x3,%ecx
 804d3bf:	f3 a4                	rep movsb %ds:(%esi),%es:(%edi)
 804d3c1:	8b 45 08             	mov    0x8(%ebp),%eax
 804d3c4:	fc                   	cld    
 804d3c5:	8d 65 f4             	lea    -0xc(%ebp),%esp
 804d3c8:	5b                   	pop    %ebx
 804d3c9:	5f                   	pop    %edi
 804d3ca:	5e                   	pop    %esi
 804d3cb:	c9                   	leave  
 804d3cc:	c3                   	ret    

0804d3cd <memset>:
 804d3cd:	55                   	push   %ebp
 804d3ce:	89 e5                	mov    %esp,%ebp
 804d3d0:	57                   	push   %edi
 804d3d1:	8b 7d 08             	mov    0x8(%ebp),%edi
 804d3d4:	0f b6 45 0c          	movzbl 0xc(%ebp),%eax
 804d3d8:	8b 4d 10             	mov    0x10(%ebp),%ecx
 804d3db:	fc                   	cld    
 804d3dc:	83 f9 10             	cmp    $0x10,%ecx
 804d3df:	76 69                	jbe    804d44a <memset+0x7d>
 804d3e1:	f7 c7 07 00 00 00    	test   $0x7,%edi
 804d3e7:	74 4c                	je     804d435 <memset+0x68>
 804d3e9:	88 07                	mov    %al,(%edi)
 804d3eb:	47                   	inc    %edi
 804d3ec:	49                   	dec    %ecx
 804d3ed:	f7 c7 07 00 00 00    	test   $0x7,%edi
 804d3f3:	74 40                	je     804d435 <memset+0x68>
 804d3f5:	88 07                	mov    %al,(%edi)
 804d3f7:	47                   	inc    %edi
 804d3f8:	49                   	dec    %ecx
 804d3f9:	f7 c7 07 00 00 00    	test   $0x7,%edi
 804d3ff:	74 34                	je     804d435 <memset+0x68>
 804d401:	88 07                	mov    %al,(%edi)
 804d403:	47                   	inc    %edi
 804d404:	49                   	dec    %ecx
 804d405:	f7 c7 07 00 00 00    	test   $0x7,%edi
 804d40b:	74 28                	je     804d435 <memset+0x68>
 804d40d:	88 07                	mov    %al,(%edi)
 804d40f:	47                   	inc    %edi
 804d410:	49                   	dec    %ecx
 804d411:	f7 c7 07 00 00 00    	test   $0x7,%edi
 804d417:	74 1c                	je     804d435 <memset+0x68>
 804d419:	88 07                	mov    %al,(%edi)
 804d41b:	47                   	inc    %edi
 804d41c:	49                   	dec    %ecx
 804d41d:	f7 c7 07 00 00 00    	test   $0x7,%edi
 804d423:	74 10                	je     804d435 <memset+0x68>
 804d425:	88 07                	mov    %al,(%edi)
 804d427:	47                   	inc    %edi
 804d428:	49                   	dec    %ecx
 804d429:	f7 c7 07 00 00 00    	test   $0x7,%edi
 804d42f:	74 04                	je     804d435 <memset+0x68>
 804d431:	88 07                	mov    %al,(%edi)
 804d433:	47                   	inc    %edi
 804d434:	49                   	dec    %ecx
 804d435:	88 c4                	mov    %al,%ah
 804d437:	89 c2                	mov    %eax,%edx
 804d439:	c1 e2 10             	shl    $0x10,%edx
 804d43c:	09 d0                	or     %edx,%eax
 804d43e:	89 ca                	mov    %ecx,%edx
 804d440:	c1 e9 02             	shr    $0x2,%ecx
 804d443:	83 e2 03             	and    $0x3,%edx
 804d446:	f3 ab                	rep stos %eax,%es:(%edi)
 804d448:	89 d1                	mov    %edx,%ecx
 804d44a:	f3 aa                	rep stos %al,%es:(%edi)
 804d44c:	8b 45 08             	mov    0x8(%ebp),%eax
 804d44f:	8d 65 fc             	lea    -0x4(%ebp),%esp
 804d452:	5f                   	pop    %edi
 804d453:	c9                   	leave  
 804d454:	c3                   	ret    
 804d455:	66 90                	xchg   %ax,%ax
 804d457:	66 90                	xchg   %ax,%ax
 804d459:	66 90                	xchg   %ax,%ax
 804d45b:	66 90                	xchg   %ax,%ax
 804d45d:	66 90                	xchg   %ax,%ax
 804d45f:	90                   	nop

0804d460 <__malloc_lock>:
 804d460:	55                   	push   %ebp
 804d461:	89 e5                	mov    %esp,%ebp
 804d463:	5d                   	pop    %ebp
 804d464:	c3                   	ret    
 804d465:	8d 74 26 00          	lea    0x0(%esi,%eiz,1),%esi
 804d469:	8d bc 27 00 00 00 00 	lea    0x0(%edi,%eiz,1),%edi

0804d470 <__malloc_unlock>:
 804d470:	55                   	push   %ebp
 804d471:	89 e5                	mov    %esp,%ebp
 804d473:	5d                   	pop    %ebp
 804d474:	c3                   	ret    
 804d475:	66 90                	xchg   %ax,%ax
 804d477:	66 90                	xchg   %ax,%ax
 804d479:	66 90                	xchg   %ax,%ax
 804d47b:	66 90                	xchg   %ax,%ax
 804d47d:	66 90                	xchg   %ax,%ax
 804d47f:	90                   	nop

0804d480 <_Balloc>:
 804d480:	55                   	push   %ebp
 804d481:	89 e5                	mov    %esp,%ebp
 804d483:	57                   	push   %edi
 804d484:	56                   	push   %esi
 804d485:	53                   	push   %ebx
 804d486:	83 ec 1c             	sub    $0x1c,%esp
 804d489:	8b 75 08             	mov    0x8(%ebp),%esi
 804d48c:	8b 5d 0c             	mov    0xc(%ebp),%ebx
 804d48f:	8b 46 4c             	mov    0x4c(%esi),%eax
 804d492:	85 c0                	test   %eax,%eax
 804d494:	74 2a                	je     804d4c0 <_Balloc+0x40>
 804d496:	8d 14 98             	lea    (%eax,%ebx,4),%edx
 804d499:	8b 02                	mov    (%edx),%eax
 804d49b:	85 c0                	test   %eax,%eax
 804d49d:	74 49                	je     804d4e8 <_Balloc+0x68>
 804d49f:	8b 08                	mov    (%eax),%ecx
 804d4a1:	89 0a                	mov    %ecx,(%edx)
 804d4a3:	c7 40 10 00 00 00 00 	movl   $0x0,0x10(%eax)
 804d4aa:	c7 40 0c 00 00 00 00 	movl   $0x0,0xc(%eax)
 804d4b1:	83 c4 1c             	add    $0x1c,%esp
 804d4b4:	5b                   	pop    %ebx
 804d4b5:	5e                   	pop    %esi
 804d4b6:	5f                   	pop    %edi
 804d4b7:	5d                   	pop    %ebp
 804d4b8:	c3                   	ret    
 804d4b9:	8d b4 26 00 00 00 00 	lea    0x0(%esi,%eiz,1),%esi
 804d4c0:	c7 44 24 08 21 00 00 	movl   $0x21,0x8(%esp)
 804d4c7:	00 
 804d4c8:	c7 44 24 04 04 00 00 	movl   $0x4,0x4(%esp)
 804d4cf:	00 
 804d4d0:	89 34 24             	mov    %esi,(%esp)
 804d4d3:	e8 98 27 00 00       	call   804fc70 <_calloc_r>
 804d4d8:	85 c0                	test   %eax,%eax
 804d4da:	89 46 4c             	mov    %eax,0x4c(%esi)
 804d4dd:	75 b7                	jne    804d496 <_Balloc+0x16>
 804d4df:	31 c0                	xor    %eax,%eax
 804d4e1:	eb ce                	jmp    804d4b1 <_Balloc+0x31>
 804d4e3:	90                   	nop
 804d4e4:	8d 74 26 00          	lea    0x0(%esi,%eiz,1),%esi
 804d4e8:	89 d9                	mov    %ebx,%ecx
 804d4ea:	bf 01 00 00 00       	mov    $0x1,%edi
 804d4ef:	d3 e7                	shl    %cl,%edi
 804d4f1:	8d 04 bd 14 00 00 00 	lea    0x14(,%edi,4),%eax
 804d4f8:	89 44 24 08          	mov    %eax,0x8(%esp)
 804d4fc:	c7 44 24 04 01 00 00 	movl   $0x1,0x4(%esp)
 804d503:	00 
 804d504:	89 34 24             	mov    %esi,(%esp)
 804d507:	e8 64 27 00 00       	call   804fc70 <_calloc_r>
 804d50c:	85 c0                	test   %eax,%eax
 804d50e:	74 cf                	je     804d4df <_Balloc+0x5f>
 804d510:	89 58 04             	mov    %ebx,0x4(%eax)
 804d513:	89 78 08             	mov    %edi,0x8(%eax)
 804d516:	eb 8b                	jmp    804d4a3 <_Balloc+0x23>
 804d518:	90                   	nop
 804d519:	8d b4 26 00 00 00 00 	lea    0x0(%esi,%eiz,1),%esi

0804d520 <_Bfree>:
 804d520:	55                   	push   %ebp
 804d521:	89 e5                	mov    %esp,%ebp
 804d523:	8b 45 0c             	mov    0xc(%ebp),%eax
 804d526:	85 c0                	test   %eax,%eax
 804d528:	74 12                	je     804d53c <_Bfree+0x1c>
 804d52a:	8b 55 08             	mov    0x8(%ebp),%edx
 804d52d:	8b 48 04             	mov    0x4(%eax),%ecx
 804d530:	8b 52 4c             	mov    0x4c(%edx),%edx
 804d533:	8d 14 8a             	lea    (%edx,%ecx,4),%edx
 804d536:	8b 0a                	mov    (%edx),%ecx
 804d538:	89 08                	mov    %ecx,(%eax)
 804d53a:	89 02                	mov    %eax,(%edx)
 804d53c:	5d                   	pop    %ebp
 804d53d:	c3                   	ret    
 804d53e:	66 90                	xchg   %ax,%ax

0804d540 <__multadd>:
 804d540:	55                   	push   %ebp
 804d541:	89 e5                	mov    %esp,%ebp
 804d543:	57                   	push   %edi
 804d544:	56                   	push   %esi
 804d545:	53                   	push   %ebx
 804d546:	83 ec 2c             	sub    $0x2c,%esp
 804d549:	8b 45 0c             	mov    0xc(%ebp),%eax
 804d54c:	8b 5d 14             	mov    0x14(%ebp),%ebx
 804d54f:	8b 40 10             	mov    0x10(%eax),%eax
 804d552:	89 45 e4             	mov    %eax,-0x1c(%ebp)
 804d555:	8b 45 0c             	mov    0xc(%ebp),%eax
 804d558:	8d 78 14             	lea    0x14(%eax),%edi
 804d55b:	31 c0                	xor    %eax,%eax
 804d55d:	8d 76 00             	lea    0x0(%esi),%esi
 804d560:	8b 0c 87             	mov    (%edi,%eax,4),%ecx
 804d563:	0f b7 d1             	movzwl %cx,%edx
 804d566:	0f af 55 10          	imul   0x10(%ebp),%edx
 804d56a:	c1 e9 10             	shr    $0x10,%ecx
 804d56d:	0f af 4d 10          	imul   0x10(%ebp),%ecx
 804d571:	01 da                	add    %ebx,%edx
 804d573:	89 d3                	mov    %edx,%ebx
 804d575:	0f b7 d2             	movzwl %dx,%edx
 804d578:	c1 eb 10             	shr    $0x10,%ebx
 804d57b:	01 d9                	add    %ebx,%ecx
 804d57d:	89 ce                	mov    %ecx,%esi
 804d57f:	c1 e1 10             	shl    $0x10,%ecx
 804d582:	01 d1                	add    %edx,%ecx
 804d584:	c1 ee 10             	shr    $0x10,%esi
 804d587:	89 0c 87             	mov    %ecx,(%edi,%eax,4)
 804d58a:	83 c0 01             	add    $0x1,%eax
 804d58d:	89 f3                	mov    %esi,%ebx
 804d58f:	39 45 e4             	cmp    %eax,-0x1c(%ebp)
 804d592:	7f cc                	jg     804d560 <__multadd+0x20>
 804d594:	85 f6                	test   %esi,%esi
 804d596:	74 1b                	je     804d5b3 <__multadd+0x73>
 804d598:	8b 45 0c             	mov    0xc(%ebp),%eax
 804d59b:	8b 7d e4             	mov    -0x1c(%ebp),%edi
 804d59e:	3b 78 08             	cmp    0x8(%eax),%edi
 804d5a1:	7d 1d                	jge    804d5c0 <__multadd+0x80>
 804d5a3:	8b 7d 0c             	mov    0xc(%ebp),%edi
 804d5a6:	8b 45 e4             	mov    -0x1c(%ebp),%eax
 804d5a9:	89 74 87 14          	mov    %esi,0x14(%edi,%eax,4)
 804d5ad:	83 c0 01             	add    $0x1,%eax
 804d5b0:	89 47 10             	mov    %eax,0x10(%edi)
 804d5b3:	8b 45 0c             	mov    0xc(%ebp),%eax
 804d5b6:	83 c4 2c             	add    $0x2c,%esp
 804d5b9:	5b                   	pop    %ebx
 804d5ba:	5e                   	pop    %esi
 804d5bb:	5f                   	pop    %edi
 804d5bc:	5d                   	pop    %ebp
 804d5bd:	c3                   	ret    
 804d5be:	66 90                	xchg   %ax,%ax
 804d5c0:	8b 40 04             	mov    0x4(%eax),%eax
 804d5c3:	89 45 e0             	mov    %eax,-0x20(%ebp)
 804d5c6:	83 c0 01             	add    $0x1,%eax
 804d5c9:	89 44 24 04          	mov    %eax,0x4(%esp)
 804d5cd:	8b 45 08             	mov    0x8(%ebp),%eax
 804d5d0:	89 04 24             	mov    %eax,(%esp)
 804d5d3:	e8 a8 fe ff ff       	call   804d480 <_Balloc>
 804d5d8:	89 c3                	mov    %eax,%ebx
 804d5da:	8b 45 0c             	mov    0xc(%ebp),%eax
 804d5dd:	8b 40 10             	mov    0x10(%eax),%eax
 804d5e0:	8d 04 85 08 00 00 00 	lea    0x8(,%eax,4),%eax
 804d5e7:	89 44 24 08          	mov    %eax,0x8(%esp)
 804d5eb:	8b 45 0c             	mov    0xc(%ebp),%eax
 804d5ee:	83 c0 0c             	add    $0xc,%eax
 804d5f1:	89 44 24 04          	mov    %eax,0x4(%esp)
 804d5f5:	8d 43 0c             	lea    0xc(%ebx),%eax
 804d5f8:	89 04 24             	mov    %eax,(%esp)
 804d5fb:	e8 f8 fc ff ff       	call   804d2f8 <memcpy>
 804d600:	8b 45 0c             	mov    0xc(%ebp),%eax
 804d603:	8b 7d 0c             	mov    0xc(%ebp),%edi
 804d606:	89 5d 0c             	mov    %ebx,0xc(%ebp)
 804d609:	8b 50 04             	mov    0x4(%eax),%edx
 804d60c:	8b 45 08             	mov    0x8(%ebp),%eax
 804d60f:	8b 40 4c             	mov    0x4c(%eax),%eax
 804d612:	8d 04 90             	lea    (%eax,%edx,4),%eax
 804d615:	8b 10                	mov    (%eax),%edx
 804d617:	89 17                	mov    %edx,(%edi)
 804d619:	89 38                	mov    %edi,(%eax)
 804d61b:	eb 86                	jmp    804d5a3 <__multadd+0x63>
 804d61d:	8d 76 00             	lea    0x0(%esi),%esi

0804d620 <__s2b>:
 804d620:	55                   	push   %ebp
 804d621:	ba 39 8e e3 38       	mov    $0x38e38e39,%edx
 804d626:	89 e5                	mov    %esp,%ebp
 804d628:	57                   	push   %edi
 804d629:	56                   	push   %esi
 804d62a:	53                   	push   %ebx
 804d62b:	83 ec 2c             	sub    $0x2c,%esp
 804d62e:	8b 45 14             	mov    0x14(%ebp),%eax
 804d631:	8b 5d 08             	mov    0x8(%ebp),%ebx
 804d634:	8b 75 0c             	mov    0xc(%ebp),%esi
 804d637:	8d 48 08             	lea    0x8(%eax),%ecx
 804d63a:	89 c8                	mov    %ecx,%eax
 804d63c:	f7 ea                	imul   %edx
 804d63e:	c1 f9 1f             	sar    $0x1f,%ecx
 804d641:	d1 fa                	sar    %edx
 804d643:	29 ca                	sub    %ecx,%edx
 804d645:	83 fa 01             	cmp    $0x1,%edx
 804d648:	0f 8e be 00 00 00    	jle    804d70c <__s2b+0xec>
 804d64e:	b8 01 00 00 00       	mov    $0x1,%eax
 804d653:	31 c9                	xor    %ecx,%ecx
 804d655:	8d 76 00             	lea    0x0(%esi),%esi
 804d658:	01 c0                	add    %eax,%eax
 804d65a:	83 c1 01             	add    $0x1,%ecx
 804d65d:	39 c2                	cmp    %eax,%edx
 804d65f:	7f f7                	jg     804d658 <__s2b+0x38>
 804d661:	89 4c 24 04          	mov    %ecx,0x4(%esp)
 804d665:	89 1c 24             	mov    %ebx,(%esp)
 804d668:	e8 13 fe ff ff       	call   804d480 <_Balloc>
 804d66d:	8b 55 18             	mov    0x18(%ebp),%edx
 804d670:	83 7d 10 09          	cmpl   $0x9,0x10(%ebp)
 804d674:	89 50 14             	mov    %edx,0x14(%eax)
 804d677:	c7 40 10 01 00 00 00 	movl   $0x1,0x10(%eax)
 804d67e:	0f 8e 7c 00 00 00    	jle    804d700 <__s2b+0xe0>
 804d684:	8d 4e 09             	lea    0x9(%esi),%ecx
 804d687:	03 75 10             	add    0x10(%ebp),%esi
 804d68a:	89 cf                	mov    %ecx,%edi
 804d68c:	89 4d e4             	mov    %ecx,-0x1c(%ebp)
 804d68f:	90                   	nop
 804d690:	83 c7 01             	add    $0x1,%edi
 804d693:	0f be 57 ff          	movsbl -0x1(%edi),%edx
 804d697:	c7 44 24 08 0a 00 00 	movl   $0xa,0x8(%esp)
 804d69e:	00 
 804d69f:	89 44 24 04          	mov    %eax,0x4(%esp)
 804d6a3:	89 1c 24             	mov    %ebx,(%esp)
 804d6a6:	83 ea 30             	sub    $0x30,%edx
 804d6a9:	89 54 24 0c          	mov    %edx,0xc(%esp)
 804d6ad:	e8 8e fe ff ff       	call   804d540 <__multadd>
 804d6b2:	39 f7                	cmp    %esi,%edi
 804d6b4:	75 da                	jne    804d690 <__s2b+0x70>
 804d6b6:	8b 4d e4             	mov    -0x1c(%ebp),%ecx
 804d6b9:	8b 7d 10             	mov    0x10(%ebp),%edi
 804d6bc:	8d 74 39 f8          	lea    -0x8(%ecx,%edi,1),%esi
 804d6c0:	8b 4d 10             	mov    0x10(%ebp),%ecx
 804d6c3:	39 4d 14             	cmp    %ecx,0x14(%ebp)
 804d6c6:	7e 2e                	jle    804d6f6 <__s2b+0xd6>
 804d6c8:	8b 7d 14             	mov    0x14(%ebp),%edi
 804d6cb:	29 cf                	sub    %ecx,%edi
 804d6cd:	01 f7                	add    %esi,%edi
 804d6cf:	90                   	nop
 804d6d0:	83 c6 01             	add    $0x1,%esi
 804d6d3:	0f be 56 ff          	movsbl -0x1(%esi),%edx
 804d6d7:	c7 44 24 08 0a 00 00 	movl   $0xa,0x8(%esp)
 804d6de:	00 
 804d6df:	89 44 24 04          	mov    %eax,0x4(%esp)
 804d6e3:	89 1c 24             	mov    %ebx,(%esp)
 804d6e6:	83 ea 30             	sub    $0x30,%edx
 804d6e9:	89 54 24 0c          	mov    %edx,0xc(%esp)
 804d6ed:	e8 4e fe ff ff       	call   804d540 <__multadd>
 804d6f2:	39 fe                	cmp    %edi,%esi
 804d6f4:	75 da                	jne    804d6d0 <__s2b+0xb0>
 804d6f6:	83 c4 2c             	add    $0x2c,%esp
 804d6f9:	5b                   	pop    %ebx
 804d6fa:	5e                   	pop    %esi
 804d6fb:	5f                   	pop    %edi
 804d6fc:	5d                   	pop    %ebp
 804d6fd:	c3                   	ret    
 804d6fe:	66 90                	xchg   %ax,%ax
 804d700:	83 c6 0a             	add    $0xa,%esi
 804d703:	c7 45 10 09 00 00 00 	movl   $0x9,0x10(%ebp)
 804d70a:	eb b4                	jmp    804d6c0 <__s2b+0xa0>
 804d70c:	31 c9                	xor    %ecx,%ecx
 804d70e:	e9 4e ff ff ff       	jmp    804d661 <__s2b+0x41>
 804d713:	8d b6 00 00 00 00    	lea    0x0(%esi),%esi
 804d719:	8d bc 27 00 00 00 00 	lea    0x0(%edi,%eiz,1),%edi

0804d720 <__hi0bits>:
 804d720:	55                   	push   %ebp
 804d721:	31 c9                	xor    %ecx,%ecx
 804d723:	89 e5                	mov    %esp,%ebp
 804d725:	8b 55 08             	mov    0x8(%ebp),%edx
 804d728:	f7 c2 00 00 ff ff    	test   $0xffff0000,%edx
 804d72e:	75 05                	jne    804d735 <__hi0bits+0x15>
 804d730:	c1 e2 10             	shl    $0x10,%edx
 804d733:	b1 10                	mov    $0x10,%cl
 804d735:	f7 c2 00 00 00 ff    	test   $0xff000000,%edx
 804d73b:	75 06                	jne    804d743 <__hi0bits+0x23>
 804d73d:	83 c1 08             	add    $0x8,%ecx
 804d740:	c1 e2 08             	shl    $0x8,%edx
 804d743:	f7 c2 00 00 00 f0    	test   $0xf0000000,%edx
 804d749:	75 06                	jne    804d751 <__hi0bits+0x31>
 804d74b:	83 c1 04             	add    $0x4,%ecx
 804d74e:	c1 e2 04             	shl    $0x4,%edx
 804d751:	f7 c2 00 00 00 c0    	test   $0xc0000000,%edx
 804d757:	75 06                	jne    804d75f <__hi0bits+0x3f>
 804d759:	83 c1 02             	add    $0x2,%ecx
 804d75c:	c1 e2 02             	shl    $0x2,%edx
 804d75f:	85 d2                	test   %edx,%edx
 804d761:	89 c8                	mov    %ecx,%eax
 804d763:	78 0d                	js     804d772 <__hi0bits+0x52>
 804d765:	81 e2 00 00 00 40    	and    $0x40000000,%edx
 804d76b:	b8 20 00 00 00       	mov    $0x20,%eax
 804d770:	75 06                	jne    804d778 <__hi0bits+0x58>
 804d772:	5d                   	pop    %ebp
 804d773:	c3                   	ret    
 804d774:	8d 74 26 00          	lea    0x0(%esi,%eiz,1),%esi
 804d778:	8d 41 01             	lea    0x1(%ecx),%eax
 804d77b:	5d                   	pop    %ebp
 804d77c:	c3                   	ret    
 804d77d:	8d 76 00             	lea    0x0(%esi),%esi

0804d780 <__lo0bits>:
 804d780:	55                   	push   %ebp
 804d781:	89 e5                	mov    %esp,%ebp
 804d783:	53                   	push   %ebx
 804d784:	8b 5d 08             	mov    0x8(%ebp),%ebx
 804d787:	8b 13                	mov    (%ebx),%edx
 804d789:	f6 c2 07             	test   $0x7,%dl
 804d78c:	74 1a                	je     804d7a8 <__lo0bits+0x28>
 804d78e:	31 c0                	xor    %eax,%eax
 804d790:	f6 c2 01             	test   $0x1,%dl
 804d793:	75 0f                	jne    804d7a4 <__lo0bits+0x24>
 804d795:	f6 c2 02             	test   $0x2,%dl
 804d798:	75 56                	jne    804d7f0 <__lo0bits+0x70>
 804d79a:	c1 ea 02             	shr    $0x2,%edx
 804d79d:	b8 02 00 00 00       	mov    $0x2,%eax
 804d7a2:	89 13                	mov    %edx,(%ebx)
 804d7a4:	5b                   	pop    %ebx
 804d7a5:	5d                   	pop    %ebp
 804d7a6:	c3                   	ret    
 804d7a7:	90                   	nop
 804d7a8:	31 c9                	xor    %ecx,%ecx
 804d7aa:	66 85 d2             	test   %dx,%dx
 804d7ad:	75 05                	jne    804d7b4 <__lo0bits+0x34>
 804d7af:	c1 ea 10             	shr    $0x10,%edx
 804d7b2:	b1 10                	mov    $0x10,%cl
 804d7b4:	84 d2                	test   %dl,%dl
 804d7b6:	75 06                	jne    804d7be <__lo0bits+0x3e>
 804d7b8:	83 c1 08             	add    $0x8,%ecx
 804d7bb:	c1 ea 08             	shr    $0x8,%edx
 804d7be:	f6 c2 0f             	test   $0xf,%dl
 804d7c1:	75 06                	jne    804d7c9 <__lo0bits+0x49>
 804d7c3:	83 c1 04             	add    $0x4,%ecx
 804d7c6:	c1 ea 04             	shr    $0x4,%edx
 804d7c9:	f6 c2 03             	test   $0x3,%dl
 804d7cc:	75 06                	jne    804d7d4 <__lo0bits+0x54>
 804d7ce:	83 c1 02             	add    $0x2,%ecx
 804d7d1:	c1 ea 02             	shr    $0x2,%edx
 804d7d4:	f6 c2 01             	test   $0x1,%dl
 804d7d7:	75 0c                	jne    804d7e5 <__lo0bits+0x65>
 804d7d9:	d1 ea                	shr    %edx
 804d7db:	b8 20 00 00 00       	mov    $0x20,%eax
 804d7e0:	74 c2                	je     804d7a4 <__lo0bits+0x24>
 804d7e2:	83 c1 01             	add    $0x1,%ecx
 804d7e5:	89 13                	mov    %edx,(%ebx)
 804d7e7:	89 c8                	mov    %ecx,%eax
 804d7e9:	5b                   	pop    %ebx
 804d7ea:	5d                   	pop    %ebp
 804d7eb:	c3                   	ret    
 804d7ec:	8d 74 26 00          	lea    0x0(%esi,%eiz,1),%esi
 804d7f0:	d1 ea                	shr    %edx
 804d7f2:	b0 01                	mov    $0x1,%al
 804d7f4:	89 13                	mov    %edx,(%ebx)
 804d7f6:	5b                   	pop    %ebx
 804d7f7:	5d                   	pop    %ebp
 804d7f8:	c3                   	ret    
 804d7f9:	8d b4 26 00 00 00 00 	lea    0x0(%esi,%eiz,1),%esi

0804d800 <__i2b>:
 804d800:	55                   	push   %ebp
 804d801:	89 e5                	mov    %esp,%ebp
 804d803:	83 ec 18             	sub    $0x18,%esp
 804d806:	8b 45 08             	mov    0x8(%ebp),%eax
 804d809:	c7 44 24 04 01 00 00 	movl   $0x1,0x4(%esp)
 804d810:	00 
 804d811:	89 04 24             	mov    %eax,(%esp)
 804d814:	e8 67 fc ff ff       	call   804d480 <_Balloc>
 804d819:	8b 55 0c             	mov    0xc(%ebp),%edx
 804d81c:	89 50 14             	mov    %edx,0x14(%eax)
 804d81f:	c7 40 10 01 00 00 00 	movl   $0x1,0x10(%eax)
 804d826:	c9                   	leave  
 804d827:	c3                   	ret    
 804d828:	90                   	nop
 804d829:	8d b4 26 00 00 00 00 	lea    0x0(%esi,%eiz,1),%esi

0804d830 <__multiply>:
 804d830:	55                   	push   %ebp
 804d831:	89 e5                	mov    %esp,%ebp
 804d833:	57                   	push   %edi
 804d834:	56                   	push   %esi
 804d835:	53                   	push   %ebx
 804d836:	83 ec 3c             	sub    $0x3c,%esp
 804d839:	8b 75 0c             	mov    0xc(%ebp),%esi
 804d83c:	8b 45 10             	mov    0x10(%ebp),%eax
 804d83f:	8b 7e 10             	mov    0x10(%esi),%edi
 804d842:	8b 58 10             	mov    0x10(%eax),%ebx
 804d845:	39 df                	cmp    %ebx,%edi
 804d847:	7d 0e                	jge    804d857 <__multiply+0x27>
 804d849:	89 f8                	mov    %edi,%eax
 804d84b:	89 df                	mov    %ebx,%edi
 804d84d:	89 c3                	mov    %eax,%ebx
 804d84f:	89 f0                	mov    %esi,%eax
 804d851:	8b 75 10             	mov    0x10(%ebp),%esi
 804d854:	89 45 10             	mov    %eax,0x10(%ebp)
 804d857:	8d 04 1f             	lea    (%edi,%ebx,1),%eax
 804d85a:	3b 46 08             	cmp    0x8(%esi),%eax
 804d85d:	89 45 c8             	mov    %eax,-0x38(%ebp)
 804d860:	0f 9f c0             	setg   %al
 804d863:	0f b6 c0             	movzbl %al,%eax
 804d866:	03 46 04             	add    0x4(%esi),%eax
 804d869:	89 44 24 04          	mov    %eax,0x4(%esp)
 804d86d:	8b 45 08             	mov    0x8(%ebp),%eax
 804d870:	89 04 24             	mov    %eax,(%esp)
 804d873:	e8 08 fc ff ff       	call   804d480 <_Balloc>
 804d878:	8b 55 c8             	mov    -0x38(%ebp),%edx
 804d87b:	89 45 c0             	mov    %eax,-0x40(%ebp)
 804d87e:	8d 40 14             	lea    0x14(%eax),%eax
 804d881:	8d 14 90             	lea    (%eax,%edx,4),%edx
 804d884:	89 d1                	mov    %edx,%ecx
 804d886:	39 c8                	cmp    %ecx,%eax
 804d888:	89 45 d4             	mov    %eax,-0x2c(%ebp)
 804d88b:	89 55 c4             	mov    %edx,-0x3c(%ebp)
 804d88e:	73 15                	jae    804d8a5 <__multiply+0x75>
 804d890:	8b 55 c4             	mov    -0x3c(%ebp),%edx
 804d893:	90                   	nop
 804d894:	8d 74 26 00          	lea    0x0(%esi,%eiz,1),%esi
 804d898:	c7 00 00 00 00 00    	movl   $0x0,(%eax)
 804d89e:	83 c0 04             	add    $0x4,%eax
 804d8a1:	39 c2                	cmp    %eax,%edx
 804d8a3:	77 f3                	ja     804d898 <__multiply+0x68>
 804d8a5:	8d 46 14             	lea    0x14(%esi),%eax
 804d8a8:	89 45 d0             	mov    %eax,-0x30(%ebp)
 804d8ab:	8d 04 b8             	lea    (%eax,%edi,4),%eax
 804d8ae:	89 45 dc             	mov    %eax,-0x24(%ebp)
 804d8b1:	8b 45 10             	mov    0x10(%ebp),%eax
 804d8b4:	83 c0 14             	add    $0x14,%eax
 804d8b7:	8d 3c 98             	lea    (%eax,%ebx,4),%edi
 804d8ba:	39 f8                	cmp    %edi,%eax
 804d8bc:	89 45 d8             	mov    %eax,-0x28(%ebp)
 804d8bf:	89 7d cc             	mov    %edi,-0x34(%ebp)
 804d8c2:	0f 83 e8 00 00 00    	jae    804d9b0 <__multiply+0x180>
 804d8c8:	8b 45 d8             	mov    -0x28(%ebp),%eax
 804d8cb:	8b 00                	mov    (%eax),%eax
 804d8cd:	0f b7 f8             	movzwl %ax,%edi
 804d8d0:	85 ff                	test   %edi,%edi
 804d8d2:	89 7d e4             	mov    %edi,-0x1c(%ebp)
 804d8d5:	74 5a                	je     804d931 <__multiply+0x101>
 804d8d7:	8b 55 d4             	mov    -0x2c(%ebp),%edx
 804d8da:	31 db                	xor    %ebx,%ebx
 804d8dc:	8b 75 d0             	mov    -0x30(%ebp),%esi
 804d8df:	eb 09                	jmp    804d8ea <__multiply+0xba>
 804d8e1:	8d b4 26 00 00 00 00 	lea    0x0(%esi,%eiz,1),%esi
 804d8e8:	89 fa                	mov    %edi,%edx
 804d8ea:	8b 0e                	mov    (%esi),%ecx
 804d8ec:	83 c6 04             	add    $0x4,%esi
 804d8ef:	0f b7 3a             	movzwl (%edx),%edi
 804d8f2:	0f b7 c1             	movzwl %cx,%eax
 804d8f5:	0f af 45 e4          	imul   -0x1c(%ebp),%eax
 804d8f9:	c1 e9 10             	shr    $0x10,%ecx
 804d8fc:	0f af 4d e4          	imul   -0x1c(%ebp),%ecx
 804d900:	01 f8                	add    %edi,%eax
 804d902:	01 d8                	add    %ebx,%eax
 804d904:	8b 1a                	mov    (%edx),%ebx
 804d906:	8d 7a 04             	lea    0x4(%edx),%edi
 804d909:	c1 eb 10             	shr    $0x10,%ebx
 804d90c:	01 d9                	add    %ebx,%ecx
 804d90e:	89 c3                	mov    %eax,%ebx
 804d910:	c1 eb 10             	shr    $0x10,%ebx
 804d913:	0f b7 c0             	movzwl %ax,%eax
 804d916:	01 d9                	add    %ebx,%ecx
 804d918:	89 cb                	mov    %ecx,%ebx
 804d91a:	c1 e1 10             	shl    $0x10,%ecx
 804d91d:	09 c1                	or     %eax,%ecx
 804d91f:	c1 eb 10             	shr    $0x10,%ebx
 804d922:	39 75 dc             	cmp    %esi,-0x24(%ebp)
 804d925:	89 0a                	mov    %ecx,(%edx)
 804d927:	77 bf                	ja     804d8e8 <__multiply+0xb8>
 804d929:	8b 45 d8             	mov    -0x28(%ebp),%eax
 804d92c:	89 5a 04             	mov    %ebx,0x4(%edx)
 804d92f:	8b 00                	mov    (%eax),%eax
 804d931:	c1 e8 10             	shr    $0x10,%eax
 804d934:	85 c0                	test   %eax,%eax
 804d936:	89 45 e4             	mov    %eax,-0x1c(%ebp)
 804d939:	74 61                	je     804d99c <__multiply+0x16c>
 804d93b:	8b 45 d4             	mov    -0x2c(%ebp),%eax
 804d93e:	31 ff                	xor    %edi,%edi
 804d940:	89 fe                	mov    %edi,%esi
 804d942:	8b 10                	mov    (%eax),%edx
 804d944:	89 45 e0             	mov    %eax,-0x20(%ebp)
 804d947:	8b 45 d0             	mov    -0x30(%ebp),%eax
 804d94a:	89 d3                	mov    %edx,%ebx
 804d94c:	eb 05                	jmp    804d953 <__multiply+0x123>
 804d94e:	66 90                	xchg   %ax,%ax
 804d950:	89 4d e0             	mov    %ecx,-0x20(%ebp)
 804d953:	0f b7 08             	movzwl (%eax),%ecx
 804d956:	c1 eb 10             	shr    $0x10,%ebx
 804d959:	0f b7 d2             	movzwl %dx,%edx
 804d95c:	0f af 4d e4          	imul   -0x1c(%ebp),%ecx
 804d960:	83 c0 04             	add    $0x4,%eax
 804d963:	8d 3c 19             	lea    (%ecx,%ebx,1),%edi
 804d966:	01 f7                	add    %esi,%edi
 804d968:	8b 75 e0             	mov    -0x20(%ebp),%esi
 804d96b:	89 fb                	mov    %edi,%ebx
 804d96d:	c1 e3 10             	shl    $0x10,%ebx
 804d970:	09 d3                	or     %edx,%ebx
 804d972:	89 1e                	mov    %ebx,(%esi)
 804d974:	8b 5e 04             	mov    0x4(%esi),%ebx
 804d977:	8d 4e 04             	lea    0x4(%esi),%ecx
 804d97a:	0f b7 50 fe          	movzwl -0x2(%eax),%edx
 804d97e:	c1 ef 10             	shr    $0x10,%edi
 804d981:	0f af 55 e4          	imul   -0x1c(%ebp),%edx
 804d985:	0f b7 f3             	movzwl %bx,%esi
 804d988:	01 f2                	add    %esi,%edx
 804d98a:	01 fa                	add    %edi,%edx
 804d98c:	89 d6                	mov    %edx,%esi
 804d98e:	c1 ee 10             	shr    $0x10,%esi
 804d991:	39 45 dc             	cmp    %eax,-0x24(%ebp)
 804d994:	77 ba                	ja     804d950 <__multiply+0x120>
 804d996:	8b 45 e0             	mov    -0x20(%ebp),%eax
 804d999:	89 50 04             	mov    %edx,0x4(%eax)
 804d99c:	83 45 d8 04          	addl   $0x4,-0x28(%ebp)
 804d9a0:	8b 45 d8             	mov    -0x28(%ebp),%eax
 804d9a3:	83 45 d4 04          	addl   $0x4,-0x2c(%ebp)
 804d9a7:	39 45 cc             	cmp    %eax,-0x34(%ebp)
 804d9aa:	0f 87 18 ff ff ff    	ja     804d8c8 <__multiply+0x98>
 804d9b0:	8b 75 c8             	mov    -0x38(%ebp),%esi
 804d9b3:	85 f6                	test   %esi,%esi
 804d9b5:	7e 29                	jle    804d9e0 <__multiply+0x1b0>
 804d9b7:	8b 7d c4             	mov    -0x3c(%ebp),%edi
 804d9ba:	8b 5f fc             	mov    -0x4(%edi),%ebx
 804d9bd:	85 db                	test   %ebx,%ebx
 804d9bf:	75 1f                	jne    804d9e0 <__multiply+0x1b0>
 804d9c1:	8b 55 c8             	mov    -0x38(%ebp),%edx
 804d9c4:	89 d0                	mov    %edx,%eax
 804d9c6:	c1 e0 02             	shl    $0x2,%eax
 804d9c9:	29 c7                	sub    %eax,%edi
 804d9cb:	89 f8                	mov    %edi,%eax
 804d9cd:	eb 09                	jmp    804d9d8 <__multiply+0x1a8>
 804d9cf:	90                   	nop
 804d9d0:	8b 4c 90 fc          	mov    -0x4(%eax,%edx,4),%ecx
 804d9d4:	85 c9                	test   %ecx,%ecx
 804d9d6:	75 05                	jne    804d9dd <__multiply+0x1ad>
 804d9d8:	83 ea 01             	sub    $0x1,%edx
 804d9db:	75 f3                	jne    804d9d0 <__multiply+0x1a0>
 804d9dd:	89 55 c8             	mov    %edx,-0x38(%ebp)
 804d9e0:	8b 45 c0             	mov    -0x40(%ebp),%eax
 804d9e3:	8b 7d c8             	mov    -0x38(%ebp),%edi
 804d9e6:	89 78 10             	mov    %edi,0x10(%eax)
 804d9e9:	83 c4 3c             	add    $0x3c,%esp
 804d9ec:	5b                   	pop    %ebx
 804d9ed:	5e                   	pop    %esi
 804d9ee:	5f                   	pop    %edi
 804d9ef:	5d                   	pop    %ebp
 804d9f0:	c3                   	ret    
 804d9f1:	eb 0d                	jmp    804da00 <__pow5mult>
 804d9f3:	90                   	nop
 804d9f4:	90                   	nop
 804d9f5:	90                   	nop
 804d9f6:	90                   	nop
 804d9f7:	90                   	nop
 804d9f8:	90                   	nop
 804d9f9:	90                   	nop
 804d9fa:	90                   	nop
 804d9fb:	90                   	nop
 804d9fc:	90                   	nop
 804d9fd:	90                   	nop
 804d9fe:	90                   	nop
 804d9ff:	90                   	nop

0804da00 <__pow5mult>:
 804da00:	55                   	push   %ebp
 804da01:	89 e5                	mov    %esp,%ebp
 804da03:	57                   	push   %edi
 804da04:	56                   	push   %esi
 804da05:	53                   	push   %ebx
 804da06:	83 ec 2c             	sub    $0x2c,%esp
 804da09:	8b 5d 10             	mov    0x10(%ebp),%ebx
 804da0c:	8b 4d 08             	mov    0x8(%ebp),%ecx
 804da0f:	8b 7d 0c             	mov    0xc(%ebp),%edi
 804da12:	89 d8                	mov    %ebx,%eax
 804da14:	83 e0 03             	and    $0x3,%eax
 804da17:	0f 85 a3 00 00 00    	jne    804dac0 <__pow5mult+0xc0>
 804da1d:	c1 fb 02             	sar    $0x2,%ebx
 804da20:	85 db                	test   %ebx,%ebx
 804da22:	74 5c                	je     804da80 <__pow5mult+0x80>
 804da24:	8b 71 48             	mov    0x48(%ecx),%esi
 804da27:	85 f6                	test   %esi,%esi
 804da29:	0f 84 bd 00 00 00    	je     804daec <__pow5mult+0xec>
 804da2f:	f6 c3 01             	test   $0x1,%bl
 804da32:	75 15                	jne    804da49 <__pow5mult+0x49>
 804da34:	8d 74 26 00          	lea    0x0(%esi,%eiz,1),%esi
 804da38:	d1 fb                	sar    %ebx
 804da3a:	74 44                	je     804da80 <__pow5mult+0x80>
 804da3c:	8b 06                	mov    (%esi),%eax
 804da3e:	85 c0                	test   %eax,%eax
 804da40:	74 4e                	je     804da90 <__pow5mult+0x90>
 804da42:	89 c6                	mov    %eax,%esi
 804da44:	f6 c3 01             	test   $0x1,%bl
 804da47:	74 ef                	je     804da38 <__pow5mult+0x38>
 804da49:	89 0c 24             	mov    %ecx,(%esp)
 804da4c:	89 74 24 08          	mov    %esi,0x8(%esp)
 804da50:	89 7c 24 04          	mov    %edi,0x4(%esp)
 804da54:	89 4d e4             	mov    %ecx,-0x1c(%ebp)
 804da57:	e8 d4 fd ff ff       	call   804d830 <__multiply>
 804da5c:	85 ff                	test   %edi,%edi
 804da5e:	8b 4d e4             	mov    -0x1c(%ebp),%ecx
 804da61:	89 45 e0             	mov    %eax,-0x20(%ebp)
 804da64:	74 52                	je     804dab8 <__pow5mult+0xb8>
 804da66:	8b 57 04             	mov    0x4(%edi),%edx
 804da69:	d1 fb                	sar    %ebx
 804da6b:	8b 41 4c             	mov    0x4c(%ecx),%eax
 804da6e:	8d 04 90             	lea    (%eax,%edx,4),%eax
 804da71:	8b 10                	mov    (%eax),%edx
 804da73:	89 17                	mov    %edx,(%edi)
 804da75:	89 38                	mov    %edi,(%eax)
 804da77:	8b 7d e0             	mov    -0x20(%ebp),%edi
 804da7a:	75 c0                	jne    804da3c <__pow5mult+0x3c>
 804da7c:	8d 74 26 00          	lea    0x0(%esi,%eiz,1),%esi
 804da80:	83 c4 2c             	add    $0x2c,%esp
 804da83:	89 f8                	mov    %edi,%eax
 804da85:	5b                   	pop    %ebx
 804da86:	5e                   	pop    %esi
 804da87:	5f                   	pop    %edi
 804da88:	5d                   	pop    %ebp
 804da89:	c3                   	ret    
 804da8a:	8d b6 00 00 00 00    	lea    0x0(%esi),%esi
 804da90:	89 74 24 08          	mov    %esi,0x8(%esp)
 804da94:	89 74 24 04          	mov    %esi,0x4(%esp)
 804da98:	89 0c 24             	mov    %ecx,(%esp)
 804da9b:	89 4d e4             	mov    %ecx,-0x1c(%ebp)
 804da9e:	e8 8d fd ff ff       	call   804d830 <__multiply>
 804daa3:	8b 4d e4             	mov    -0x1c(%ebp),%ecx
 804daa6:	89 06                	mov    %eax,(%esi)
 804daa8:	89 c6                	mov    %eax,%esi
 804daaa:	c7 00 00 00 00 00    	movl   $0x0,(%eax)
 804dab0:	eb 92                	jmp    804da44 <__pow5mult+0x44>
 804dab2:	8d b6 00 00 00 00    	lea    0x0(%esi),%esi
 804dab8:	8b 7d e0             	mov    -0x20(%ebp),%edi
 804dabb:	e9 78 ff ff ff       	jmp    804da38 <__pow5mult+0x38>
 804dac0:	8b 04 85 9c 07 05 08 	mov    0x805079c(,%eax,4),%eax
 804dac7:	89 7c 24 04          	mov    %edi,0x4(%esp)
 804dacb:	89 0c 24             	mov    %ecx,(%esp)
 804dace:	c7 44 24 0c 00 00 00 	movl   $0x0,0xc(%esp)
 804dad5:	00 
 804dad6:	89 44 24 08          	mov    %eax,0x8(%esp)
 804dada:	89 4d e4             	mov    %ecx,-0x1c(%ebp)
 804dadd:	e8 5e fa ff ff       	call   804d540 <__multadd>
 804dae2:	8b 4d e4             	mov    -0x1c(%ebp),%ecx
 804dae5:	89 c7                	mov    %eax,%edi
 804dae7:	e9 31 ff ff ff       	jmp    804da1d <__pow5mult+0x1d>
 804daec:	89 0c 24             	mov    %ecx,(%esp)
 804daef:	c7 44 24 04 01 00 00 	movl   $0x1,0x4(%esp)
 804daf6:	00 
 804daf7:	89 4d e4             	mov    %ecx,-0x1c(%ebp)
 804dafa:	e8 81 f9 ff ff       	call   804d480 <_Balloc>
 804daff:	8b 4d e4             	mov    -0x1c(%ebp),%ecx
 804db02:	c7 40 14 71 02 00 00 	movl   $0x271,0x14(%eax)
 804db09:	89 c6                	mov    %eax,%esi
 804db0b:	c7 40 10 01 00 00 00 	movl   $0x1,0x10(%eax)
 804db12:	89 41 48             	mov    %eax,0x48(%ecx)
 804db15:	c7 00 00 00 00 00    	movl   $0x0,(%eax)
 804db1b:	e9 0f ff ff ff       	jmp    804da2f <__pow5mult+0x2f>

0804db20 <__lshift>:
 804db20:	55                   	push   %ebp
 804db21:	89 e5                	mov    %esp,%ebp
 804db23:	57                   	push   %edi
 804db24:	56                   	push   %esi
 804db25:	53                   	push   %ebx
 804db26:	83 ec 2c             	sub    $0x2c,%esp
 804db29:	8b 45 0c             	mov    0xc(%ebp),%eax
 804db2c:	8b 75 10             	mov    0x10(%ebp),%esi
 804db2f:	89 c7                	mov    %eax,%edi
 804db31:	8b 50 04             	mov    0x4(%eax),%edx
 804db34:	8b 40 10             	mov    0x10(%eax),%eax
 804db37:	89 f3                	mov    %esi,%ebx
 804db39:	c1 fb 05             	sar    $0x5,%ebx
 804db3c:	01 d8                	add    %ebx,%eax
 804db3e:	89 45 d0             	mov    %eax,-0x30(%ebp)
 804db41:	83 c0 01             	add    $0x1,%eax
 804db44:	89 c1                	mov    %eax,%ecx
 804db46:	89 45 d8             	mov    %eax,-0x28(%ebp)
 804db49:	8b 47 08             	mov    0x8(%edi),%eax
 804db4c:	39 c1                	cmp    %eax,%ecx
 804db4e:	7e 09                	jle    804db59 <__lshift+0x39>
 804db50:	01 c0                	add    %eax,%eax
 804db52:	83 c2 01             	add    $0x1,%edx
 804db55:	39 c1                	cmp    %eax,%ecx
 804db57:	7f f7                	jg     804db50 <__lshift+0x30>
 804db59:	8b 45 08             	mov    0x8(%ebp),%eax
 804db5c:	89 54 24 04          	mov    %edx,0x4(%esp)
 804db60:	89 04 24             	mov    %eax,(%esp)
 804db63:	e8 18 f9 ff ff       	call   804d480 <_Balloc>
 804db68:	85 db                	test   %ebx,%ebx
 804db6a:	89 45 d4             	mov    %eax,-0x2c(%ebp)
 804db6d:	8d 50 14             	lea    0x14(%eax),%edx
 804db70:	7e 17                	jle    804db89 <__lshift+0x69>
 804db72:	31 c0                	xor    %eax,%eax
 804db74:	8d 74 26 00          	lea    0x0(%esi,%eiz,1),%esi
 804db78:	c7 04 82 00 00 00 00 	movl   $0x0,(%edx,%eax,4)
 804db7f:	83 c0 01             	add    $0x1,%eax
 804db82:	39 d8                	cmp    %ebx,%eax
 804db84:	75 f2                	jne    804db78 <__lshift+0x58>
 804db86:	8d 14 82             	lea    (%edx,%eax,4),%edx
 804db89:	8b 7d 0c             	mov    0xc(%ebp),%edi
 804db8c:	8b 45 0c             	mov    0xc(%ebp),%eax
 804db8f:	8b 4f 10             	mov    0x10(%edi),%ecx
 804db92:	83 c0 14             	add    $0x14,%eax
 804db95:	83 e6 1f             	and    $0x1f,%esi
 804db98:	89 75 e0             	mov    %esi,-0x20(%ebp)
 804db9b:	8d 3c 88             	lea    (%eax,%ecx,4),%edi
 804db9e:	89 7d e4             	mov    %edi,-0x1c(%ebp)
 804dba1:	74 7d                	je     804dc20 <__lshift+0x100>
 804dba3:	c7 45 dc 20 00 00 00 	movl   $0x20,-0x24(%ebp)
 804dbaa:	29 75 dc             	sub    %esi,-0x24(%ebp)
 804dbad:	31 f6                	xor    %esi,%esi
 804dbaf:	eb 09                	jmp    804dbba <__lshift+0x9a>
 804dbb1:	8d b4 26 00 00 00 00 	lea    0x0(%esi,%eiz,1),%esi
 804dbb8:	89 fa                	mov    %edi,%edx
 804dbba:	8b 18                	mov    (%eax),%ebx
 804dbbc:	83 c0 04             	add    $0x4,%eax
 804dbbf:	0f b6 4d e0          	movzbl -0x20(%ebp),%ecx
 804dbc3:	8d 7a 04             	lea    0x4(%edx),%edi
 804dbc6:	d3 e3                	shl    %cl,%ebx
 804dbc8:	0f b6 4d dc          	movzbl -0x24(%ebp),%ecx
 804dbcc:	09 f3                	or     %esi,%ebx
 804dbce:	89 1a                	mov    %ebx,(%edx)
 804dbd0:	8b 70 fc             	mov    -0x4(%eax),%esi
 804dbd3:	d3 ee                	shr    %cl,%esi
 804dbd5:	39 45 e4             	cmp    %eax,-0x1c(%ebp)
 804dbd8:	77 de                	ja     804dbb8 <__lshift+0x98>
 804dbda:	8b 45 d0             	mov    -0x30(%ebp),%eax
 804dbdd:	89 72 04             	mov    %esi,0x4(%edx)
 804dbe0:	83 c0 02             	add    $0x2,%eax
 804dbe3:	85 f6                	test   %esi,%esi
 804dbe5:	0f 44 45 d8          	cmove  -0x28(%ebp),%eax
 804dbe9:	89 45 d8             	mov    %eax,-0x28(%ebp)
 804dbec:	8b 45 d8             	mov    -0x28(%ebp),%eax
 804dbef:	8b 7d d4             	mov    -0x2c(%ebp),%edi
 804dbf2:	8b 75 0c             	mov    0xc(%ebp),%esi
 804dbf5:	83 e8 01             	sub    $0x1,%eax
 804dbf8:	89 47 10             	mov    %eax,0x10(%edi)
 804dbfb:	8b 45 0c             	mov    0xc(%ebp),%eax
 804dbfe:	8b 50 04             	mov    0x4(%eax),%edx
 804dc01:	8b 45 08             	mov    0x8(%ebp),%eax
 804dc04:	8b 40 4c             	mov    0x4c(%eax),%eax
 804dc07:	8d 04 90             	lea    (%eax,%edx,4),%eax
 804dc0a:	8b 10                	mov    (%eax),%edx
 804dc0c:	89 16                	mov    %edx,(%esi)
 804dc0e:	89 30                	mov    %esi,(%eax)
 804dc10:	83 c4 2c             	add    $0x2c,%esp
 804dc13:	89 f8                	mov    %edi,%eax
 804dc15:	5b                   	pop    %ebx
 804dc16:	5e                   	pop    %esi
 804dc17:	5f                   	pop    %edi
 804dc18:	5d                   	pop    %ebp
 804dc19:	c3                   	ret    
 804dc1a:	8d b6 00 00 00 00    	lea    0x0(%esi),%esi
 804dc20:	8b 5d e4             	mov    -0x1c(%ebp),%ebx
 804dc23:	90                   	nop
 804dc24:	8d 74 26 00          	lea    0x0(%esi,%eiz,1),%esi
 804dc28:	83 c0 04             	add    $0x4,%eax
 804dc2b:	8b 48 fc             	mov    -0x4(%eax),%ecx
 804dc2e:	83 c2 04             	add    $0x4,%edx
 804dc31:	39 c3                	cmp    %eax,%ebx
 804dc33:	89 4a fc             	mov    %ecx,-0x4(%edx)
 804dc36:	77 f0                	ja     804dc28 <__lshift+0x108>
 804dc38:	eb b2                	jmp    804dbec <__lshift+0xcc>
 804dc3a:	8d b6 00 00 00 00    	lea    0x0(%esi),%esi

0804dc40 <__mcmp>:
 804dc40:	55                   	push   %ebp
 804dc41:	89 e5                	mov    %esp,%ebp
 804dc43:	8b 4d 08             	mov    0x8(%ebp),%ecx
 804dc46:	8b 55 0c             	mov    0xc(%ebp),%edx
 804dc49:	53                   	push   %ebx
 804dc4a:	8b 41 10             	mov    0x10(%ecx),%eax
 804dc4d:	8b 5a 10             	mov    0x10(%edx),%ebx
 804dc50:	29 d8                	sub    %ebx,%eax
 804dc52:	85 c0                	test   %eax,%eax
 804dc54:	75 27                	jne    804dc7d <__mcmp+0x3d>
 804dc56:	c1 e3 02             	shl    $0x2,%ebx
 804dc59:	83 c1 14             	add    $0x14,%ecx
 804dc5c:	8d 04 19             	lea    (%ecx,%ebx,1),%eax
 804dc5f:	8d 54 1a 14          	lea    0x14(%edx,%ebx,1),%edx
 804dc63:	eb 07                	jmp    804dc6c <__mcmp+0x2c>
 804dc65:	8d 76 00             	lea    0x0(%esi),%esi
 804dc68:	39 c1                	cmp    %eax,%ecx
 804dc6a:	73 14                	jae    804dc80 <__mcmp+0x40>
 804dc6c:	83 ea 04             	sub    $0x4,%edx
 804dc6f:	83 e8 04             	sub    $0x4,%eax
 804dc72:	8b 1a                	mov    (%edx),%ebx
 804dc74:	39 18                	cmp    %ebx,(%eax)
 804dc76:	74 f0                	je     804dc68 <__mcmp+0x28>
 804dc78:	19 c0                	sbb    %eax,%eax
 804dc7a:	83 c8 01             	or     $0x1,%eax
 804dc7d:	5b                   	pop    %ebx
 804dc7e:	5d                   	pop    %ebp
 804dc7f:	c3                   	ret    
 804dc80:	31 c0                	xor    %eax,%eax
 804dc82:	5b                   	pop    %ebx
 804dc83:	5d                   	pop    %ebp
 804dc84:	c3                   	ret    
 804dc85:	8d 74 26 00          	lea    0x0(%esi,%eiz,1),%esi
 804dc89:	8d bc 27 00 00 00 00 	lea    0x0(%edi,%eiz,1),%edi

0804dc90 <__mdiff>:
 804dc90:	55                   	push   %ebp
 804dc91:	89 e5                	mov    %esp,%ebp
 804dc93:	57                   	push   %edi
 804dc94:	56                   	push   %esi
 804dc95:	53                   	push   %ebx
 804dc96:	83 ec 2c             	sub    $0x2c,%esp
 804dc99:	8b 75 0c             	mov    0xc(%ebp),%esi
 804dc9c:	8b 5d 10             	mov    0x10(%ebp),%ebx
 804dc9f:	89 34 24             	mov    %esi,(%esp)
 804dca2:	89 5c 24 04          	mov    %ebx,0x4(%esp)
 804dca6:	e8 95 ff ff ff       	call   804dc40 <__mcmp>
 804dcab:	85 c0                	test   %eax,%eax
 804dcad:	0f 84 25 01 00 00    	je     804ddd8 <__mdiff+0x148>
 804dcb3:	0f 88 0f 01 00 00    	js     804ddc8 <__mdiff+0x138>
 804dcb9:	31 ff                	xor    %edi,%edi
 804dcbb:	8b 46 04             	mov    0x4(%esi),%eax
 804dcbe:	83 c6 14             	add    $0x14,%esi
 804dcc1:	89 44 24 04          	mov    %eax,0x4(%esp)
 804dcc5:	8b 45 08             	mov    0x8(%ebp),%eax
 804dcc8:	89 04 24             	mov    %eax,(%esp)
 804dccb:	e8 b0 f7 ff ff       	call   804d480 <_Balloc>
 804dcd0:	8d 4b 14             	lea    0x14(%ebx),%ecx
 804dcd3:	89 c2                	mov    %eax,%edx
 804dcd5:	89 45 d4             	mov    %eax,-0x2c(%ebp)
 804dcd8:	89 78 0c             	mov    %edi,0xc(%eax)
 804dcdb:	8b 46 fc             	mov    -0x4(%esi),%eax
 804dcde:	89 75 e4             	mov    %esi,-0x1c(%ebp)
 804dce1:	89 45 dc             	mov    %eax,-0x24(%ebp)
 804dce4:	8d 04 86             	lea    (%esi,%eax,4),%eax
 804dce7:	89 45 d8             	mov    %eax,-0x28(%ebp)
 804dcea:	8b 43 10             	mov    0x10(%ebx),%eax
 804dced:	31 db                	xor    %ebx,%ebx
 804dcef:	8d 04 81             	lea    (%ecx,%eax,4),%eax
 804dcf2:	89 45 e0             	mov    %eax,-0x20(%ebp)
 804dcf5:	89 d0                	mov    %edx,%eax
 804dcf7:	83 c0 14             	add    $0x14,%eax
 804dcfa:	8d b6 00 00 00 00    	lea    0x0(%esi),%esi
 804dd00:	8b 75 e4             	mov    -0x1c(%ebp),%esi
 804dd03:	83 c0 04             	add    $0x4,%eax
 804dd06:	83 c1 04             	add    $0x4,%ecx
 804dd09:	83 45 e4 04          	addl   $0x4,-0x1c(%ebp)
 804dd0d:	8b 3e                	mov    (%esi),%edi
 804dd0f:	8b 71 fc             	mov    -0x4(%ecx),%esi
 804dd12:	0f b7 d7             	movzwl %di,%edx
 804dd15:	01 da                	add    %ebx,%edx
 804dd17:	0f b7 de             	movzwl %si,%ebx
 804dd1a:	29 da                	sub    %ebx,%edx
 804dd1c:	c1 ef 10             	shr    $0x10,%edi
 804dd1f:	89 d3                	mov    %edx,%ebx
 804dd21:	c1 ee 10             	shr    $0x10,%esi
 804dd24:	0f b7 d2             	movzwl %dx,%edx
 804dd27:	c1 fb 10             	sar    $0x10,%ebx
 804dd2a:	29 f7                	sub    %esi,%edi
 804dd2c:	01 df                	add    %ebx,%edi
 804dd2e:	89 fb                	mov    %edi,%ebx
 804dd30:	c1 e7 10             	shl    $0x10,%edi
 804dd33:	09 d7                	or     %edx,%edi
 804dd35:	c1 fb 10             	sar    $0x10,%ebx
 804dd38:	39 4d e0             	cmp    %ecx,-0x20(%ebp)
 804dd3b:	89 78 fc             	mov    %edi,-0x4(%eax)
 804dd3e:	77 c0                	ja     804dd00 <__mdiff+0x70>
 804dd40:	8b 75 e4             	mov    -0x1c(%ebp),%esi
 804dd43:	8b 4d d8             	mov    -0x28(%ebp),%ecx
 804dd46:	89 45 e4             	mov    %eax,-0x1c(%ebp)
 804dd49:	89 75 e0             	mov    %esi,-0x20(%ebp)
 804dd4c:	39 f1                	cmp    %esi,%ecx
 804dd4e:	76 3f                	jbe    804dd8f <__mdiff+0xff>
 804dd50:	8b 3e                	mov    (%esi),%edi
 804dd52:	83 c6 04             	add    $0x4,%esi
 804dd55:	83 c0 04             	add    $0x4,%eax
 804dd58:	0f b7 d7             	movzwl %di,%edx
 804dd5b:	01 da                	add    %ebx,%edx
 804dd5d:	89 d3                	mov    %edx,%ebx
 804dd5f:	0f b7 d2             	movzwl %dx,%edx
 804dd62:	c1 fb 10             	sar    $0x10,%ebx
 804dd65:	c1 ef 10             	shr    $0x10,%edi
 804dd68:	01 df                	add    %ebx,%edi
 804dd6a:	89 fb                	mov    %edi,%ebx
 804dd6c:	c1 e7 10             	shl    $0x10,%edi
 804dd6f:	09 d7                	or     %edx,%edi
 804dd71:	c1 fb 10             	sar    $0x10,%ebx
 804dd74:	39 f1                	cmp    %esi,%ecx
 804dd76:	89 78 fc             	mov    %edi,-0x4(%eax)
 804dd79:	77 d5                	ja     804dd50 <__mdiff+0xc0>
 804dd7b:	8b 45 e0             	mov    -0x20(%ebp),%eax
 804dd7e:	8b 4d d8             	mov    -0x28(%ebp),%ecx
 804dd81:	f7 d0                	not    %eax
 804dd83:	01 c8                	add    %ecx,%eax
 804dd85:	8b 4d e4             	mov    -0x1c(%ebp),%ecx
 804dd88:	c1 e8 02             	shr    $0x2,%eax
 804dd8b:	8d 44 81 04          	lea    0x4(%ecx,%eax,4),%eax
 804dd8f:	85 ff                	test   %edi,%edi
 804dd91:	75 23                	jne    804ddb6 <__mdiff+0x126>
 804dd93:	8b 4d dc             	mov    -0x24(%ebp),%ecx
 804dd96:	8d 14 8d 00 00 00 00 	lea    0x0(,%ecx,4),%edx
 804dd9d:	29 d0                	sub    %edx,%eax
 804dd9f:	89 ca                	mov    %ecx,%edx
 804dda1:	8d b4 26 00 00 00 00 	lea    0x0(%esi,%eiz,1),%esi
 804dda8:	83 ea 01             	sub    $0x1,%edx
 804ddab:	8b 4c 90 fc          	mov    -0x4(%eax,%edx,4),%ecx
 804ddaf:	85 c9                	test   %ecx,%ecx
 804ddb1:	74 f5                	je     804dda8 <__mdiff+0x118>
 804ddb3:	89 55 dc             	mov    %edx,-0x24(%ebp)
 804ddb6:	8b 45 d4             	mov    -0x2c(%ebp),%eax
 804ddb9:	8b 4d dc             	mov    -0x24(%ebp),%ecx
 804ddbc:	89 48 10             	mov    %ecx,0x10(%eax)
 804ddbf:	83 c4 2c             	add    $0x2c,%esp
 804ddc2:	5b                   	pop    %ebx
 804ddc3:	5e                   	pop    %esi
 804ddc4:	5f                   	pop    %edi
 804ddc5:	5d                   	pop    %ebp
 804ddc6:	c3                   	ret    
 804ddc7:	90                   	nop
 804ddc8:	89 f0                	mov    %esi,%eax
 804ddca:	bf 01 00 00 00       	mov    $0x1,%edi
 804ddcf:	89 de                	mov    %ebx,%esi
 804ddd1:	89 c3                	mov    %eax,%ebx
 804ddd3:	e9 e3 fe ff ff       	jmp    804dcbb <__mdiff+0x2b>
 804ddd8:	8b 45 08             	mov    0x8(%ebp),%eax
 804dddb:	c7 44 24 04 00 00 00 	movl   $0x0,0x4(%esp)
 804dde2:	00 
 804dde3:	89 04 24             	mov    %eax,(%esp)
 804dde6:	e8 95 f6 ff ff       	call   804d480 <_Balloc>
 804ddeb:	c7 40 10 01 00 00 00 	movl   $0x1,0x10(%eax)
 804ddf2:	c7 40 14 00 00 00 00 	movl   $0x0,0x14(%eax)
 804ddf9:	83 c4 2c             	add    $0x2c,%esp
 804ddfc:	5b                   	pop    %ebx
 804ddfd:	5e                   	pop    %esi
 804ddfe:	5f                   	pop    %edi
 804ddff:	5d                   	pop    %ebp
 804de00:	c3                   	ret    
 804de01:	eb 0d                	jmp    804de10 <__ulp>
 804de03:	90                   	nop
 804de04:	90                   	nop
 804de05:	90                   	nop
 804de06:	90                   	nop
 804de07:	90                   	nop
 804de08:	90                   	nop
 804de09:	90                   	nop
 804de0a:	90                   	nop
 804de0b:	90                   	nop
 804de0c:	90                   	nop
 804de0d:	90                   	nop
 804de0e:	90                   	nop
 804de0f:	90                   	nop

0804de10 <__ulp>:
 804de10:	55                   	push   %ebp
 804de11:	89 e5                	mov    %esp,%ebp
 804de13:	83 ec 08             	sub    $0x8,%esp
 804de16:	dd 45 08             	fldl   0x8(%ebp)
 804de19:	dd 5d f8             	fstpl  -0x8(%ebp)
 804de1c:	8b 4d fc             	mov    -0x4(%ebp),%ecx
 804de1f:	81 e1 00 00 f0 7f    	and    $0x7ff00000,%ecx
 804de25:	81 e9 00 00 40 03    	sub    $0x3400000,%ecx
 804de2b:	85 c9                	test   %ecx,%ecx
 804de2d:	7e 11                	jle    804de40 <__ulp+0x30>
 804de2f:	89 4d fc             	mov    %ecx,-0x4(%ebp)
 804de32:	c7 45 f8 00 00 00 00 	movl   $0x0,-0x8(%ebp)
 804de39:	dd 45 f8             	fldl   -0x8(%ebp)
 804de3c:	c9                   	leave  
 804de3d:	c3                   	ret    
 804de3e:	66 90                	xchg   %ax,%ax
 804de40:	f7 d9                	neg    %ecx
 804de42:	c1 f9 14             	sar    $0x14,%ecx
 804de45:	83 f9 13             	cmp    $0x13,%ecx
 804de48:	7e 26                	jle    804de70 <__ulp+0x60>
 804de4a:	83 f9 32             	cmp    $0x32,%ecx
 804de4d:	b8 01 00 00 00       	mov    $0x1,%eax
 804de52:	c7 45 fc 00 00 00 00 	movl   $0x0,-0x4(%ebp)
 804de59:	7f 0b                	jg     804de66 <__ulp+0x56>
 804de5b:	ba 33 00 00 00       	mov    $0x33,%edx
 804de60:	29 ca                	sub    %ecx,%edx
 804de62:	89 d1                	mov    %edx,%ecx
 804de64:	d3 e0                	shl    %cl,%eax
 804de66:	89 45 f8             	mov    %eax,-0x8(%ebp)
 804de69:	dd 45 f8             	fldl   -0x8(%ebp)
 804de6c:	c9                   	leave  
 804de6d:	c3                   	ret    
 804de6e:	66 90                	xchg   %ax,%ax
 804de70:	b8 00 00 08 00       	mov    $0x80000,%eax
 804de75:	d3 f8                	sar    %cl,%eax
 804de77:	89 45 fc             	mov    %eax,-0x4(%ebp)
 804de7a:	c7 45 f8 00 00 00 00 	movl   $0x0,-0x8(%ebp)
 804de81:	dd 45 f8             	fldl   -0x8(%ebp)
 804de84:	c9                   	leave  
 804de85:	c3                   	ret    
 804de86:	8d 76 00             	lea    0x0(%esi),%esi
 804de89:	8d bc 27 00 00 00 00 	lea    0x0(%edi,%eiz,1),%edi

0804de90 <__b2d>:
 804de90:	55                   	push   %ebp
 804de91:	89 e5                	mov    %esp,%ebp
 804de93:	57                   	push   %edi
 804de94:	56                   	push   %esi
 804de95:	53                   	push   %ebx
 804de96:	83 ec 18             	sub    $0x18,%esp
 804de99:	8b 45 08             	mov    0x8(%ebp),%eax
 804de9c:	8d 78 14             	lea    0x14(%eax),%edi
 804de9f:	8b 40 10             	mov    0x10(%eax),%eax
 804dea2:	8d 1c 87             	lea    (%edi,%eax,4),%ebx
 804dea5:	8b 73 fc             	mov    -0x4(%ebx),%esi
 804dea8:	8d 43 fc             	lea    -0x4(%ebx),%eax
 804deab:	89 45 e4             	mov    %eax,-0x1c(%ebp)
 804deae:	89 34 24             	mov    %esi,(%esp)
 804deb1:	e8 6a f8 ff ff       	call   804d720 <__hi0bits>
 804deb6:	8b 4d 0c             	mov    0xc(%ebp),%ecx
 804deb9:	ba 20 00 00 00       	mov    $0x20,%edx
 804debe:	29 c2                	sub    %eax,%edx
 804dec0:	83 f8 0a             	cmp    $0xa,%eax
 804dec3:	89 11                	mov    %edx,(%ecx)
 804dec5:	7f 41                	jg     804df08 <__b2d+0x78>
 804dec7:	b9 0b 00 00 00       	mov    $0xb,%ecx
 804decc:	89 f2                	mov    %esi,%edx
 804dece:	29 c1                	sub    %eax,%ecx
 804ded0:	d3 ea                	shr    %cl,%edx
 804ded2:	81 ca 00 00 f0 3f    	or     $0x3ff00000,%edx
 804ded8:	89 55 ec             	mov    %edx,-0x14(%ebp)
 804dedb:	31 d2                	xor    %edx,%edx
 804dedd:	3b 7d e4             	cmp    -0x1c(%ebp),%edi
 804dee0:	c7 45 e8 00 00 00 00 	movl   $0x0,-0x18(%ebp)
 804dee7:	73 05                	jae    804deee <__b2d+0x5e>
 804dee9:	8b 53 f8             	mov    -0x8(%ebx),%edx
 804deec:	d3 ea                	shr    %cl,%edx
 804deee:	8d 48 15             	lea    0x15(%eax),%ecx
 804def1:	d3 e6                	shl    %cl,%esi
 804def3:	09 f2                	or     %esi,%edx
 804def5:	89 55 e8             	mov    %edx,-0x18(%ebp)
 804def8:	dd 45 e8             	fldl   -0x18(%ebp)
 804defb:	83 c4 18             	add    $0x18,%esp
 804defe:	5b                   	pop    %ebx
 804deff:	5e                   	pop    %esi
 804df00:	5f                   	pop    %edi
 804df01:	5d                   	pop    %ebp
 804df02:	c3                   	ret    
 804df03:	90                   	nop
 804df04:	8d 74 26 00          	lea    0x0(%esi,%eiz,1),%esi
 804df08:	31 d2                	xor    %edx,%edx
 804df0a:	3b 7d e4             	cmp    -0x1c(%ebp),%edi
 804df0d:	73 09                	jae    804df18 <__b2d+0x88>
 804df0f:	8b 53 f8             	mov    -0x8(%ebx),%edx
 804df12:	8d 4b f8             	lea    -0x8(%ebx),%ecx
 804df15:	89 4d e4             	mov    %ecx,-0x1c(%ebp)
 804df18:	89 c3                	mov    %eax,%ebx
 804df1a:	83 eb 0b             	sub    $0xb,%ebx
 804df1d:	89 5d e0             	mov    %ebx,-0x20(%ebp)
 804df20:	74 4e                	je     804df70 <__b2d+0xe0>
 804df22:	0f b6 4d e0          	movzbl -0x20(%ebp),%ecx
 804df26:	bb 2b 00 00 00       	mov    $0x2b,%ebx
 804df2b:	29 c3                	sub    %eax,%ebx
 804df2d:	89 d0                	mov    %edx,%eax
 804df2f:	c7 45 e8 00 00 00 00 	movl   $0x0,-0x18(%ebp)
 804df36:	d3 e6                	shl    %cl,%esi
 804df38:	89 d9                	mov    %ebx,%ecx
 804df3a:	d3 e8                	shr    %cl,%eax
 804df3c:	8b 4d e4             	mov    -0x1c(%ebp),%ecx
 804df3f:	81 ce 00 00 f0 3f    	or     $0x3ff00000,%esi
 804df45:	09 c6                	or     %eax,%esi
 804df47:	31 c0                	xor    %eax,%eax
 804df49:	89 75 ec             	mov    %esi,-0x14(%ebp)
 804df4c:	39 f9                	cmp    %edi,%ecx
 804df4e:	76 07                	jbe    804df57 <__b2d+0xc7>
 804df50:	8b 41 fc             	mov    -0x4(%ecx),%eax
 804df53:	89 d9                	mov    %ebx,%ecx
 804df55:	d3 e8                	shr    %cl,%eax
 804df57:	0f b6 4d e0          	movzbl -0x20(%ebp),%ecx
 804df5b:	d3 e2                	shl    %cl,%edx
 804df5d:	09 d0                	or     %edx,%eax
 804df5f:	89 45 e8             	mov    %eax,-0x18(%ebp)
 804df62:	dd 45 e8             	fldl   -0x18(%ebp)
 804df65:	83 c4 18             	add    $0x18,%esp
 804df68:	5b                   	pop    %ebx
 804df69:	5e                   	pop    %esi
 804df6a:	5f                   	pop    %edi
 804df6b:	5d                   	pop    %ebp
 804df6c:	c3                   	ret    
 804df6d:	8d 76 00             	lea    0x0(%esi),%esi
 804df70:	81 ce 00 00 f0 3f    	or     $0x3ff00000,%esi
 804df76:	89 75 ec             	mov    %esi,-0x14(%ebp)
 804df79:	89 55 e8             	mov    %edx,-0x18(%ebp)
 804df7c:	dd 45 e8             	fldl   -0x18(%ebp)
 804df7f:	83 c4 18             	add    $0x18,%esp
 804df82:	5b                   	pop    %ebx
 804df83:	5e                   	pop    %esi
 804df84:	5f                   	pop    %edi
 804df85:	5d                   	pop    %ebp
 804df86:	c3                   	ret    
 804df87:	89 f6                	mov    %esi,%esi
 804df89:	8d bc 27 00 00 00 00 	lea    0x0(%edi,%eiz,1),%edi

0804df90 <__d2b>:
 804df90:	55                   	push   %ebp
 804df91:	89 e5                	mov    %esp,%ebp
 804df93:	57                   	push   %edi
 804df94:	56                   	push   %esi
 804df95:	53                   	push   %ebx
 804df96:	83 ec 2c             	sub    $0x2c,%esp
 804df99:	8b 45 08             	mov    0x8(%ebp),%eax
 804df9c:	dd 45 0c             	fldl   0xc(%ebp)
 804df9f:	c7 44 24 04 01 00 00 	movl   $0x1,0x4(%esp)
 804dfa6:	00 
 804dfa7:	dd 5d d0             	fstpl  -0x30(%ebp)
 804dfaa:	89 04 24             	mov    %eax,(%esp)
 804dfad:	e8 ce f4 ff ff       	call   804d480 <_Balloc>
 804dfb2:	8b 5d d4             	mov    -0x2c(%ebp),%ebx
 804dfb5:	89 c6                	mov    %eax,%esi
 804dfb7:	89 d8                	mov    %ebx,%eax
 804dfb9:	81 e3 ff ff ff 7f    	and    $0x7fffffff,%ebx
 804dfbf:	25 ff ff 0f 00       	and    $0xfffff,%eax
 804dfc4:	c1 eb 14             	shr    $0x14,%ebx
 804dfc7:	85 db                	test   %ebx,%ebx
 804dfc9:	74 05                	je     804dfd0 <__d2b+0x40>
 804dfcb:	0d 00 00 10 00       	or     $0x100000,%eax
 804dfd0:	89 45 e4             	mov    %eax,-0x1c(%ebp)
 804dfd3:	8b 45 d0             	mov    -0x30(%ebp),%eax
 804dfd6:	85 c0                	test   %eax,%eax
 804dfd8:	74 56                	je     804e030 <__d2b+0xa0>
 804dfda:	89 45 e0             	mov    %eax,-0x20(%ebp)
 804dfdd:	8d 45 e0             	lea    -0x20(%ebp),%eax
 804dfe0:	89 04 24             	mov    %eax,(%esp)
 804dfe3:	e8 98 f7 ff ff       	call   804d780 <__lo0bits>
 804dfe8:	85 c0                	test   %eax,%eax
 804dfea:	0f 85 90 00 00 00    	jne    804e080 <__d2b+0xf0>
 804dff0:	8b 55 e0             	mov    -0x20(%ebp),%edx
 804dff3:	89 56 14             	mov    %edx,0x14(%esi)
 804dff6:	8b 55 e4             	mov    -0x1c(%ebp),%edx
 804dff9:	83 fa 01             	cmp    $0x1,%edx
 804dffc:	19 ff                	sbb    %edi,%edi
 804dffe:	83 c7 02             	add    $0x2,%edi
 804e001:	85 db                	test   %ebx,%ebx
 804e003:	89 56 18             	mov    %edx,0x18(%esi)
 804e006:	89 7e 10             	mov    %edi,0x10(%esi)
 804e009:	74 49                	je     804e054 <__d2b+0xc4>
 804e00b:	8b 4d 14             	mov    0x14(%ebp),%ecx
 804e00e:	8d 94 18 cd fb ff ff 	lea    -0x433(%eax,%ebx,1),%edx
 804e015:	89 11                	mov    %edx,(%ecx)
 804e017:	ba 35 00 00 00       	mov    $0x35,%edx
 804e01c:	29 c2                	sub    %eax,%edx
 804e01e:	8b 45 18             	mov    0x18(%ebp),%eax
 804e021:	89 10                	mov    %edx,(%eax)
 804e023:	83 c4 2c             	add    $0x2c,%esp
 804e026:	89 f0                	mov    %esi,%eax
 804e028:	5b                   	pop    %ebx
 804e029:	5e                   	pop    %esi
 804e02a:	5f                   	pop    %edi
 804e02b:	5d                   	pop    %ebp
 804e02c:	c3                   	ret    
 804e02d:	8d 76 00             	lea    0x0(%esi),%esi
 804e030:	8d 45 e4             	lea    -0x1c(%ebp),%eax
 804e033:	bf 01 00 00 00       	mov    $0x1,%edi
 804e038:	89 04 24             	mov    %eax,(%esp)
 804e03b:	e8 40 f7 ff ff       	call   804d780 <__lo0bits>
 804e040:	8b 55 e4             	mov    -0x1c(%ebp),%edx
 804e043:	c7 46 10 01 00 00 00 	movl   $0x1,0x10(%esi)
 804e04a:	89 56 14             	mov    %edx,0x14(%esi)
 804e04d:	83 c0 20             	add    $0x20,%eax
 804e050:	85 db                	test   %ebx,%ebx
 804e052:	75 b7                	jne    804e00b <__d2b+0x7b>
 804e054:	8b 4d 14             	mov    0x14(%ebp),%ecx
 804e057:	2d 32 04 00 00       	sub    $0x432,%eax
 804e05c:	89 01                	mov    %eax,(%ecx)
 804e05e:	8b 44 be 10          	mov    0x10(%esi,%edi,4),%eax
 804e062:	c1 e7 05             	shl    $0x5,%edi
 804e065:	89 04 24             	mov    %eax,(%esp)
 804e068:	e8 b3 f6 ff ff       	call   804d720 <__hi0bits>
 804e06d:	29 c7                	sub    %eax,%edi
 804e06f:	8b 45 18             	mov    0x18(%ebp),%eax
 804e072:	89 38                	mov    %edi,(%eax)
 804e074:	83 c4 2c             	add    $0x2c,%esp
 804e077:	89 f0                	mov    %esi,%eax
 804e079:	5b                   	pop    %ebx
 804e07a:	5e                   	pop    %esi
 804e07b:	5f                   	pop    %edi
 804e07c:	5d                   	pop    %ebp
 804e07d:	c3                   	ret    
 804e07e:	66 90                	xchg   %ax,%ax
 804e080:	8b 55 e4             	mov    -0x1c(%ebp),%edx
 804e083:	b9 20 00 00 00       	mov    $0x20,%ecx
 804e088:	29 c1                	sub    %eax,%ecx
 804e08a:	89 d7                	mov    %edx,%edi
 804e08c:	d3 e7                	shl    %cl,%edi
 804e08e:	8b 4d e0             	mov    -0x20(%ebp),%ecx
 804e091:	09 f9                	or     %edi,%ecx
 804e093:	89 4e 14             	mov    %ecx,0x14(%esi)
 804e096:	89 c1                	mov    %eax,%ecx
 804e098:	d3 ea                	shr    %cl,%edx
 804e09a:	89 55 e4             	mov    %edx,-0x1c(%ebp)
 804e09d:	e9 57 ff ff ff       	jmp    804dff9 <__d2b+0x69>
 804e0a2:	8d b4 26 00 00 00 00 	lea    0x0(%esi,%eiz,1),%esi
 804e0a9:	8d bc 27 00 00 00 00 	lea    0x0(%edi,%eiz,1),%edi

0804e0b0 <__ratio>:
 804e0b0:	55                   	push   %ebp
 804e0b1:	89 e5                	mov    %esp,%ebp
 804e0b3:	56                   	push   %esi
 804e0b4:	53                   	push   %ebx
 804e0b5:	83 ec 30             	sub    $0x30,%esp
 804e0b8:	8b 75 08             	mov    0x8(%ebp),%esi
 804e0bb:	8d 45 f0             	lea    -0x10(%ebp),%eax
 804e0be:	8b 5d 0c             	mov    0xc(%ebp),%ebx
 804e0c1:	89 44 24 04          	mov    %eax,0x4(%esp)
 804e0c5:	89 34 24             	mov    %esi,(%esp)
 804e0c8:	e8 c3 fd ff ff       	call   804de90 <__b2d>
 804e0cd:	8d 45 f4             	lea    -0xc(%ebp),%eax
 804e0d0:	89 44 24 04          	mov    %eax,0x4(%esp)
 804e0d4:	89 1c 24             	mov    %ebx,(%esp)
 804e0d7:	dd 55 e0             	fstl   -0x20(%ebp)
 804e0da:	dd 5d d8             	fstpl  -0x28(%ebp)
 804e0dd:	e8 ae fd ff ff       	call   804de90 <__b2d>
 804e0e2:	8b 46 10             	mov    0x10(%esi),%eax
 804e0e5:	2b 43 10             	sub    0x10(%ebx),%eax
 804e0e8:	8b 55 f0             	mov    -0x10(%ebp),%edx
 804e0eb:	2b 55 f4             	sub    -0xc(%ebp),%edx
 804e0ee:	c1 e0 05             	shl    $0x5,%eax
 804e0f1:	01 d0                	add    %edx,%eax
 804e0f3:	dd 55 d0             	fstl   -0x30(%ebp)
 804e0f6:	85 c0                	test   %eax,%eax
 804e0f8:	dd 45 d8             	fldl   -0x28(%ebp)
 804e0fb:	7e 1b                	jle    804e118 <__ratio+0x68>
 804e0fd:	dd d8                	fstp   %st(0)
 804e0ff:	c1 e0 14             	shl    $0x14,%eax
 804e102:	01 45 e4             	add    %eax,-0x1c(%ebp)
 804e105:	dd 45 e0             	fldl   -0x20(%ebp)
 804e108:	83 c4 30             	add    $0x30,%esp
 804e10b:	5b                   	pop    %ebx
 804e10c:	de f1                	fdivp  %st,%st(1)
 804e10e:	5e                   	pop    %esi
 804e10f:	5d                   	pop    %ebp
 804e110:	c3                   	ret    
 804e111:	8d b4 26 00 00 00 00 	lea    0x0(%esi,%eiz,1),%esi
 804e118:	dd d9                	fstp   %st(1)
 804e11a:	c1 e0 14             	shl    $0x14,%eax
 804e11d:	29 45 d4             	sub    %eax,-0x2c(%ebp)
 804e120:	dd 45 d0             	fldl   -0x30(%ebp)
 804e123:	83 c4 30             	add    $0x30,%esp
 804e126:	5b                   	pop    %ebx
 804e127:	de f9                	fdivrp %st,%st(1)
 804e129:	5e                   	pop    %esi
 804e12a:	5d                   	pop    %ebp
 804e12b:	c3                   	ret    
 804e12c:	8d 74 26 00          	lea    0x0(%esi,%eiz,1),%esi

0804e130 <_mprec_log10>:
 804e130:	55                   	push   %ebp
 804e131:	89 e5                	mov    %esp,%ebp
 804e133:	8b 45 08             	mov    0x8(%ebp),%eax
 804e136:	83 f8 17             	cmp    $0x17,%eax
 804e139:	7e 1d                	jle    804e158 <_mprec_log10+0x28>
 804e13b:	d9 e8                	fld1   
 804e13d:	d9 05 54 07 05 08    	flds   0x8050754
 804e143:	90                   	nop
 804e144:	8d 74 26 00          	lea    0x0(%esi,%eiz,1),%esi
 804e148:	83 e8 01             	sub    $0x1,%eax
 804e14b:	dc c9                	fmul   %st,%st(1)
 804e14d:	75 f9                	jne    804e148 <_mprec_log10+0x18>
 804e14f:	dd d8                	fstp   %st(0)
 804e151:	5d                   	pop    %ebp
 804e152:	c3                   	ret    
 804e153:	90                   	nop
 804e154:	8d 74 26 00          	lea    0x0(%esi,%eiz,1),%esi
 804e158:	dd 04 c5 40 08 05 08 	fldl   0x8050840(,%eax,8)
 804e15f:	5d                   	pop    %ebp
 804e160:	c3                   	ret    
 804e161:	eb 0d                	jmp    804e170 <__copybits>
 804e163:	90                   	nop
 804e164:	90                   	nop
 804e165:	90                   	nop
 804e166:	90                   	nop
 804e167:	90                   	nop
 804e168:	90                   	nop
 804e169:	90                   	nop
 804e16a:	90                   	nop
 804e16b:	90                   	nop
 804e16c:	90                   	nop
 804e16d:	90                   	nop
 804e16e:	90                   	nop
 804e16f:	90                   	nop

0804e170 <__copybits>:
 804e170:	55                   	push   %ebp
 804e171:	89 e5                	mov    %esp,%ebp
 804e173:	57                   	push   %edi
 804e174:	8b 7d 10             	mov    0x10(%ebp),%edi
 804e177:	56                   	push   %esi
 804e178:	8b 75 0c             	mov    0xc(%ebp),%esi
 804e17b:	8b 45 08             	mov    0x8(%ebp),%eax
 804e17e:	53                   	push   %ebx
 804e17f:	8b 4f 10             	mov    0x10(%edi),%ecx
 804e182:	8d 56 ff             	lea    -0x1(%esi),%edx
 804e185:	c1 fa 05             	sar    $0x5,%edx
 804e188:	8d 74 90 04          	lea    0x4(%eax,%edx,4),%esi
 804e18c:	8d 57 14             	lea    0x14(%edi),%edx
 804e18f:	8d 1c 8a             	lea    (%edx,%ecx,4),%ebx
 804e192:	39 da                	cmp    %ebx,%edx
 804e194:	73 34                	jae    804e1ca <__copybits+0x5a>
 804e196:	89 c1                	mov    %eax,%ecx
 804e198:	83 c2 04             	add    $0x4,%edx
 804e19b:	8b 42 fc             	mov    -0x4(%edx),%eax
 804e19e:	83 c1 04             	add    $0x4,%ecx
 804e1a1:	39 d3                	cmp    %edx,%ebx
 804e1a3:	89 41 fc             	mov    %eax,-0x4(%ecx)
 804e1a6:	77 f0                	ja     804e198 <__copybits+0x28>
 804e1a8:	8b 45 08             	mov    0x8(%ebp),%eax
 804e1ab:	29 fb                	sub    %edi,%ebx
 804e1ad:	8d 53 eb             	lea    -0x15(%ebx),%edx
 804e1b0:	c1 ea 02             	shr    $0x2,%edx
 804e1b3:	8d 44 90 04          	lea    0x4(%eax,%edx,4),%eax
 804e1b7:	39 c6                	cmp    %eax,%esi
 804e1b9:	76 13                	jbe    804e1ce <__copybits+0x5e>
 804e1bb:	90                   	nop
 804e1bc:	8d 74 26 00          	lea    0x0(%esi,%eiz,1),%esi
 804e1c0:	83 c0 04             	add    $0x4,%eax
 804e1c3:	c7 40 fc 00 00 00 00 	movl   $0x0,-0x4(%eax)
 804e1ca:	39 c6                	cmp    %eax,%esi
 804e1cc:	77 f2                	ja     804e1c0 <__copybits+0x50>
 804e1ce:	5b                   	pop    %ebx
 804e1cf:	5e                   	pop    %esi
 804e1d0:	5f                   	pop    %edi
 804e1d1:	5d                   	pop    %ebp
 804e1d2:	c3                   	ret    
 804e1d3:	8d b6 00 00 00 00    	lea    0x0(%esi),%esi
 804e1d9:	8d bc 27 00 00 00 00 	lea    0x0(%edi,%eiz,1),%edi

0804e1e0 <__any_on>:
 804e1e0:	55                   	push   %ebp
 804e1e1:	89 e5                	mov    %esp,%ebp
 804e1e3:	8b 45 08             	mov    0x8(%ebp),%eax
 804e1e6:	57                   	push   %edi
 804e1e7:	56                   	push   %esi
 804e1e8:	53                   	push   %ebx
 804e1e9:	8b 5d 0c             	mov    0xc(%ebp),%ebx
 804e1ec:	8d 50 14             	lea    0x14(%eax),%edx
 804e1ef:	8b 40 10             	mov    0x10(%eax),%eax
 804e1f2:	c1 fb 05             	sar    $0x5,%ebx
 804e1f5:	39 d8                	cmp    %ebx,%eax
 804e1f7:	7d 2f                	jge    804e228 <__any_on+0x48>
 804e1f9:	8d 1c 82             	lea    (%edx,%eax,4),%ebx
 804e1fc:	39 da                	cmp    %ebx,%edx
 804e1fe:	73 1d                	jae    804e21d <__any_on+0x3d>
 804e200:	8d 43 fc             	lea    -0x4(%ebx),%eax
 804e203:	8b 5b fc             	mov    -0x4(%ebx),%ebx
 804e206:	85 db                	test   %ebx,%ebx
 804e208:	74 0f                	je     804e219 <__any_on+0x39>
 804e20a:	eb 44                	jmp    804e250 <__any_on+0x70>
 804e20c:	8d 74 26 00          	lea    0x0(%esi,%eiz,1),%esi
 804e210:	83 e8 04             	sub    $0x4,%eax
 804e213:	8b 08                	mov    (%eax),%ecx
 804e215:	85 c9                	test   %ecx,%ecx
 804e217:	75 37                	jne    804e250 <__any_on+0x70>
 804e219:	39 c2                	cmp    %eax,%edx
 804e21b:	72 f3                	jb     804e210 <__any_on+0x30>
 804e21d:	31 c0                	xor    %eax,%eax
 804e21f:	5b                   	pop    %ebx
 804e220:	5e                   	pop    %esi
 804e221:	5f                   	pop    %edi
 804e222:	5d                   	pop    %ebp
 804e223:	c3                   	ret    
 804e224:	8d 74 26 00          	lea    0x0(%esi,%eiz,1),%esi
 804e228:	7e 1e                	jle    804e248 <__any_on+0x68>
 804e22a:	8b 4d 0c             	mov    0xc(%ebp),%ecx
 804e22d:	8d 1c 9a             	lea    (%edx,%ebx,4),%ebx
 804e230:	83 e1 1f             	and    $0x1f,%ecx
 804e233:	74 c7                	je     804e1fc <__any_on+0x1c>
 804e235:	8b 3b                	mov    (%ebx),%edi
 804e237:	b8 01 00 00 00       	mov    $0x1,%eax
 804e23c:	89 fe                	mov    %edi,%esi
 804e23e:	d3 ee                	shr    %cl,%esi
 804e240:	d3 e6                	shl    %cl,%esi
 804e242:	39 fe                	cmp    %edi,%esi
 804e244:	75 d9                	jne    804e21f <__any_on+0x3f>
 804e246:	eb b4                	jmp    804e1fc <__any_on+0x1c>
 804e248:	8d 1c 9a             	lea    (%edx,%ebx,4),%ebx
 804e24b:	eb af                	jmp    804e1fc <__any_on+0x1c>
 804e24d:	8d 76 00             	lea    0x0(%esi),%esi
 804e250:	5b                   	pop    %ebx
 804e251:	b8 01 00 00 00       	mov    $0x1,%eax
 804e256:	5e                   	pop    %esi
 804e257:	5f                   	pop    %edi
 804e258:	5d                   	pop    %ebp
 804e259:	c3                   	ret    
 804e25a:	66 90                	xchg   %ax,%ax
 804e25c:	66 90                	xchg   %ax,%ax
 804e25e:	66 90                	xchg   %ax,%ax

0804e260 <_realloc_r>:
 804e260:	55                   	push   %ebp
 804e261:	89 e5                	mov    %esp,%ebp
 804e263:	57                   	push   %edi
 804e264:	56                   	push   %esi
 804e265:	53                   	push   %ebx
 804e266:	83 ec 3c             	sub    $0x3c,%esp
 804e269:	8b 45 08             	mov    0x8(%ebp),%eax
 804e26c:	8b 7d 0c             	mov    0xc(%ebp),%edi
 804e26f:	89 45 e4             	mov    %eax,-0x1c(%ebp)
 804e272:	8b 45 10             	mov    0x10(%ebp),%eax
 804e275:	85 ff                	test   %edi,%edi
 804e277:	89 45 e0             	mov    %eax,-0x20(%ebp)
 804e27a:	0f 84 50 02 00 00    	je     804e4d0 <_realloc_r+0x270>
 804e280:	8b 45 e4             	mov    -0x1c(%ebp),%eax
 804e283:	8d 77 f8             	lea    -0x8(%edi),%esi
 804e286:	89 04 24             	mov    %eax,(%esp)
 804e289:	e8 d2 f1 ff ff       	call   804d460 <__malloc_lock>
 804e28e:	8b 47 fc             	mov    -0x4(%edi),%eax
 804e291:	8b 4d e0             	mov    -0x20(%ebp),%ecx
 804e294:	89 c3                	mov    %eax,%ebx
 804e296:	8d 51 0b             	lea    0xb(%ecx),%edx
 804e299:	83 e3 fc             	and    $0xfffffffc,%ebx
 804e29c:	83 fa 16             	cmp    $0x16,%edx
 804e29f:	89 45 d4             	mov    %eax,-0x2c(%ebp)
 804e2a2:	0f 87 00 01 00 00    	ja     804e3a8 <_realloc_r+0x148>
 804e2a8:	31 d2                	xor    %edx,%edx
 804e2aa:	c7 45 d8 10 00 00 00 	movl   $0x10,-0x28(%ebp)
 804e2b1:	c7 45 dc 10 00 00 00 	movl   $0x10,-0x24(%ebp)
 804e2b8:	8b 4d e0             	mov    -0x20(%ebp),%ecx
 804e2bb:	39 4d dc             	cmp    %ecx,-0x24(%ebp)
 804e2be:	0f 82 1c 02 00 00    	jb     804e4e0 <_realloc_r+0x280>
 804e2c4:	84 d2                	test   %dl,%dl
 804e2c6:	0f 85 14 02 00 00    	jne    804e4e0 <_realloc_r+0x280>
 804e2cc:	3b 5d d8             	cmp    -0x28(%ebp),%ebx
 804e2cf:	0f 8d eb 00 00 00    	jge    804e3c0 <_realloc_r+0x160>
 804e2d5:	8b 0d 08 25 05 08    	mov    0x8052508,%ecx
 804e2db:	8d 14 1e             	lea    (%esi,%ebx,1),%edx
 804e2de:	39 d1                	cmp    %edx,%ecx
 804e2e0:	89 4d cc             	mov    %ecx,-0x34(%ebp)
 804e2e3:	0f 84 6f 02 00 00    	je     804e558 <_realloc_r+0x2f8>
 804e2e9:	8b 4a 04             	mov    0x4(%edx),%ecx
 804e2ec:	89 c8                	mov    %ecx,%eax
 804e2ee:	83 e0 fe             	and    $0xfffffffe,%eax
 804e2f1:	f6 44 02 04 01       	testb  $0x1,0x4(%edx,%eax,1)
 804e2f6:	0f 84 f4 00 00 00    	je     804e3f0 <_realloc_r+0x190>
 804e2fc:	c7 45 d0 00 00 00 00 	movl   $0x0,-0x30(%ebp)
 804e303:	31 d2                	xor    %edx,%edx
 804e305:	f6 45 d4 01          	testb  $0x1,-0x2c(%ebp)
 804e309:	0f 85 39 01 00 00    	jne    804e448 <_realloc_r+0x1e8>
 804e30f:	89 f1                	mov    %esi,%ecx
 804e311:	2b 4f f8             	sub    -0x8(%edi),%ecx
 804e314:	8b 41 04             	mov    0x4(%ecx),%eax
 804e317:	83 e0 fc             	and    $0xfffffffc,%eax
 804e31a:	85 d2                	test   %edx,%edx
 804e31c:	0f 84 f6 02 00 00    	je     804e618 <_realloc_r+0x3b8>
 804e322:	3b 55 cc             	cmp    -0x34(%ebp),%edx
 804e325:	0f 84 f5 02 00 00    	je     804e620 <_realloc_r+0x3c0>
 804e32b:	89 55 d4             	mov    %edx,-0x2c(%ebp)
 804e32e:	8b 55 d0             	mov    -0x30(%ebp),%edx
 804e331:	01 d8                	add    %ebx,%eax
 804e333:	01 c2                	add    %eax,%edx
 804e335:	3b 55 d8             	cmp    -0x28(%ebp),%edx
 804e338:	89 55 d0             	mov    %edx,-0x30(%ebp)
 804e33b:	8b 55 d4             	mov    -0x2c(%ebp),%edx
 804e33e:	0f 8c ac 01 00 00    	jl     804e4f0 <_realloc_r+0x290>
 804e344:	8b 42 0c             	mov    0xc(%edx),%eax
 804e347:	83 eb 04             	sub    $0x4,%ebx
 804e34a:	8b 52 08             	mov    0x8(%edx),%edx
 804e34d:	83 fb 24             	cmp    $0x24,%ebx
 804e350:	8d 71 08             	lea    0x8(%ecx),%esi
 804e353:	89 42 0c             	mov    %eax,0xc(%edx)
 804e356:	89 50 08             	mov    %edx,0x8(%eax)
 804e359:	8b 41 0c             	mov    0xc(%ecx),%eax
 804e35c:	8b 51 08             	mov    0x8(%ecx),%edx
 804e35f:	89 42 0c             	mov    %eax,0xc(%edx)
 804e362:	89 50 08             	mov    %edx,0x8(%eax)
 804e365:	0f 87 85 03 00 00    	ja     804e6f0 <_realloc_r+0x490>
 804e36b:	83 fb 13             	cmp    $0x13,%ebx
 804e36e:	89 f0                	mov    %esi,%eax
 804e370:	76 1a                	jbe    804e38c <_realloc_r+0x12c>
 804e372:	8b 07                	mov    (%edi),%eax
 804e374:	83 fb 1b             	cmp    $0x1b,%ebx
 804e377:	89 41 08             	mov    %eax,0x8(%ecx)
 804e37a:	8b 47 04             	mov    0x4(%edi),%eax
 804e37d:	89 41 0c             	mov    %eax,0xc(%ecx)
 804e380:	0f 87 8f 03 00 00    	ja     804e715 <_realloc_r+0x4b5>
 804e386:	8d 41 10             	lea    0x10(%ecx),%eax
 804e389:	83 c7 08             	add    $0x8,%edi
 804e38c:	8b 17                	mov    (%edi),%edx
 804e38e:	8b 5d d0             	mov    -0x30(%ebp),%ebx
 804e391:	89 10                	mov    %edx,(%eax)
 804e393:	8b 57 04             	mov    0x4(%edi),%edx
 804e396:	89 50 04             	mov    %edx,0x4(%eax)
 804e399:	8b 57 08             	mov    0x8(%edi),%edx
 804e39c:	89 f7                	mov    %esi,%edi
 804e39e:	89 ce                	mov    %ecx,%esi
 804e3a0:	89 50 08             	mov    %edx,0x8(%eax)
 804e3a3:	8b 41 04             	mov    0x4(%ecx),%eax
 804e3a6:	eb 1b                	jmp    804e3c3 <_realloc_r+0x163>
 804e3a8:	83 e2 f8             	and    $0xfffffff8,%edx
 804e3ab:	89 55 dc             	mov    %edx,-0x24(%ebp)
 804e3ae:	89 55 d8             	mov    %edx,-0x28(%ebp)
 804e3b1:	c1 ea 1f             	shr    $0x1f,%edx
 804e3b4:	e9 ff fe ff ff       	jmp    804e2b8 <_realloc_r+0x58>
 804e3b9:	8d b4 26 00 00 00 00 	lea    0x0(%esi,%eiz,1),%esi
 804e3c0:	8b 45 d4             	mov    -0x2c(%ebp),%eax
 804e3c3:	89 da                	mov    %ebx,%edx
 804e3c5:	2b 55 dc             	sub    -0x24(%ebp),%edx
 804e3c8:	83 fa 0f             	cmp    $0xf,%edx
 804e3cb:	77 4b                	ja     804e418 <_realloc_r+0x1b8>
 804e3cd:	83 e0 01             	and    $0x1,%eax
 804e3d0:	09 d8                	or     %ebx,%eax
 804e3d2:	89 46 04             	mov    %eax,0x4(%esi)
 804e3d5:	83 4c 1e 04 01       	orl    $0x1,0x4(%esi,%ebx,1)
 804e3da:	8b 45 e4             	mov    -0x1c(%ebp),%eax
 804e3dd:	89 04 24             	mov    %eax,(%esp)
 804e3e0:	e8 8b f0 ff ff       	call   804d470 <__malloc_unlock>
 804e3e5:	89 f8                	mov    %edi,%eax
 804e3e7:	83 c4 3c             	add    $0x3c,%esp
 804e3ea:	5b                   	pop    %ebx
 804e3eb:	5e                   	pop    %esi
 804e3ec:	5f                   	pop    %edi
 804e3ed:	5d                   	pop    %ebp
 804e3ee:	c3                   	ret    
 804e3ef:	90                   	nop
 804e3f0:	83 e1 fc             	and    $0xfffffffc,%ecx
 804e3f3:	89 4d d0             	mov    %ecx,-0x30(%ebp)
 804e3f6:	01 d9                	add    %ebx,%ecx
 804e3f8:	3b 4d d8             	cmp    -0x28(%ebp),%ecx
 804e3fb:	0f 8c 04 ff ff ff    	jl     804e305 <_realloc_r+0xa5>
 804e401:	8b 5a 0c             	mov    0xc(%edx),%ebx
 804e404:	8b 52 08             	mov    0x8(%edx),%edx
 804e407:	8b 45 d4             	mov    -0x2c(%ebp),%eax
 804e40a:	89 5a 0c             	mov    %ebx,0xc(%edx)
 804e40d:	89 53 08             	mov    %edx,0x8(%ebx)
 804e410:	89 cb                	mov    %ecx,%ebx
 804e412:	eb af                	jmp    804e3c3 <_realloc_r+0x163>
 804e414:	8d 74 26 00          	lea    0x0(%esi,%eiz,1),%esi
 804e418:	8b 5d dc             	mov    -0x24(%ebp),%ebx
 804e41b:	83 e0 01             	and    $0x1,%eax
 804e41e:	09 d8                	or     %ebx,%eax
 804e420:	89 46 04             	mov    %eax,0x4(%esi)
 804e423:	89 d0                	mov    %edx,%eax
 804e425:	8d 0c 1e             	lea    (%esi,%ebx,1),%ecx
 804e428:	83 c8 01             	or     $0x1,%eax
 804e42b:	89 41 04             	mov    %eax,0x4(%ecx)
 804e42e:	8b 45 e4             	mov    -0x1c(%ebp),%eax
 804e431:	83 4c 11 04 01       	orl    $0x1,0x4(%ecx,%edx,1)
 804e436:	83 c1 08             	add    $0x8,%ecx
 804e439:	89 4c 24 04          	mov    %ecx,0x4(%esp)
 804e43d:	89 04 24             	mov    %eax,(%esp)
 804e440:	e8 5b dc ff ff       	call   804c0a0 <_free_r>
 804e445:	eb 93                	jmp    804e3da <_realloc_r+0x17a>
 804e447:	90                   	nop
 804e448:	8b 45 e0             	mov    -0x20(%ebp),%eax
 804e44b:	89 44 24 04          	mov    %eax,0x4(%esp)
 804e44f:	8b 45 e4             	mov    -0x1c(%ebp),%eax
 804e452:	89 04 24             	mov    %eax,(%esp)
 804e455:	e8 c6 e6 ff ff       	call   804cb20 <_malloc_r>
 804e45a:	85 c0                	test   %eax,%eax
 804e45c:	89 c1                	mov    %eax,%ecx
 804e45e:	0f 84 65 03 00 00    	je     804e7c9 <_realloc_r+0x569>
 804e464:	8b 47 fc             	mov    -0x4(%edi),%eax
 804e467:	8d 51 f8             	lea    -0x8(%ecx),%edx
 804e46a:	89 55 e0             	mov    %edx,-0x20(%ebp)
 804e46d:	89 c2                	mov    %eax,%edx
 804e46f:	83 e2 fe             	and    $0xfffffffe,%edx
 804e472:	01 f2                	add    %esi,%edx
 804e474:	39 55 e0             	cmp    %edx,-0x20(%ebp)
 804e477:	0f 84 63 02 00 00    	je     804e6e0 <_realloc_r+0x480>
 804e47d:	83 eb 04             	sub    $0x4,%ebx
 804e480:	83 fb 24             	cmp    $0x24,%ebx
 804e483:	0f 87 6f 01 00 00    	ja     804e5f8 <_realloc_r+0x398>
 804e489:	83 fb 13             	cmp    $0x13,%ebx
 804e48c:	0f 87 ee 00 00 00    	ja     804e580 <_realloc_r+0x320>
 804e492:	89 c8                	mov    %ecx,%eax
 804e494:	89 fa                	mov    %edi,%edx
 804e496:	8b 1a                	mov    (%edx),%ebx
 804e498:	89 18                	mov    %ebx,(%eax)
 804e49a:	8b 5a 04             	mov    0x4(%edx),%ebx
 804e49d:	89 58 04             	mov    %ebx,0x4(%eax)
 804e4a0:	8b 52 08             	mov    0x8(%edx),%edx
 804e4a3:	89 50 08             	mov    %edx,0x8(%eax)
 804e4a6:	8b 75 e4             	mov    -0x1c(%ebp),%esi
 804e4a9:	89 7c 24 04          	mov    %edi,0x4(%esp)
 804e4ad:	89 4d e0             	mov    %ecx,-0x20(%ebp)
 804e4b0:	89 34 24             	mov    %esi,(%esp)
 804e4b3:	e8 e8 db ff ff       	call   804c0a0 <_free_r>
 804e4b8:	89 34 24             	mov    %esi,(%esp)
 804e4bb:	e8 b0 ef ff ff       	call   804d470 <__malloc_unlock>
 804e4c0:	8b 4d e0             	mov    -0x20(%ebp),%ecx
 804e4c3:	83 c4 3c             	add    $0x3c,%esp
 804e4c6:	5b                   	pop    %ebx
 804e4c7:	5e                   	pop    %esi
 804e4c8:	5f                   	pop    %edi
 804e4c9:	89 c8                	mov    %ecx,%eax
 804e4cb:	5d                   	pop    %ebp
 804e4cc:	c3                   	ret    
 804e4cd:	8d 76 00             	lea    0x0(%esi),%esi
 804e4d0:	89 45 0c             	mov    %eax,0xc(%ebp)
 804e4d3:	83 c4 3c             	add    $0x3c,%esp
 804e4d6:	5b                   	pop    %ebx
 804e4d7:	5e                   	pop    %esi
 804e4d8:	5f                   	pop    %edi
 804e4d9:	5d                   	pop    %ebp
 804e4da:	e9 41 e6 ff ff       	jmp    804cb20 <_malloc_r>
 804e4df:	90                   	nop
 804e4e0:	8b 45 e4             	mov    -0x1c(%ebp),%eax
 804e4e3:	c7 00 0c 00 00 00    	movl   $0xc,(%eax)
 804e4e9:	31 c0                	xor    %eax,%eax
 804e4eb:	e9 f7 fe ff ff       	jmp    804e3e7 <_realloc_r+0x187>
 804e4f0:	89 c2                	mov    %eax,%edx
 804e4f2:	3b 55 d8             	cmp    -0x28(%ebp),%edx
 804e4f5:	0f 8c 4d ff ff ff    	jl     804e448 <_realloc_r+0x1e8>
 804e4fb:	8b 71 08             	mov    0x8(%ecx),%esi
 804e4fe:	83 eb 04             	sub    $0x4,%ebx
 804e501:	8b 41 0c             	mov    0xc(%ecx),%eax
 804e504:	83 fb 24             	cmp    $0x24,%ebx
 804e507:	89 46 0c             	mov    %eax,0xc(%esi)
 804e50a:	89 70 08             	mov    %esi,0x8(%eax)
 804e50d:	8d 71 08             	lea    0x8(%ecx),%esi
 804e510:	0f 87 88 00 00 00    	ja     804e59e <_realloc_r+0x33e>
 804e516:	83 fb 13             	cmp    $0x13,%ebx
 804e519:	89 f0                	mov    %esi,%eax
 804e51b:	76 1a                	jbe    804e537 <_realloc_r+0x2d7>
 804e51d:	8b 07                	mov    (%edi),%eax
 804e51f:	83 fb 1b             	cmp    $0x1b,%ebx
 804e522:	89 41 08             	mov    %eax,0x8(%ecx)
 804e525:	8b 47 04             	mov    0x4(%edi),%eax
 804e528:	89 41 0c             	mov    %eax,0xc(%ecx)
 804e52b:	0f 87 17 02 00 00    	ja     804e748 <_realloc_r+0x4e8>
 804e531:	8d 41 10             	lea    0x10(%ecx),%eax
 804e534:	83 c7 08             	add    $0x8,%edi
 804e537:	8b 1f                	mov    (%edi),%ebx
 804e539:	89 18                	mov    %ebx,(%eax)
 804e53b:	8b 5f 04             	mov    0x4(%edi),%ebx
 804e53e:	89 58 04             	mov    %ebx,0x4(%eax)
 804e541:	8b 5f 08             	mov    0x8(%edi),%ebx
 804e544:	89 f7                	mov    %esi,%edi
 804e546:	89 ce                	mov    %ecx,%esi
 804e548:	89 58 08             	mov    %ebx,0x8(%eax)
 804e54b:	89 d3                	mov    %edx,%ebx
 804e54d:	8b 41 04             	mov    0x4(%ecx),%eax
 804e550:	e9 6e fe ff ff       	jmp    804e3c3 <_realloc_r+0x163>
 804e555:	8d 76 00             	lea    0x0(%esi),%esi
 804e558:	8b 45 cc             	mov    -0x34(%ebp),%eax
 804e55b:	8b 55 dc             	mov    -0x24(%ebp),%edx
 804e55e:	8b 48 04             	mov    0x4(%eax),%ecx
 804e561:	83 c2 10             	add    $0x10,%edx
 804e564:	89 4d d0             	mov    %ecx,-0x30(%ebp)
 804e567:	83 65 d0 fc          	andl   $0xfffffffc,-0x30(%ebp)
 804e56b:	8b 4d d0             	mov    -0x30(%ebp),%ecx
 804e56e:	01 d9                	add    %ebx,%ecx
 804e570:	39 d1                	cmp    %edx,%ecx
 804e572:	7d 54                	jge    804e5c8 <_realloc_r+0x368>
 804e574:	89 c2                	mov    %eax,%edx
 804e576:	e9 8a fd ff ff       	jmp    804e305 <_realloc_r+0xa5>
 804e57b:	90                   	nop
 804e57c:	8d 74 26 00          	lea    0x0(%esi,%eiz,1),%esi
 804e580:	8b 07                	mov    (%edi),%eax
 804e582:	83 fb 1b             	cmp    $0x1b,%ebx
 804e585:	89 01                	mov    %eax,(%ecx)
 804e587:	8b 47 04             	mov    0x4(%edi),%eax
 804e58a:	89 41 04             	mov    %eax,0x4(%ecx)
 804e58d:	0f 87 2d 01 00 00    	ja     804e6c0 <_realloc_r+0x460>
 804e593:	8d 41 08             	lea    0x8(%ecx),%eax
 804e596:	8d 57 08             	lea    0x8(%edi),%edx
 804e599:	e9 f8 fe ff ff       	jmp    804e496 <_realloc_r+0x236>
 804e59e:	89 5c 24 08          	mov    %ebx,0x8(%esp)
 804e5a2:	89 7c 24 04          	mov    %edi,0x4(%esp)
 804e5a6:	89 f7                	mov    %esi,%edi
 804e5a8:	89 34 24             	mov    %esi,(%esp)
 804e5ab:	89 55 d8             	mov    %edx,-0x28(%ebp)
 804e5ae:	89 4d e0             	mov    %ecx,-0x20(%ebp)
 804e5b1:	e8 8a ed ff ff       	call   804d340 <memmove>
 804e5b6:	8b 4d e0             	mov    -0x20(%ebp),%ecx
 804e5b9:	8b 55 d8             	mov    -0x28(%ebp),%edx
 804e5bc:	8b 41 04             	mov    0x4(%ecx),%eax
 804e5bf:	89 ce                	mov    %ecx,%esi
 804e5c1:	89 d3                	mov    %edx,%ebx
 804e5c3:	e9 fb fd ff ff       	jmp    804e3c3 <_realloc_r+0x163>
 804e5c8:	8b 5d dc             	mov    -0x24(%ebp),%ebx
 804e5cb:	29 d9                	sub    %ebx,%ecx
 804e5cd:	01 de                	add    %ebx,%esi
 804e5cf:	83 c9 01             	or     $0x1,%ecx
 804e5d2:	89 35 08 25 05 08    	mov    %esi,0x8052508
 804e5d8:	89 4e 04             	mov    %ecx,0x4(%esi)
 804e5db:	8b 47 fc             	mov    -0x4(%edi),%eax
 804e5de:	83 e0 01             	and    $0x1,%eax
 804e5e1:	09 d8                	or     %ebx,%eax
 804e5e3:	89 47 fc             	mov    %eax,-0x4(%edi)
 804e5e6:	8b 45 e4             	mov    -0x1c(%ebp),%eax
 804e5e9:	89 04 24             	mov    %eax,(%esp)
 804e5ec:	e8 7f ee ff ff       	call   804d470 <__malloc_unlock>
 804e5f1:	89 f8                	mov    %edi,%eax
 804e5f3:	e9 ef fd ff ff       	jmp    804e3e7 <_realloc_r+0x187>
 804e5f8:	89 0c 24             	mov    %ecx,(%esp)
 804e5fb:	89 5c 24 08          	mov    %ebx,0x8(%esp)
 804e5ff:	89 7c 24 04          	mov    %edi,0x4(%esp)
 804e603:	89 4d e0             	mov    %ecx,-0x20(%ebp)
 804e606:	e8 35 ed ff ff       	call   804d340 <memmove>
 804e60b:	8b 4d e0             	mov    -0x20(%ebp),%ecx
 804e60e:	e9 93 fe ff ff       	jmp    804e4a6 <_realloc_r+0x246>
 804e613:	90                   	nop
 804e614:	8d 74 26 00          	lea    0x0(%esi,%eiz,1),%esi
 804e618:	8d 14 18             	lea    (%eax,%ebx,1),%edx
 804e61b:	e9 d2 fe ff ff       	jmp    804e4f2 <_realloc_r+0x292>
 804e620:	8d 14 18             	lea    (%eax,%ebx,1),%edx
 804e623:	8b 45 d0             	mov    -0x30(%ebp),%eax
 804e626:	01 d0                	add    %edx,%eax
 804e628:	89 45 d4             	mov    %eax,-0x2c(%ebp)
 804e62b:	8b 45 dc             	mov    -0x24(%ebp),%eax
 804e62e:	83 c0 10             	add    $0x10,%eax
 804e631:	39 45 d4             	cmp    %eax,-0x2c(%ebp)
 804e634:	0f 8c b8 fe ff ff    	jl     804e4f2 <_realloc_r+0x292>
 804e63a:	8b 41 0c             	mov    0xc(%ecx),%eax
 804e63d:	83 eb 04             	sub    $0x4,%ebx
 804e640:	8b 51 08             	mov    0x8(%ecx),%edx
 804e643:	83 fb 24             	cmp    $0x24,%ebx
 804e646:	8d 71 08             	lea    0x8(%ecx),%esi
 804e649:	89 42 0c             	mov    %eax,0xc(%edx)
 804e64c:	89 50 08             	mov    %edx,0x8(%eax)
 804e64f:	0f 87 3d 01 00 00    	ja     804e792 <_realloc_r+0x532>
 804e655:	83 fb 13             	cmp    $0x13,%ebx
 804e658:	89 f0                	mov    %esi,%eax
 804e65a:	76 1a                	jbe    804e676 <_realloc_r+0x416>
 804e65c:	8b 07                	mov    (%edi),%eax
 804e65e:	83 fb 1b             	cmp    $0x1b,%ebx
 804e661:	89 41 08             	mov    %eax,0x8(%ecx)
 804e664:	8b 47 04             	mov    0x4(%edi),%eax
 804e667:	89 41 0c             	mov    %eax,0xc(%ecx)
 804e66a:	0f 87 3d 01 00 00    	ja     804e7ad <_realloc_r+0x54d>
 804e670:	8d 41 10             	lea    0x10(%ecx),%eax
 804e673:	83 c7 08             	add    $0x8,%edi
 804e676:	8b 17                	mov    (%edi),%edx
 804e678:	89 10                	mov    %edx,(%eax)
 804e67a:	8b 57 04             	mov    0x4(%edi),%edx
 804e67d:	89 50 04             	mov    %edx,0x4(%eax)
 804e680:	8b 57 08             	mov    0x8(%edi),%edx
 804e683:	89 50 08             	mov    %edx,0x8(%eax)
 804e686:	8b 5d dc             	mov    -0x24(%ebp),%ebx
 804e689:	8b 7d d4             	mov    -0x2c(%ebp),%edi
 804e68c:	89 d8                	mov    %ebx,%eax
 804e68e:	29 df                	sub    %ebx,%edi
 804e690:	01 c8                	add    %ecx,%eax
 804e692:	83 cf 01             	or     $0x1,%edi
 804e695:	a3 08 25 05 08       	mov    %eax,0x8052508
 804e69a:	89 78 04             	mov    %edi,0x4(%eax)
 804e69d:	8b 41 04             	mov    0x4(%ecx),%eax
 804e6a0:	83 e0 01             	and    $0x1,%eax
 804e6a3:	09 d8                	or     %ebx,%eax
 804e6a5:	89 41 04             	mov    %eax,0x4(%ecx)
 804e6a8:	8b 45 e4             	mov    -0x1c(%ebp),%eax
 804e6ab:	89 04 24             	mov    %eax,(%esp)
 804e6ae:	e8 bd ed ff ff       	call   804d470 <__malloc_unlock>
 804e6b3:	89 f0                	mov    %esi,%eax
 804e6b5:	e9 2d fd ff ff       	jmp    804e3e7 <_realloc_r+0x187>
 804e6ba:	8d b6 00 00 00 00    	lea    0x0(%esi),%esi
 804e6c0:	8b 47 08             	mov    0x8(%edi),%eax
 804e6c3:	83 fb 24             	cmp    $0x24,%ebx
 804e6c6:	89 41 08             	mov    %eax,0x8(%ecx)
 804e6c9:	8b 47 0c             	mov    0xc(%edi),%eax
 804e6cc:	89 41 0c             	mov    %eax,0xc(%ecx)
 804e6cf:	74 60                	je     804e731 <_realloc_r+0x4d1>
 804e6d1:	8d 41 10             	lea    0x10(%ecx),%eax
 804e6d4:	8d 57 10             	lea    0x10(%edi),%edx
 804e6d7:	e9 ba fd ff ff       	jmp    804e496 <_realloc_r+0x236>
 804e6dc:	8d 74 26 00          	lea    0x0(%esi,%eiz,1),%esi
 804e6e0:	8b 51 fc             	mov    -0x4(%ecx),%edx
 804e6e3:	83 e2 fc             	and    $0xfffffffc,%edx
 804e6e6:	01 d3                	add    %edx,%ebx
 804e6e8:	e9 d6 fc ff ff       	jmp    804e3c3 <_realloc_r+0x163>
 804e6ed:	8d 76 00             	lea    0x0(%esi),%esi
 804e6f0:	89 5c 24 08          	mov    %ebx,0x8(%esp)
 804e6f4:	89 7c 24 04          	mov    %edi,0x4(%esp)
 804e6f8:	89 f7                	mov    %esi,%edi
 804e6fa:	89 34 24             	mov    %esi,(%esp)
 804e6fd:	89 4d e0             	mov    %ecx,-0x20(%ebp)
 804e700:	e8 3b ec ff ff       	call   804d340 <memmove>
 804e705:	8b 4d e0             	mov    -0x20(%ebp),%ecx
 804e708:	8b 5d d0             	mov    -0x30(%ebp),%ebx
 804e70b:	8b 41 04             	mov    0x4(%ecx),%eax
 804e70e:	89 ce                	mov    %ecx,%esi
 804e710:	e9 ae fc ff ff       	jmp    804e3c3 <_realloc_r+0x163>
 804e715:	8b 47 08             	mov    0x8(%edi),%eax
 804e718:	83 fb 24             	cmp    $0x24,%ebx
 804e71b:	89 41 10             	mov    %eax,0x10(%ecx)
 804e71e:	8b 47 0c             	mov    0xc(%edi),%eax
 804e721:	89 41 14             	mov    %eax,0x14(%ecx)
 804e724:	74 3e                	je     804e764 <_realloc_r+0x504>
 804e726:	8d 41 18             	lea    0x18(%ecx),%eax
 804e729:	83 c7 10             	add    $0x10,%edi
 804e72c:	e9 5b fc ff ff       	jmp    804e38c <_realloc_r+0x12c>
 804e731:	8b 47 10             	mov    0x10(%edi),%eax
 804e734:	8d 57 18             	lea    0x18(%edi),%edx
 804e737:	89 41 10             	mov    %eax,0x10(%ecx)
 804e73a:	8b 5f 14             	mov    0x14(%edi),%ebx
 804e73d:	8d 41 18             	lea    0x18(%ecx),%eax
 804e740:	89 59 14             	mov    %ebx,0x14(%ecx)
 804e743:	e9 4e fd ff ff       	jmp    804e496 <_realloc_r+0x236>
 804e748:	8b 47 08             	mov    0x8(%edi),%eax
 804e74b:	83 fb 24             	cmp    $0x24,%ebx
 804e74e:	89 41 10             	mov    %eax,0x10(%ecx)
 804e751:	8b 47 0c             	mov    0xc(%edi),%eax
 804e754:	89 41 14             	mov    %eax,0x14(%ecx)
 804e757:	74 22                	je     804e77b <_realloc_r+0x51b>
 804e759:	8d 41 18             	lea    0x18(%ecx),%eax
 804e75c:	83 c7 10             	add    $0x10,%edi
 804e75f:	e9 d3 fd ff ff       	jmp    804e537 <_realloc_r+0x2d7>
 804e764:	8b 47 10             	mov    0x10(%edi),%eax
 804e767:	83 c7 18             	add    $0x18,%edi
 804e76a:	89 41 18             	mov    %eax,0x18(%ecx)
 804e76d:	8b 57 fc             	mov    -0x4(%edi),%edx
 804e770:	8d 41 20             	lea    0x20(%ecx),%eax
 804e773:	89 51 1c             	mov    %edx,0x1c(%ecx)
 804e776:	e9 11 fc ff ff       	jmp    804e38c <_realloc_r+0x12c>
 804e77b:	8b 47 10             	mov    0x10(%edi),%eax
 804e77e:	83 c7 18             	add    $0x18,%edi
 804e781:	89 41 18             	mov    %eax,0x18(%ecx)
 804e784:	8b 5f fc             	mov    -0x4(%edi),%ebx
 804e787:	8d 41 20             	lea    0x20(%ecx),%eax
 804e78a:	89 59 1c             	mov    %ebx,0x1c(%ecx)
 804e78d:	e9 a5 fd ff ff       	jmp    804e537 <_realloc_r+0x2d7>
 804e792:	89 5c 24 08          	mov    %ebx,0x8(%esp)
 804e796:	89 7c 24 04          	mov    %edi,0x4(%esp)
 804e79a:	89 34 24             	mov    %esi,(%esp)
 804e79d:	89 4d e0             	mov    %ecx,-0x20(%ebp)
 804e7a0:	e8 9b eb ff ff       	call   804d340 <memmove>
 804e7a5:	8b 4d e0             	mov    -0x20(%ebp),%ecx
 804e7a8:	e9 d9 fe ff ff       	jmp    804e686 <_realloc_r+0x426>
 804e7ad:	8b 47 08             	mov    0x8(%edi),%eax
 804e7b0:	83 fb 24             	cmp    $0x24,%ebx
 804e7b3:	89 41 10             	mov    %eax,0x10(%ecx)
 804e7b6:	8b 47 0c             	mov    0xc(%edi),%eax
 804e7b9:	89 41 14             	mov    %eax,0x14(%ecx)
 804e7bc:	74 1d                	je     804e7db <_realloc_r+0x57b>
 804e7be:	8d 41 18             	lea    0x18(%ecx),%eax
 804e7c1:	83 c7 10             	add    $0x10,%edi
 804e7c4:	e9 ad fe ff ff       	jmp    804e676 <_realloc_r+0x416>
 804e7c9:	8b 45 e4             	mov    -0x1c(%ebp),%eax
 804e7cc:	89 04 24             	mov    %eax,(%esp)
 804e7cf:	e8 9c ec ff ff       	call   804d470 <__malloc_unlock>
 804e7d4:	31 c0                	xor    %eax,%eax
 804e7d6:	e9 0c fc ff ff       	jmp    804e3e7 <_realloc_r+0x187>
 804e7db:	8b 47 10             	mov    0x10(%edi),%eax
 804e7de:	83 c7 18             	add    $0x18,%edi
 804e7e1:	89 41 18             	mov    %eax,0x18(%ecx)
 804e7e4:	8b 57 fc             	mov    -0x4(%edi),%edx
 804e7e7:	8d 41 20             	lea    0x20(%ecx),%eax
 804e7ea:	89 51 1c             	mov    %edx,0x1c(%ecx)
 804e7ed:	e9 84 fe ff ff       	jmp    804e676 <_realloc_r+0x416>
 804e7f2:	66 90                	xchg   %ax,%ax
 804e7f4:	66 90                	xchg   %ax,%ax
 804e7f6:	66 90                	xchg   %ax,%ax
 804e7f8:	66 90                	xchg   %ax,%ax
 804e7fa:	66 90                	xchg   %ax,%ax
 804e7fc:	66 90                	xchg   %ax,%ax
 804e7fe:	66 90                	xchg   %ax,%ax

0804e800 <_sbrk_r>:
 804e800:	55                   	push   %ebp
 804e801:	89 e5                	mov    %esp,%ebp
 804e803:	83 ec 18             	sub    $0x18,%esp
 804e806:	8b 45 0c             	mov    0xc(%ebp),%eax
 804e809:	c7 05 74 29 05 08 00 	movl   $0x0,0x8052974
 804e810:	00 00 00 
 804e813:	89 04 24             	mov    %eax,(%esp)
 804e816:	e8 fa 98 ff ff       	call   8048115 <sbrk>
 804e81b:	83 f8 ff             	cmp    $0xffffffff,%eax
 804e81e:	74 08                	je     804e828 <_sbrk_r+0x28>
 804e820:	c9                   	leave  
 804e821:	c3                   	ret    
 804e822:	8d b6 00 00 00 00    	lea    0x0(%esi),%esi
 804e828:	8b 15 74 29 05 08    	mov    0x8052974,%edx
 804e82e:	85 d2                	test   %edx,%edx
 804e830:	74 ee                	je     804e820 <_sbrk_r+0x20>
 804e832:	8b 4d 08             	mov    0x8(%ebp),%ecx
 804e835:	89 11                	mov    %edx,(%ecx)
 804e837:	c9                   	leave  
 804e838:	c3                   	ret    
 804e839:	66 90                	xchg   %ax,%ax
 804e83b:	66 90                	xchg   %ax,%ax
 804e83d:	66 90                	xchg   %ax,%ax
 804e83f:	90                   	nop

0804e840 <__fpclassifyd>:
 804e840:	55                   	push   %ebp
 804e841:	b8 02 00 00 00       	mov    $0x2,%eax
 804e846:	89 e5                	mov    %esp,%ebp
 804e848:	53                   	push   %ebx
 804e849:	83 ec 0c             	sub    $0xc,%esp
 804e84c:	dd 45 08             	fldl   0x8(%ebp)
 804e84f:	dd 5d f0             	fstpl  -0x10(%ebp)
 804e852:	8b 55 f0             	mov    -0x10(%ebp),%edx
 804e855:	8b 4d f4             	mov    -0xc(%ebp),%ecx
 804e858:	89 d3                	mov    %edx,%ebx
 804e85a:	09 cb                	or     %ecx,%ebx
 804e85c:	75 0a                	jne    804e868 <__fpclassifyd+0x28>
 804e85e:	83 c4 0c             	add    $0xc,%esp
 804e861:	5b                   	pop    %ebx
 804e862:	5d                   	pop    %ebp
 804e863:	c3                   	ret    
 804e864:	8d 74 26 00          	lea    0x0(%esi,%eiz,1),%esi
 804e868:	85 d2                	test   %edx,%edx
 804e86a:	0f 94 c2             	sete   %dl
 804e86d:	75 08                	jne    804e877 <__fpclassifyd+0x37>
 804e86f:	81 f9 00 00 00 80    	cmp    $0x80000000,%ecx
 804e875:	74 e7                	je     804e85e <__fpclassifyd+0x1e>
 804e877:	81 e1 ff ff ff 7f    	and    $0x7fffffff,%ecx
 804e87d:	b8 04 00 00 00       	mov    $0x4,%eax
 804e882:	8d 99 00 00 f0 ff    	lea    -0x100000(%ecx),%ebx
 804e888:	81 fb ff ff df 7f    	cmp    $0x7fdfffff,%ebx
 804e88e:	76 ce                	jbe    804e85e <__fpclassifyd+0x1e>
 804e890:	81 f9 ff ff 0f 00    	cmp    $0xfffff,%ecx
 804e896:	b0 03                	mov    $0x3,%al
 804e898:	76 c4                	jbe    804e85e <__fpclassifyd+0x1e>
 804e89a:	31 c0                	xor    %eax,%eax
 804e89c:	81 f9 00 00 f0 7f    	cmp    $0x7ff00000,%ecx
 804e8a2:	0f 94 c0             	sete   %al
 804e8a5:	21 d0                	and    %edx,%eax
 804e8a7:	eb b5                	jmp    804e85e <__fpclassifyd+0x1e>
 804e8a9:	66 90                	xchg   %ax,%ax
 804e8ab:	66 90                	xchg   %ax,%ax
 804e8ad:	66 90                	xchg   %ax,%ax
 804e8af:	90                   	nop

0804e8b0 <__sread>:
 804e8b0:	55                   	push   %ebp
 804e8b1:	89 e5                	mov    %esp,%ebp
 804e8b3:	53                   	push   %ebx
 804e8b4:	83 ec 14             	sub    $0x14,%esp
 804e8b7:	8b 45 14             	mov    0x14(%ebp),%eax
 804e8ba:	8b 5d 0c             	mov    0xc(%ebp),%ebx
 804e8bd:	89 44 24 0c          	mov    %eax,0xc(%esp)
 804e8c1:	8b 45 10             	mov    0x10(%ebp),%eax
 804e8c4:	89 44 24 08          	mov    %eax,0x8(%esp)
 804e8c8:	0f bf 43 0e          	movswl 0xe(%ebx),%eax
 804e8cc:	89 44 24 04          	mov    %eax,0x4(%esp)
 804e8d0:	8b 45 08             	mov    0x8(%ebp),%eax
 804e8d3:	89 04 24             	mov    %eax,(%esp)
 804e8d6:	e8 05 18 00 00       	call   80500e0 <_read_r>
 804e8db:	85 c0                	test   %eax,%eax
 804e8dd:	78 09                	js     804e8e8 <__sread+0x38>
 804e8df:	01 43 50             	add    %eax,0x50(%ebx)
 804e8e2:	83 c4 14             	add    $0x14,%esp
 804e8e5:	5b                   	pop    %ebx
 804e8e6:	5d                   	pop    %ebp
 804e8e7:	c3                   	ret    
 804e8e8:	66 81 63 0c ff ef    	andw   $0xefff,0xc(%ebx)
 804e8ee:	83 c4 14             	add    $0x14,%esp
 804e8f1:	5b                   	pop    %ebx
 804e8f2:	5d                   	pop    %ebp
 804e8f3:	c3                   	ret    
 804e8f4:	8d b6 00 00 00 00    	lea    0x0(%esi),%esi
 804e8fa:	8d bf 00 00 00 00    	lea    0x0(%edi),%edi

0804e900 <__seofread>:
 804e900:	55                   	push   %ebp
 804e901:	31 c0                	xor    %eax,%eax
 804e903:	89 e5                	mov    %esp,%ebp
 804e905:	5d                   	pop    %ebp
 804e906:	c3                   	ret    
 804e907:	89 f6                	mov    %esi,%esi
 804e909:	8d bc 27 00 00 00 00 	lea    0x0(%edi,%eiz,1),%edi

0804e910 <__swrite>:
 804e910:	55                   	push   %ebp
 804e911:	89 e5                	mov    %esp,%ebp
 804e913:	57                   	push   %edi
 804e914:	56                   	push   %esi
 804e915:	53                   	push   %ebx
 804e916:	83 ec 2c             	sub    $0x2c,%esp
 804e919:	8b 5d 0c             	mov    0xc(%ebp),%ebx
 804e91c:	8b 75 08             	mov    0x8(%ebp),%esi
 804e91f:	8b 7d 10             	mov    0x10(%ebp),%edi
 804e922:	8b 55 14             	mov    0x14(%ebp),%edx
 804e925:	0f b7 43 0c          	movzwl 0xc(%ebx),%eax
 804e929:	f6 c4 01             	test   $0x1,%ah
 804e92c:	74 2a                	je     804e958 <__swrite+0x48>
 804e92e:	c7 44 24 0c 02 00 00 	movl   $0x2,0xc(%esp)
 804e935:	00 
 804e936:	c7 44 24 08 00 00 00 	movl   $0x0,0x8(%esp)
 804e93d:	00 
 804e93e:	0f bf 43 0e          	movswl 0xe(%ebx),%eax
 804e942:	89 34 24             	mov    %esi,(%esp)
 804e945:	89 55 e4             	mov    %edx,-0x1c(%ebp)
 804e948:	89 44 24 04          	mov    %eax,0x4(%esp)
 804e94c:	e8 3f 17 00 00       	call   8050090 <_lseek_r>
 804e951:	0f b7 43 0c          	movzwl 0xc(%ebx),%eax
 804e955:	8b 55 e4             	mov    -0x1c(%ebp),%edx
 804e958:	80 e4 ef             	and    $0xef,%ah
 804e95b:	66 89 43 0c          	mov    %ax,0xc(%ebx)
 804e95f:	89 7d 10             	mov    %edi,0x10(%ebp)
 804e962:	89 55 14             	mov    %edx,0x14(%ebp)
 804e965:	0f bf 43 0e          	movswl 0xe(%ebx),%eax
 804e969:	89 75 08             	mov    %esi,0x8(%ebp)
 804e96c:	89 45 0c             	mov    %eax,0xc(%ebp)
 804e96f:	83 c4 2c             	add    $0x2c,%esp
 804e972:	5b                   	pop    %ebx
 804e973:	5e                   	pop    %esi
 804e974:	5f                   	pop    %edi
 804e975:	5d                   	pop    %ebp
 804e976:	e9 a5 12 00 00       	jmp    804fc20 <_write_r>
 804e97b:	90                   	nop
 804e97c:	8d 74 26 00          	lea    0x0(%esi,%eiz,1),%esi

0804e980 <__sseek>:
 804e980:	55                   	push   %ebp
 804e981:	89 e5                	mov    %esp,%ebp
 804e983:	53                   	push   %ebx
 804e984:	83 ec 14             	sub    $0x14,%esp
 804e987:	8b 45 14             	mov    0x14(%ebp),%eax
 804e98a:	8b 5d 0c             	mov    0xc(%ebp),%ebx
 804e98d:	89 44 24 0c          	mov    %eax,0xc(%esp)
 804e991:	8b 45 10             	mov    0x10(%ebp),%eax
 804e994:	89 44 24 08          	mov    %eax,0x8(%esp)
 804e998:	0f bf 43 0e          	movswl 0xe(%ebx),%eax
 804e99c:	89 44 24 04          	mov    %eax,0x4(%esp)
 804e9a0:	8b 45 08             	mov    0x8(%ebp),%eax
 804e9a3:	89 04 24             	mov    %eax,(%esp)
 804e9a6:	e8 e5 16 00 00       	call   8050090 <_lseek_r>
 804e9ab:	83 f8 ff             	cmp    $0xffffffff,%eax
 804e9ae:	74 10                	je     804e9c0 <__sseek+0x40>
 804e9b0:	66 81 4b 0c 00 10    	orw    $0x1000,0xc(%ebx)
 804e9b6:	89 43 50             	mov    %eax,0x50(%ebx)
 804e9b9:	83 c4 14             	add    $0x14,%esp
 804e9bc:	5b                   	pop    %ebx
 804e9bd:	5d                   	pop    %ebp
 804e9be:	c3                   	ret    
 804e9bf:	90                   	nop
 804e9c0:	66 81 63 0c ff ef    	andw   $0xefff,0xc(%ebx)
 804e9c6:	83 c4 14             	add    $0x14,%esp
 804e9c9:	5b                   	pop    %ebx
 804e9ca:	5d                   	pop    %ebp
 804e9cb:	c3                   	ret    
 804e9cc:	8d 74 26 00          	lea    0x0(%esi,%eiz,1),%esi

0804e9d0 <__sclose>:
 804e9d0:	55                   	push   %ebp
 804e9d1:	89 e5                	mov    %esp,%ebp
 804e9d3:	8b 45 0c             	mov    0xc(%ebp),%eax
 804e9d6:	0f bf 40 0e          	movswl 0xe(%eax),%eax
 804e9da:	89 45 0c             	mov    %eax,0xc(%ebp)
 804e9dd:	5d                   	pop    %ebp
 804e9de:	e9 4d 13 00 00       	jmp    804fd30 <_close_r>
 804e9e3:	66 90                	xchg   %ax,%ax
 804e9e5:	66 90                	xchg   %ax,%ax
 804e9e7:	66 90                	xchg   %ax,%ax
 804e9e9:	66 90                	xchg   %ax,%ax
 804e9eb:	66 90                	xchg   %ax,%ax
 804e9ed:	66 90                	xchg   %ax,%ax
 804e9ef:	90                   	nop

0804e9f0 <strcmp>:
 804e9f0:	55                   	push   %ebp
 804e9f1:	89 e5                	mov    %esp,%ebp
 804e9f3:	8b 45 08             	mov    0x8(%ebp),%eax
 804e9f6:	8b 55 0c             	mov    0xc(%ebp),%edx
 804e9f9:	53                   	push   %ebx
 804e9fa:	89 c1                	mov    %eax,%ecx
 804e9fc:	09 d1                	or     %edx,%ecx
 804e9fe:	83 e1 03             	and    $0x3,%ecx
 804ea01:	75 17                	jne    804ea1a <strcmp+0x2a>
 804ea03:	8b 08                	mov    (%eax),%ecx
 804ea05:	3b 0a                	cmp    (%edx),%ecx
 804ea07:	74 33                	je     804ea3c <strcmp+0x4c>
 804ea09:	eb 0f                	jmp    804ea1a <strcmp+0x2a>
 804ea0b:	90                   	nop
 804ea0c:	8d 74 26 00          	lea    0x0(%esi,%eiz,1),%esi
 804ea10:	3a 0a                	cmp    (%edx),%cl
 804ea12:	75 0d                	jne    804ea21 <strcmp+0x31>
 804ea14:	83 c0 01             	add    $0x1,%eax
 804ea17:	83 c2 01             	add    $0x1,%edx
 804ea1a:	0f b6 08             	movzbl (%eax),%ecx
 804ea1d:	84 c9                	test   %cl,%cl
 804ea1f:	75 ef                	jne    804ea10 <strcmp+0x20>
 804ea21:	0f b6 00             	movzbl (%eax),%eax
 804ea24:	0f b6 12             	movzbl (%edx),%edx
 804ea27:	5b                   	pop    %ebx
 804ea28:	5d                   	pop    %ebp
 804ea29:	29 d0                	sub    %edx,%eax
 804ea2b:	c3                   	ret    
 804ea2c:	8d 74 26 00          	lea    0x0(%esi,%eiz,1),%esi
 804ea30:	83 c0 04             	add    $0x4,%eax
 804ea33:	83 c2 04             	add    $0x4,%edx
 804ea36:	8b 08                	mov    (%eax),%ecx
 804ea38:	3b 0a                	cmp    (%edx),%ecx
 804ea3a:	75 de                	jne    804ea1a <strcmp+0x2a>
 804ea3c:	8d 99 ff fe fe fe    	lea    -0x1010101(%ecx),%ebx
 804ea42:	f7 d1                	not    %ecx
 804ea44:	21 cb                	and    %ecx,%ebx
 804ea46:	81 e3 80 80 80 80    	and    $0x80808080,%ebx
 804ea4c:	74 e2                	je     804ea30 <strcmp+0x40>
 804ea4e:	31 c0                	xor    %eax,%eax
 804ea50:	5b                   	pop    %ebx
 804ea51:	5d                   	pop    %ebp
 804ea52:	c3                   	ret    
 804ea53:	66 90                	xchg   %ax,%ax
 804ea55:	66 90                	xchg   %ax,%ax
 804ea57:	66 90                	xchg   %ax,%ax
 804ea59:	66 90                	xchg   %ax,%ax
 804ea5b:	66 90                	xchg   %ax,%ax
 804ea5d:	66 90                	xchg   %ax,%ax
 804ea5f:	90                   	nop

0804ea60 <__sprint_r.part.0>:
 804ea60:	55                   	push   %ebp
 804ea61:	89 e5                	mov    %esp,%ebp
 804ea63:	57                   	push   %edi
 804ea64:	56                   	push   %esi
 804ea65:	53                   	push   %ebx
 804ea66:	83 ec 2c             	sub    $0x2c,%esp
 804ea69:	f6 42 65 20          	testb  $0x20,0x65(%edx)
 804ea6d:	89 45 e4             	mov    %eax,-0x1c(%ebp)
 804ea70:	89 c8                	mov    %ecx,%eax
 804ea72:	89 4d dc             	mov    %ecx,-0x24(%ebp)
 804ea75:	0f 84 a5 00 00 00    	je     804eb20 <__sprint_r.part.0+0xc0>
 804ea7b:	8b 40 08             	mov    0x8(%eax),%eax
 804ea7e:	8b 09                	mov    (%ecx),%ecx
 804ea80:	85 c0                	test   %eax,%eax
 804ea82:	89 4d d8             	mov    %ecx,-0x28(%ebp)
 804ea85:	0f 84 8a 00 00 00    	je     804eb15 <__sprint_r.part.0+0xb5>
 804ea8b:	89 55 d4             	mov    %edx,-0x2c(%ebp)
 804ea8e:	8b 45 d8             	mov    -0x28(%ebp),%eax
 804ea91:	31 ff                	xor    %edi,%edi
 804ea93:	8b 58 04             	mov    0x4(%eax),%ebx
 804ea96:	8b 30                	mov    (%eax),%esi
 804ea98:	c1 eb 02             	shr    $0x2,%ebx
 804ea9b:	85 db                	test   %ebx,%ebx
 804ea9d:	7e 5c                	jle    804eafb <__sprint_r.part.0+0x9b>
 804ea9f:	89 5d e0             	mov    %ebx,-0x20(%ebp)
 804eaa2:	89 f3                	mov    %esi,%ebx
 804eaa4:	89 fe                	mov    %edi,%esi
 804eaa6:	8b 7d d4             	mov    -0x2c(%ebp),%edi
 804eaa9:	eb 0d                	jmp    804eab8 <__sprint_r.part.0+0x58>
 804eaab:	90                   	nop
 804eaac:	8d 74 26 00          	lea    0x0(%esi,%eiz,1),%esi
 804eab0:	83 c6 01             	add    $0x1,%esi
 804eab3:	39 75 e0             	cmp    %esi,-0x20(%ebp)
 804eab6:	74 40                	je     804eaf8 <__sprint_r.part.0+0x98>
 804eab8:	89 7c 24 08          	mov    %edi,0x8(%esp)
 804eabc:	8b 04 b3             	mov    (%ebx,%esi,4),%eax
 804eabf:	89 44 24 04          	mov    %eax,0x4(%esp)
 804eac3:	8b 45 e4             	mov    -0x1c(%ebp),%eax
 804eac6:	89 04 24             	mov    %eax,(%esp)
 804eac9:	e8 b2 13 00 00       	call   804fe80 <_fputwc_r>
 804eace:	83 f8 ff             	cmp    $0xffffffff,%eax
 804ead1:	75 dd                	jne    804eab0 <__sprint_r.part.0+0x50>
 804ead3:	b8 ff ff ff ff       	mov    $0xffffffff,%eax
 804ead8:	8b 55 dc             	mov    -0x24(%ebp),%edx
 804eadb:	c7 42 08 00 00 00 00 	movl   $0x0,0x8(%edx)
 804eae2:	c7 42 04 00 00 00 00 	movl   $0x0,0x4(%edx)
 804eae9:	83 c4 2c             	add    $0x2c,%esp
 804eaec:	5b                   	pop    %ebx
 804eaed:	5e                   	pop    %esi
 804eaee:	5f                   	pop    %edi
 804eaef:	5d                   	pop    %ebp
 804eaf0:	c3                   	ret    
 804eaf1:	8d b4 26 00 00 00 00 	lea    0x0(%esi,%eiz,1),%esi
 804eaf8:	8b 5d e0             	mov    -0x20(%ebp),%ebx
 804eafb:	8b 4d dc             	mov    -0x24(%ebp),%ecx
 804eafe:	c1 e3 02             	shl    $0x2,%ebx
 804eb01:	83 45 d8 08          	addl   $0x8,-0x28(%ebp)
 804eb05:	8b 41 08             	mov    0x8(%ecx),%eax
 804eb08:	29 d8                	sub    %ebx,%eax
 804eb0a:	85 c0                	test   %eax,%eax
 804eb0c:	89 41 08             	mov    %eax,0x8(%ecx)
 804eb0f:	0f 85 79 ff ff ff    	jne    804ea8e <__sprint_r.part.0+0x2e>
 804eb15:	31 c0                	xor    %eax,%eax
 804eb17:	eb bf                	jmp    804ead8 <__sprint_r.part.0+0x78>
 804eb19:	8d b4 26 00 00 00 00 	lea    0x0(%esi,%eiz,1),%esi
 804eb20:	8b 45 dc             	mov    -0x24(%ebp),%eax
 804eb23:	89 54 24 04          	mov    %edx,0x4(%esp)
 804eb27:	89 44 24 08          	mov    %eax,0x8(%esp)
 804eb2b:	8b 45 e4             	mov    -0x1c(%ebp),%eax
 804eb2e:	89 04 24             	mov    %eax,(%esp)
 804eb31:	e8 ca d7 ff ff       	call   804c300 <__sfvwrite_r>
 804eb36:	eb a0                	jmp    804ead8 <__sprint_r.part.0+0x78>
 804eb38:	90                   	nop
 804eb39:	8d b4 26 00 00 00 00 	lea    0x0(%esi,%eiz,1),%esi

0804eb40 <__sprint_r>:
 804eb40:	55                   	push   %ebp
 804eb41:	89 e5                	mov    %esp,%ebp
 804eb43:	8b 4d 10             	mov    0x10(%ebp),%ecx
 804eb46:	8b 45 08             	mov    0x8(%ebp),%eax
 804eb49:	8b 55 0c             	mov    0xc(%ebp),%edx
 804eb4c:	83 79 08 00          	cmpl   $0x0,0x8(%ecx)
 804eb50:	74 06                	je     804eb58 <__sprint_r+0x18>
 804eb52:	5d                   	pop    %ebp
 804eb53:	e9 08 ff ff ff       	jmp    804ea60 <__sprint_r.part.0>
 804eb58:	c7 41 04 00 00 00 00 	movl   $0x0,0x4(%ecx)
 804eb5f:	31 c0                	xor    %eax,%eax
 804eb61:	5d                   	pop    %ebp
 804eb62:	c3                   	ret    
 804eb63:	8d b6 00 00 00 00    	lea    0x0(%esi),%esi
 804eb69:	8d bc 27 00 00 00 00 	lea    0x0(%edi,%eiz,1),%edi

0804eb70 <_vfiprintf_r>:
 804eb70:	55                   	push   %ebp
 804eb71:	89 e5                	mov    %esp,%ebp
 804eb73:	57                   	push   %edi
 804eb74:	56                   	push   %esi
 804eb75:	53                   	push   %ebx
 804eb76:	81 ec cc 00 00 00    	sub    $0xcc,%esp
 804eb7c:	8b 5d 08             	mov    0x8(%ebp),%ebx
 804eb7f:	85 db                	test   %ebx,%ebx
 804eb81:	74 0e                	je     804eb91 <_vfiprintf_r+0x21>
 804eb83:	8b 45 08             	mov    0x8(%ebp),%eax
 804eb86:	8b 48 38             	mov    0x38(%eax),%ecx
 804eb89:	85 c9                	test   %ecx,%ecx
 804eb8b:	0f 84 c7 01 00 00    	je     804ed58 <_vfiprintf_r+0x1e8>
 804eb91:	8b 45 0c             	mov    0xc(%ebp),%eax
 804eb94:	0f b7 40 0c          	movzwl 0xc(%eax),%eax
 804eb98:	f6 c4 20             	test   $0x20,%ah
 804eb9b:	75 11                	jne    804ebae <_vfiprintf_r+0x3e>
 804eb9d:	8b 7d 0c             	mov    0xc(%ebp),%edi
 804eba0:	80 cc 20             	or     $0x20,%ah
 804eba3:	81 67 64 ff df ff ff 	andl   $0xffffdfff,0x64(%edi)
 804ebaa:	66 89 47 0c          	mov    %ax,0xc(%edi)
 804ebae:	a8 08                	test   $0x8,%al
 804ebb0:	0f 84 3a 01 00 00    	je     804ecf0 <_vfiprintf_r+0x180>
 804ebb6:	8b 7d 0c             	mov    0xc(%ebp),%edi
 804ebb9:	8b 57 10             	mov    0x10(%edi),%edx
 804ebbc:	85 d2                	test   %edx,%edx
 804ebbe:	0f 84 2c 01 00 00    	je     804ecf0 <_vfiprintf_r+0x180>
 804ebc4:	83 e0 1a             	and    $0x1a,%eax
 804ebc7:	66 83 f8 0a          	cmp    $0xa,%ax
 804ebcb:	0f 84 49 01 00 00    	je     804ed1a <_vfiprintf_r+0x1aa>
 804ebd1:	8d 45 a8             	lea    -0x58(%ebp),%eax
 804ebd4:	8d 7d a7             	lea    -0x59(%ebp),%edi
 804ebd7:	89 c6                	mov    %eax,%esi
 804ebd9:	89 85 74 ff ff ff    	mov    %eax,-0x8c(%ebp)
 804ebdf:	29 f8                	sub    %edi,%eax
 804ebe1:	c7 85 7c ff ff ff 00 	movl   $0x0,-0x84(%ebp)
 804ebe8:	00 00 00 
 804ebeb:	c7 85 78 ff ff ff 00 	movl   $0x0,-0x88(%ebp)
 804ebf2:	00 00 00 
 804ebf5:	c7 85 40 ff ff ff 00 	movl   $0x0,-0xc0(%ebp)
 804ebfc:	00 00 00 
 804ebff:	c7 85 50 ff ff ff 00 	movl   $0x0,-0xb0(%ebp)
 804ec06:	00 00 00 
 804ec09:	89 85 3c ff ff ff    	mov    %eax,-0xc4(%ebp)
 804ec0f:	8b 45 10             	mov    0x10(%ebp),%eax
 804ec12:	8b 5d 10             	mov    0x10(%ebp),%ebx
 804ec15:	0f b6 00             	movzbl (%eax),%eax
 804ec18:	84 c0                	test   %al,%al
 804ec1a:	74 5b                	je     804ec77 <_vfiprintf_r+0x107>
 804ec1c:	3c 25                	cmp    $0x25,%al
 804ec1e:	75 12                	jne    804ec32 <_vfiprintf_r+0xc2>
 804ec20:	eb 55                	jmp    804ec77 <_vfiprintf_r+0x107>
 804ec22:	8d b6 00 00 00 00    	lea    0x0(%esi),%esi
 804ec28:	84 c0                	test   %al,%al
 804ec2a:	8d b6 00 00 00 00    	lea    0x0(%esi),%esi
 804ec30:	74 0a                	je     804ec3c <_vfiprintf_r+0xcc>
 804ec32:	83 c3 01             	add    $0x1,%ebx
 804ec35:	0f b6 03             	movzbl (%ebx),%eax
 804ec38:	3c 25                	cmp    $0x25,%al
 804ec3a:	75 ec                	jne    804ec28 <_vfiprintf_r+0xb8>
 804ec3c:	89 df                	mov    %ebx,%edi
 804ec3e:	2b 7d 10             	sub    0x10(%ebp),%edi
 804ec41:	74 34                	je     804ec77 <_vfiprintf_r+0x107>
 804ec43:	8b 45 10             	mov    0x10(%ebp),%eax
 804ec46:	83 c6 08             	add    $0x8,%esi
 804ec49:	8b 95 7c ff ff ff    	mov    -0x84(%ebp),%edx
 804ec4f:	89 7e fc             	mov    %edi,-0x4(%esi)
 804ec52:	89 46 f8             	mov    %eax,-0x8(%esi)
 804ec55:	8b 85 78 ff ff ff    	mov    -0x88(%ebp),%eax
 804ec5b:	01 fa                	add    %edi,%edx
 804ec5d:	89 95 7c ff ff ff    	mov    %edx,-0x84(%ebp)
 804ec63:	83 c0 01             	add    $0x1,%eax
 804ec66:	83 f8 07             	cmp    $0x7,%eax
 804ec69:	89 85 78 ff ff ff    	mov    %eax,-0x88(%ebp)
 804ec6f:	7f 57                	jg     804ecc8 <_vfiprintf_r+0x158>
 804ec71:	01 bd 50 ff ff ff    	add    %edi,-0xb0(%ebp)
 804ec77:	80 3b 00             	cmpb   $0x0,(%ebx)
 804ec7a:	0f 84 f9 07 00 00    	je     804f479 <_vfiprintf_r+0x909>
 804ec80:	83 c3 01             	add    $0x1,%ebx
 804ec83:	31 ff                	xor    %edi,%edi
 804ec85:	c6 85 71 ff ff ff 00 	movb   $0x0,-0x8f(%ebp)
 804ec8c:	c7 85 5c ff ff ff ff 	movl   $0xffffffff,-0xa4(%ebp)
 804ec93:	ff ff ff 
 804ec96:	c7 85 54 ff ff ff 00 	movl   $0x0,-0xac(%ebp)
 804ec9d:	00 00 00 
 804eca0:	c7 85 64 ff ff ff 00 	movl   $0x0,-0x9c(%ebp)
 804eca7:	00 00 00 
 804ecaa:	0f be 03             	movsbl (%ebx),%eax
 804ecad:	8d 53 01             	lea    0x1(%ebx),%edx
 804ecb0:	8d 48 e0             	lea    -0x20(%eax),%ecx
 804ecb3:	83 f9 58             	cmp    $0x58,%ecx
 804ecb6:	0f 87 15 06 00 00    	ja     804f2d1 <_vfiprintf_r+0x761>
 804ecbc:	ff 24 8d 08 09 05 08 	jmp    *0x8050908(,%ecx,4)
 804ecc3:	90                   	nop
 804ecc4:	8d 74 26 00          	lea    0x0(%esi,%eiz,1),%esi
 804ecc8:	85 d2                	test   %edx,%edx
 804ecca:	0f 85 e8 0b 00 00    	jne    804f8b8 <_vfiprintf_r+0xd48>
 804ecd0:	c7 85 78 ff ff ff 00 	movl   $0x0,-0x88(%ebp)
 804ecd7:	00 00 00 
 804ecda:	8d 75 a8             	lea    -0x58(%ebp),%esi
 804ecdd:	eb 92                	jmp    804ec71 <_vfiprintf_r+0x101>
 804ecdf:	90                   	nop
 804ece0:	83 8d 64 ff ff ff 10 	orl    $0x10,-0x9c(%ebp)
 804ece7:	89 d3                	mov    %edx,%ebx
 804ece9:	eb bf                	jmp    804ecaa <_vfiprintf_r+0x13a>
 804eceb:	90                   	nop
 804ecec:	8d 74 26 00          	lea    0x0(%esi,%eiz,1),%esi
 804ecf0:	8b 45 0c             	mov    0xc(%ebp),%eax
 804ecf3:	89 44 24 04          	mov    %eax,0x4(%esp)
 804ecf7:	8b 45 08             	mov    0x8(%ebp),%eax
 804ecfa:	89 04 24             	mov    %eax,(%esp)
 804ecfd:	e8 de b6 ff ff       	call   804a3e0 <__swsetup_r>
 804ed02:	85 c0                	test   %eax,%eax
 804ed04:	75 42                	jne    804ed48 <_vfiprintf_r+0x1d8>
 804ed06:	8b 45 0c             	mov    0xc(%ebp),%eax
 804ed09:	0f b7 40 0c          	movzwl 0xc(%eax),%eax
 804ed0d:	83 e0 1a             	and    $0x1a,%eax
 804ed10:	66 83 f8 0a          	cmp    $0xa,%ax
 804ed14:	0f 85 b7 fe ff ff    	jne    804ebd1 <_vfiprintf_r+0x61>
 804ed1a:	8b 45 0c             	mov    0xc(%ebp),%eax
 804ed1d:	66 83 78 0e 00       	cmpw   $0x0,0xe(%eax)
 804ed22:	0f 88 a9 fe ff ff    	js     804ebd1 <_vfiprintf_r+0x61>
 804ed28:	8b 45 14             	mov    0x14(%ebp),%eax
 804ed2b:	8b 4d 10             	mov    0x10(%ebp),%ecx
 804ed2e:	8b 55 0c             	mov    0xc(%ebp),%edx
 804ed31:	89 04 24             	mov    %eax,(%esp)
 804ed34:	8b 45 08             	mov    0x8(%ebp),%eax
 804ed37:	e8 04 0e 00 00       	call   804fb40 <__sbprintf>
 804ed3c:	81 c4 cc 00 00 00    	add    $0xcc,%esp
 804ed42:	5b                   	pop    %ebx
 804ed43:	5e                   	pop    %esi
 804ed44:	5f                   	pop    %edi
 804ed45:	5d                   	pop    %ebp
 804ed46:	c3                   	ret    
 804ed47:	90                   	nop
 804ed48:	81 c4 cc 00 00 00    	add    $0xcc,%esp
 804ed4e:	b8 ff ff ff ff       	mov    $0xffffffff,%eax
 804ed53:	5b                   	pop    %ebx
 804ed54:	5e                   	pop    %esi
 804ed55:	5f                   	pop    %edi
 804ed56:	5d                   	pop    %ebp
 804ed57:	c3                   	ret    
 804ed58:	89 04 24             	mov    %eax,(%esp)
 804ed5b:	e8 f0 ce ff ff       	call   804bc50 <__sinit>
 804ed60:	e9 2c fe ff ff       	jmp    804eb91 <_vfiprintf_r+0x21>
 804ed65:	8b 45 14             	mov    0x14(%ebp),%eax
 804ed68:	8b 4d 14             	mov    0x14(%ebp),%ecx
 804ed6b:	8b 00                	mov    (%eax),%eax
 804ed6d:	83 c1 04             	add    $0x4,%ecx
 804ed70:	89 4d 14             	mov    %ecx,0x14(%ebp)
 804ed73:	85 c0                	test   %eax,%eax
 804ed75:	89 85 54 ff ff ff    	mov    %eax,-0xac(%ebp)
 804ed7b:	0f 89 66 ff ff ff    	jns    804ece7 <_vfiprintf_r+0x177>
 804ed81:	f7 9d 54 ff ff ff    	negl   -0xac(%ebp)
 804ed87:	83 8d 64 ff ff ff 04 	orl    $0x4,-0x9c(%ebp)
 804ed8e:	89 d3                	mov    %edx,%ebx
 804ed90:	e9 15 ff ff ff       	jmp    804ecaa <_vfiprintf_r+0x13a>
 804ed95:	bf 2b 00 00 00       	mov    $0x2b,%edi
 804ed9a:	89 d3                	mov    %edx,%ebx
 804ed9c:	e9 09 ff ff ff       	jmp    804ecaa <_vfiprintf_r+0x13a>
 804eda1:	8b 45 14             	mov    0x14(%ebp),%eax
 804eda4:	83 8d 64 ff ff ff 02 	orl    $0x2,-0x9c(%ebp)
 804edab:	89 55 10             	mov    %edx,0x10(%ebp)
 804edae:	ba 02 00 00 00       	mov    $0x2,%edx
 804edb3:	8b 08                	mov    (%eax),%ecx
 804edb5:	83 c0 04             	add    $0x4,%eax
 804edb8:	c6 85 72 ff ff ff 30 	movb   $0x30,-0x8e(%ebp)
 804edbf:	c6 85 73 ff ff ff 78 	movb   $0x78,-0x8d(%ebp)
 804edc6:	89 45 14             	mov    %eax,0x14(%ebp)
 804edc9:	c7 85 40 ff ff ff 9e 	movl   $0x805059e,-0xc0(%ebp)
 804edd0:	05 05 08 
 804edd3:	90                   	nop
 804edd4:	8d 74 26 00          	lea    0x0(%esi,%eiz,1),%esi
 804edd8:	c6 85 71 ff ff ff 00 	movb   $0x0,-0x8f(%ebp)
 804eddf:	31 ff                	xor    %edi,%edi
 804ede1:	8b 9d 64 ff ff ff    	mov    -0x9c(%ebp),%ebx
 804ede7:	89 d8                	mov    %ebx,%eax
 804ede9:	24 7f                	and    $0x7f,%al
 804edeb:	83 bd 5c ff ff ff 00 	cmpl   $0x0,-0xa4(%ebp)
 804edf2:	0f 48 c3             	cmovs  %ebx,%eax
 804edf5:	89 85 64 ff ff ff    	mov    %eax,-0x9c(%ebp)
 804edfb:	8b 85 5c ff ff ff    	mov    -0xa4(%ebp),%eax
 804ee01:	85 c0                	test   %eax,%eax
 804ee03:	75 08                	jne    804ee0d <_vfiprintf_r+0x29d>
 804ee05:	85 c9                	test   %ecx,%ecx
 804ee07:	0f 84 8b 08 00 00    	je     804f698 <_vfiprintf_r+0xb28>
 804ee0d:	80 fa 01             	cmp    $0x1,%dl
 804ee10:	0f 84 52 0a 00 00    	je     804f868 <_vfiprintf_r+0xcf8>
 804ee16:	80 fa 02             	cmp    $0x2,%dl
 804ee19:	8d 45 a8             	lea    -0x58(%ebp),%eax
 804ee1c:	0f 85 ee 09 00 00    	jne    804f810 <_vfiprintf_r+0xca0>
 804ee22:	8b 9d 40 ff ff ff    	mov    -0xc0(%ebp),%ebx
 804ee28:	89 ca                	mov    %ecx,%edx
 804ee2a:	83 e8 01             	sub    $0x1,%eax
 804ee2d:	83 e2 0f             	and    $0xf,%edx
 804ee30:	0f b6 14 13          	movzbl (%ebx,%edx,1),%edx
 804ee34:	c1 e9 04             	shr    $0x4,%ecx
 804ee37:	85 c9                	test   %ecx,%ecx
 804ee39:	88 10                	mov    %dl,(%eax)
 804ee3b:	75 eb                	jne    804ee28 <_vfiprintf_r+0x2b8>
 804ee3d:	8d 4d a8             	lea    -0x58(%ebp),%ecx
 804ee40:	29 c1                	sub    %eax,%ecx
 804ee42:	89 85 44 ff ff ff    	mov    %eax,-0xbc(%ebp)
 804ee48:	89 8d 58 ff ff ff    	mov    %ecx,-0xa8(%ebp)
 804ee4e:	66 90                	xchg   %ax,%ax
 804ee50:	8b 85 5c ff ff ff    	mov    -0xa4(%ebp),%eax
 804ee56:	8b 8d 58 ff ff ff    	mov    -0xa8(%ebp),%ecx
 804ee5c:	39 c1                	cmp    %eax,%ecx
 804ee5e:	0f 4d c1             	cmovge %ecx,%eax
 804ee61:	89 85 60 ff ff ff    	mov    %eax,-0xa0(%ebp)
 804ee67:	89 f8                	mov    %edi,%eax
 804ee69:	3c 01                	cmp    $0x1,%al
 804ee6b:	83 9d 60 ff ff ff ff 	sbbl   $0xffffffff,-0xa0(%ebp)
 804ee72:	8b 9d 60 ff ff ff    	mov    -0xa0(%ebp),%ebx
 804ee78:	8b 8d 64 ff ff ff    	mov    -0x9c(%ebp),%ecx
 804ee7e:	89 d8                	mov    %ebx,%eax
 804ee80:	89 cf                	mov    %ecx,%edi
 804ee82:	83 c0 02             	add    $0x2,%eax
 804ee85:	83 e7 02             	and    $0x2,%edi
 804ee88:	89 bd 4c ff ff ff    	mov    %edi,-0xb4(%ebp)
 804ee8e:	89 cf                	mov    %ecx,%edi
 804ee90:	0f 44 c3             	cmove  %ebx,%eax
 804ee93:	81 e7 84 00 00 00    	and    $0x84,%edi
 804ee99:	89 85 60 ff ff ff    	mov    %eax,-0xa0(%ebp)
 804ee9f:	89 bd 48 ff ff ff    	mov    %edi,-0xb8(%ebp)
 804eea5:	0f 85 b5 04 00 00    	jne    804f360 <_vfiprintf_r+0x7f0>
 804eeab:	8b 9d 54 ff ff ff    	mov    -0xac(%ebp),%ebx
 804eeb1:	2b 9d 60 ff ff ff    	sub    -0xa0(%ebp),%ebx
 804eeb7:	85 db                	test   %ebx,%ebx
 804eeb9:	0f 8e a1 04 00 00    	jle    804f360 <_vfiprintf_r+0x7f0>
 804eebf:	8b 85 78 ff ff ff    	mov    -0x88(%ebp),%eax
 804eec5:	8b 95 7c ff ff ff    	mov    -0x84(%ebp),%edx
 804eecb:	83 c0 01             	add    $0x1,%eax
 804eece:	83 fb 10             	cmp    $0x10,%ebx
 804eed1:	7e 5b                	jle    804ef2e <_vfiprintf_r+0x3be>
 804eed3:	8b bd 78 ff ff ff    	mov    -0x88(%ebp),%edi
 804eed9:	eb 15                	jmp    804eef0 <_vfiprintf_r+0x380>
 804eedb:	90                   	nop
 804eedc:	8d 74 26 00          	lea    0x0(%esi,%eiz,1),%esi
 804eee0:	8d 47 02             	lea    0x2(%edi),%eax
 804eee3:	83 c6 08             	add    $0x8,%esi
 804eee6:	89 cf                	mov    %ecx,%edi
 804eee8:	83 eb 10             	sub    $0x10,%ebx
 804eeeb:	83 fb 10             	cmp    $0x10,%ebx
 804eeee:	7e 3e                	jle    804ef2e <_vfiprintf_r+0x3be>
 804eef0:	8d 4f 01             	lea    0x1(%edi),%ecx
 804eef3:	83 c2 10             	add    $0x10,%edx
 804eef6:	83 f9 07             	cmp    $0x7,%ecx
 804eef9:	c7 06 7c 0a 05 08    	movl   $0x8050a7c,(%esi)
 804eeff:	c7 46 04 10 00 00 00 	movl   $0x10,0x4(%esi)
 804ef06:	89 95 7c ff ff ff    	mov    %edx,-0x84(%ebp)
 804ef0c:	89 8d 78 ff ff ff    	mov    %ecx,-0x88(%ebp)
 804ef12:	7e cc                	jle    804eee0 <_vfiprintf_r+0x370>
 804ef14:	85 d2                	test   %edx,%edx
 804ef16:	0f 85 14 04 00 00    	jne    804f330 <_vfiprintf_r+0x7c0>
 804ef1c:	83 eb 10             	sub    $0x10,%ebx
 804ef1f:	31 ff                	xor    %edi,%edi
 804ef21:	83 fb 10             	cmp    $0x10,%ebx
 804ef24:	b8 01 00 00 00       	mov    $0x1,%eax
 804ef29:	8d 75 a8             	lea    -0x58(%ebp),%esi
 804ef2c:	7f c2                	jg     804eef0 <_vfiprintf_r+0x380>
 804ef2e:	01 da                	add    %ebx,%edx
 804ef30:	83 f8 07             	cmp    $0x7,%eax
 804ef33:	c7 06 7c 0a 05 08    	movl   $0x8050a7c,(%esi)
 804ef39:	89 5e 04             	mov    %ebx,0x4(%esi)
 804ef3c:	89 95 7c ff ff ff    	mov    %edx,-0x84(%ebp)
 804ef42:	89 85 78 ff ff ff    	mov    %eax,-0x88(%ebp)
 804ef48:	0f 8f 02 09 00 00    	jg     804f850 <_vfiprintf_r+0xce0>
 804ef4e:	83 c6 08             	add    $0x8,%esi
 804ef51:	8d 48 01             	lea    0x1(%eax),%ecx
 804ef54:	e9 16 04 00 00       	jmp    804f36f <_vfiprintf_r+0x7ff>
 804ef59:	8b 45 14             	mov    0x14(%ebp),%eax
 804ef5c:	89 55 10             	mov    %edx,0x10(%ebp)
 804ef5f:	c6 85 71 ff ff ff 00 	movb   $0x0,-0x8f(%ebp)
 804ef66:	8d 58 04             	lea    0x4(%eax),%ebx
 804ef69:	8b 00                	mov    (%eax),%eax
 804ef6b:	85 c0                	test   %eax,%eax
 804ef6d:	89 85 44 ff ff ff    	mov    %eax,-0xbc(%ebp)
 804ef73:	0f 84 e9 0a 00 00    	je     804fa62 <_vfiprintf_r+0xef2>
 804ef79:	8b bd 5c ff ff ff    	mov    -0xa4(%ebp),%edi
 804ef7f:	85 ff                	test   %edi,%edi
 804ef81:	0f 88 7e 0a 00 00    	js     804fa05 <_vfiprintf_r+0xe95>
 804ef87:	8b 85 44 ff ff ff    	mov    -0xbc(%ebp),%eax
 804ef8d:	89 7c 24 08          	mov    %edi,0x8(%esp)
 804ef91:	c7 44 24 04 00 00 00 	movl   $0x0,0x4(%esp)
 804ef98:	00 
 804ef99:	89 04 24             	mov    %eax,(%esp)
 804ef9c:	e8 bf e2 ff ff       	call   804d260 <memchr>
 804efa1:	85 c0                	test   %eax,%eax
 804efa3:	0f 84 f0 0a 00 00    	je     804fa99 <_vfiprintf_r+0xf29>
 804efa9:	2b 85 44 ff ff ff    	sub    -0xbc(%ebp),%eax
 804efaf:	89 5d 14             	mov    %ebx,0x14(%ebp)
 804efb2:	c7 85 5c ff ff ff 00 	movl   $0x0,-0xa4(%ebp)
 804efb9:	00 00 00 
 804efbc:	39 f8                	cmp    %edi,%eax
 804efbe:	0f 4f c7             	cmovg  %edi,%eax
 804efc1:	0f b6 bd 71 ff ff ff 	movzbl -0x8f(%ebp),%edi
 804efc8:	89 85 58 ff ff ff    	mov    %eax,-0xa8(%ebp)
 804efce:	e9 7d fe ff ff       	jmp    804ee50 <_vfiprintf_r+0x2e0>
 804efd3:	83 8d 64 ff ff ff 40 	orl    $0x40,-0x9c(%ebp)
 804efda:	89 d3                	mov    %edx,%ebx
 804efdc:	e9 c9 fc ff ff       	jmp    804ecaa <_vfiprintf_r+0x13a>
 804efe1:	f6 85 64 ff ff ff 10 	testb  $0x10,-0x9c(%ebp)
 804efe8:	89 f9                	mov    %edi,%ecx
 804efea:	89 55 10             	mov    %edx,0x10(%ebp)
 804efed:	8b 7d 14             	mov    0x14(%ebp),%edi
 804eff0:	88 8d 71 ff ff ff    	mov    %cl,-0x8f(%ebp)
 804eff6:	c7 85 40 ff ff ff 9e 	movl   $0x805059e,-0xc0(%ebp)
 804effd:	05 05 08 
 804f000:	0f 85 44 01 00 00    	jne    804f14a <_vfiprintf_r+0x5da>
 804f006:	f6 85 64 ff ff ff 40 	testb  $0x40,-0x9c(%ebp)
 804f00d:	0f 84 37 01 00 00    	je     804f14a <_vfiprintf_r+0x5da>
 804f013:	0f b7 0f             	movzwl (%edi),%ecx
 804f016:	83 c7 04             	add    $0x4,%edi
 804f019:	89 7d 14             	mov    %edi,0x14(%ebp)
 804f01c:	f6 85 64 ff ff ff 01 	testb  $0x1,-0x9c(%ebp)
 804f023:	ba 02 00 00 00       	mov    $0x2,%edx
 804f028:	0f 84 aa fd ff ff    	je     804edd8 <_vfiprintf_r+0x268>
 804f02e:	85 c9                	test   %ecx,%ecx
 804f030:	0f 84 a2 fd ff ff    	je     804edd8 <_vfiprintf_r+0x268>
 804f036:	c6 85 72 ff ff ff 30 	movb   $0x30,-0x8e(%ebp)
 804f03d:	88 85 73 ff ff ff    	mov    %al,-0x8d(%ebp)
 804f043:	83 8d 64 ff ff ff 02 	orl    $0x2,-0x9c(%ebp)
 804f04a:	e9 89 fd ff ff       	jmp    804edd8 <_vfiprintf_r+0x268>
 804f04f:	f6 85 64 ff ff ff 10 	testb  $0x10,-0x9c(%ebp)
 804f056:	89 f8                	mov    %edi,%eax
 804f058:	89 55 10             	mov    %edx,0x10(%ebp)
 804f05b:	88 85 71 ff ff ff    	mov    %al,-0x8f(%ebp)
 804f061:	0f 85 a9 02 00 00    	jne    804f310 <_vfiprintf_r+0x7a0>
 804f067:	f6 85 64 ff ff ff 40 	testb  $0x40,-0x9c(%ebp)
 804f06e:	0f 84 9c 02 00 00    	je     804f310 <_vfiprintf_r+0x7a0>
 804f074:	8b 45 14             	mov    0x14(%ebp),%eax
 804f077:	0f b7 bd 50 ff ff ff 	movzwl -0xb0(%ebp),%edi
 804f07e:	8b 00                	mov    (%eax),%eax
 804f080:	66 89 38             	mov    %di,(%eax)
 804f083:	8b 45 14             	mov    0x14(%ebp),%eax
 804f086:	83 c0 04             	add    $0x4,%eax
 804f089:	89 45 14             	mov    %eax,0x14(%ebp)
 804f08c:	e9 7e fb ff ff       	jmp    804ec0f <_vfiprintf_r+0x9f>
 804f091:	f6 85 64 ff ff ff 10 	testb  $0x10,-0x9c(%ebp)
 804f098:	89 55 10             	mov    %edx,0x10(%ebp)
 804f09b:	8b 45 14             	mov    0x14(%ebp),%eax
 804f09e:	75 73                	jne    804f113 <_vfiprintf_r+0x5a3>
 804f0a0:	f6 85 64 ff ff ff 40 	testb  $0x40,-0x9c(%ebp)
 804f0a7:	74 6a                	je     804f113 <_vfiprintf_r+0x5a3>
 804f0a9:	0f b7 08             	movzwl (%eax),%ecx
 804f0ac:	83 c0 04             	add    $0x4,%eax
 804f0af:	ba 01 00 00 00       	mov    $0x1,%edx
 804f0b4:	89 45 14             	mov    %eax,0x14(%ebp)
 804f0b7:	e9 1c fd ff ff       	jmp    804edd8 <_vfiprintf_r+0x268>
 804f0bc:	f6 85 64 ff ff ff 10 	testb  $0x10,-0x9c(%ebp)
 804f0c3:	89 55 10             	mov    %edx,0x10(%ebp)
 804f0c6:	8b 45 14             	mov    0x14(%ebp),%eax
 804f0c9:	0f 85 f3 01 00 00    	jne    804f2c2 <_vfiprintf_r+0x752>
 804f0cf:	f6 85 64 ff ff ff 40 	testb  $0x40,-0x9c(%ebp)
 804f0d6:	0f 84 e6 01 00 00    	je     804f2c2 <_vfiprintf_r+0x752>
 804f0dc:	0f b7 08             	movzwl (%eax),%ecx
 804f0df:	83 c0 04             	add    $0x4,%eax
 804f0e2:	31 d2                	xor    %edx,%edx
 804f0e4:	89 45 14             	mov    %eax,0x14(%ebp)
 804f0e7:	e9 ec fc ff ff       	jmp    804edd8 <_vfiprintf_r+0x268>
 804f0ec:	81 8d 64 ff ff ff 80 	orl    $0x80,-0x9c(%ebp)
 804f0f3:	00 00 00 
 804f0f6:	89 d3                	mov    %edx,%ebx
 804f0f8:	e9 ad fb ff ff       	jmp    804ecaa <_vfiprintf_r+0x13a>
 804f0fd:	83 8d 64 ff ff ff 10 	orl    $0x10,-0x9c(%ebp)
 804f104:	f6 85 64 ff ff ff 10 	testb  $0x10,-0x9c(%ebp)
 804f10b:	89 55 10             	mov    %edx,0x10(%ebp)
 804f10e:	8b 45 14             	mov    0x14(%ebp),%eax
 804f111:	74 8d                	je     804f0a0 <_vfiprintf_r+0x530>
 804f113:	8b 08                	mov    (%eax),%ecx
 804f115:	83 c0 04             	add    $0x4,%eax
 804f118:	ba 01 00 00 00       	mov    $0x1,%edx
 804f11d:	89 45 14             	mov    %eax,0x14(%ebp)
 804f120:	e9 b3 fc ff ff       	jmp    804edd8 <_vfiprintf_r+0x268>
 804f125:	f6 85 64 ff ff ff 10 	testb  $0x10,-0x9c(%ebp)
 804f12c:	89 f9                	mov    %edi,%ecx
 804f12e:	89 55 10             	mov    %edx,0x10(%ebp)
 804f131:	8b 7d 14             	mov    0x14(%ebp),%edi
 804f134:	88 8d 71 ff ff ff    	mov    %cl,-0x8f(%ebp)
 804f13a:	c7 85 40 ff ff ff 8d 	movl   $0x805058d,-0xc0(%ebp)
 804f141:	05 05 08 
 804f144:	0f 84 bc fe ff ff    	je     804f006 <_vfiprintf_r+0x496>
 804f14a:	8b 0f                	mov    (%edi),%ecx
 804f14c:	83 c7 04             	add    $0x4,%edi
 804f14f:	89 7d 14             	mov    %edi,0x14(%ebp)
 804f152:	e9 c5 fe ff ff       	jmp    804f01c <_vfiprintf_r+0x4ac>
 804f157:	8b 45 14             	mov    0x14(%ebp),%eax
 804f15a:	89 55 10             	mov    %edx,0x10(%ebp)
 804f15d:	c6 85 71 ff ff ff 00 	movb   $0x0,-0x8f(%ebp)
 804f164:	c7 85 60 ff ff ff 01 	movl   $0x1,-0xa0(%ebp)
 804f16b:	00 00 00 
 804f16e:	8b 00                	mov    (%eax),%eax
 804f170:	c7 85 58 ff ff ff 01 	movl   $0x1,-0xa8(%ebp)
 804f177:	00 00 00 
 804f17a:	88 45 80             	mov    %al,-0x80(%ebp)
 804f17d:	8b 45 14             	mov    0x14(%ebp),%eax
 804f180:	83 c0 04             	add    $0x4,%eax
 804f183:	89 45 14             	mov    %eax,0x14(%ebp)
 804f186:	8d 45 80             	lea    -0x80(%ebp),%eax
 804f189:	89 85 44 ff ff ff    	mov    %eax,-0xbc(%ebp)
 804f18f:	c7 85 5c ff ff ff 00 	movl   $0x0,-0xa4(%ebp)
 804f196:	00 00 00 
 804f199:	e9 d4 fc ff ff       	jmp    804ee72 <_vfiprintf_r+0x302>
 804f19e:	f6 85 64 ff ff ff 10 	testb  $0x10,-0x9c(%ebp)
 804f1a5:	89 f8                	mov    %edi,%eax
 804f1a7:	88 85 71 ff ff ff    	mov    %al,-0x8f(%ebp)
 804f1ad:	8b 45 14             	mov    0x14(%ebp),%eax
 804f1b0:	89 55 10             	mov    %edx,0x10(%ebp)
 804f1b3:	0f 85 bd 00 00 00    	jne    804f276 <_vfiprintf_r+0x706>
 804f1b9:	f6 85 64 ff ff ff 40 	testb  $0x40,-0x9c(%ebp)
 804f1c0:	0f 84 b0 00 00 00    	je     804f276 <_vfiprintf_r+0x706>
 804f1c6:	0f bf 08             	movswl (%eax),%ecx
 804f1c9:	83 c0 04             	add    $0x4,%eax
 804f1cc:	89 45 14             	mov    %eax,0x14(%ebp)
 804f1cf:	85 c9                	test   %ecx,%ecx
 804f1d1:	0f 88 e6 07 00 00    	js     804f9bd <_vfiprintf_r+0xe4d>
 804f1d7:	0f b6 bd 71 ff ff ff 	movzbl -0x8f(%ebp),%edi
 804f1de:	ba 01 00 00 00       	mov    $0x1,%edx
 804f1e3:	e9 f9 fb ff ff       	jmp    804ede1 <_vfiprintf_r+0x271>
 804f1e8:	89 f8                	mov    %edi,%eax
 804f1ea:	89 d3                	mov    %edx,%ebx
 804f1ec:	84 c0                	test   %al,%al
 804f1ee:	b8 20 00 00 00       	mov    $0x20,%eax
 804f1f3:	0f 44 f8             	cmove  %eax,%edi
 804f1f6:	e9 af fa ff ff       	jmp    804ecaa <_vfiprintf_r+0x13a>
 804f1fb:	83 8d 64 ff ff ff 01 	orl    $0x1,-0x9c(%ebp)
 804f202:	89 d3                	mov    %edx,%ebx
 804f204:	e9 a1 fa ff ff       	jmp    804ecaa <_vfiprintf_r+0x13a>
 804f209:	0f be 02             	movsbl (%edx),%eax
 804f20c:	8d 5a 01             	lea    0x1(%edx),%ebx
 804f20f:	83 f8 2a             	cmp    $0x2a,%eax
 804f212:	0f 84 be 08 00 00    	je     804fad6 <_vfiprintf_r+0xf66>
 804f218:	8d 48 d0             	lea    -0x30(%eax),%ecx
 804f21b:	31 d2                	xor    %edx,%edx
 804f21d:	83 f9 09             	cmp    $0x9,%ecx
 804f220:	0f 87 9f 08 00 00    	ja     804fac5 <_vfiprintf_r+0xf55>
 804f226:	66 90                	xchg   %ax,%ax
 804f228:	8d 04 92             	lea    (%edx,%edx,4),%eax
 804f22b:	83 c3 01             	add    $0x1,%ebx
 804f22e:	8d 14 41             	lea    (%ecx,%eax,2),%edx
 804f231:	0f be 43 ff          	movsbl -0x1(%ebx),%eax
 804f235:	8d 48 d0             	lea    -0x30(%eax),%ecx
 804f238:	83 f9 09             	cmp    $0x9,%ecx
 804f23b:	76 eb                	jbe    804f228 <_vfiprintf_r+0x6b8>
 804f23d:	85 d2                	test   %edx,%edx
 804f23f:	b9 ff ff ff ff       	mov    $0xffffffff,%ecx
 804f244:	0f 48 d1             	cmovs  %ecx,%edx
 804f247:	89 95 5c ff ff ff    	mov    %edx,-0xa4(%ebp)
 804f24d:	89 da                	mov    %ebx,%edx
 804f24f:	e9 5c fa ff ff       	jmp    804ecb0 <_vfiprintf_r+0x140>
 804f254:	83 8d 64 ff ff ff 10 	orl    $0x10,-0x9c(%ebp)
 804f25b:	89 f8                	mov    %edi,%eax
 804f25d:	f6 85 64 ff ff ff 10 	testb  $0x10,-0x9c(%ebp)
 804f264:	88 85 71 ff ff ff    	mov    %al,-0x8f(%ebp)
 804f26a:	8b 45 14             	mov    0x14(%ebp),%eax
 804f26d:	89 55 10             	mov    %edx,0x10(%ebp)
 804f270:	0f 84 43 ff ff ff    	je     804f1b9 <_vfiprintf_r+0x649>
 804f276:	8b 08                	mov    (%eax),%ecx
 804f278:	83 c0 04             	add    $0x4,%eax
 804f27b:	89 45 14             	mov    %eax,0x14(%ebp)
 804f27e:	e9 4c ff ff ff       	jmp    804f1cf <_vfiprintf_r+0x65f>
 804f283:	31 db                	xor    %ebx,%ebx
 804f285:	8d 48 d0             	lea    -0x30(%eax),%ecx
 804f288:	8d 04 9b             	lea    (%ebx,%ebx,4),%eax
 804f28b:	83 c2 01             	add    $0x1,%edx
 804f28e:	8d 1c 41             	lea    (%ecx,%eax,2),%ebx
 804f291:	0f be 42 ff          	movsbl -0x1(%edx),%eax
 804f295:	8d 48 d0             	lea    -0x30(%eax),%ecx
 804f298:	83 f9 09             	cmp    $0x9,%ecx
 804f29b:	76 eb                	jbe    804f288 <_vfiprintf_r+0x718>
 804f29d:	89 9d 54 ff ff ff    	mov    %ebx,-0xac(%ebp)
 804f2a3:	e9 08 fa ff ff       	jmp    804ecb0 <_vfiprintf_r+0x140>
 804f2a8:	83 8d 64 ff ff ff 10 	orl    $0x10,-0x9c(%ebp)
 804f2af:	f6 85 64 ff ff ff 10 	testb  $0x10,-0x9c(%ebp)
 804f2b6:	89 55 10             	mov    %edx,0x10(%ebp)
 804f2b9:	8b 45 14             	mov    0x14(%ebp),%eax
 804f2bc:	0f 84 0d fe ff ff    	je     804f0cf <_vfiprintf_r+0x55f>
 804f2c2:	8b 08                	mov    (%eax),%ecx
 804f2c4:	83 c0 04             	add    $0x4,%eax
 804f2c7:	31 d2                	xor    %edx,%edx
 804f2c9:	89 45 14             	mov    %eax,0x14(%ebp)
 804f2cc:	e9 07 fb ff ff       	jmp    804edd8 <_vfiprintf_r+0x268>
 804f2d1:	89 f9                	mov    %edi,%ecx
 804f2d3:	85 c0                	test   %eax,%eax
 804f2d5:	89 55 10             	mov    %edx,0x10(%ebp)
 804f2d8:	88 8d 71 ff ff ff    	mov    %cl,-0x8f(%ebp)
 804f2de:	0f 84 95 01 00 00    	je     804f479 <_vfiprintf_r+0x909>
 804f2e4:	88 45 80             	mov    %al,-0x80(%ebp)
 804f2e7:	8d 45 80             	lea    -0x80(%ebp),%eax
 804f2ea:	c6 85 71 ff ff ff 00 	movb   $0x0,-0x8f(%ebp)
 804f2f1:	c7 85 60 ff ff ff 01 	movl   $0x1,-0xa0(%ebp)
 804f2f8:	00 00 00 
 804f2fb:	c7 85 58 ff ff ff 01 	movl   $0x1,-0xa8(%ebp)
 804f302:	00 00 00 
 804f305:	89 85 44 ff ff ff    	mov    %eax,-0xbc(%ebp)
 804f30b:	e9 7f fe ff ff       	jmp    804f18f <_vfiprintf_r+0x61f>
 804f310:	8b 45 14             	mov    0x14(%ebp),%eax
 804f313:	8b bd 50 ff ff ff    	mov    -0xb0(%ebp),%edi
 804f319:	8b 00                	mov    (%eax),%eax
 804f31b:	89 38                	mov    %edi,(%eax)
 804f31d:	8b 45 14             	mov    0x14(%ebp),%eax
 804f320:	83 c0 04             	add    $0x4,%eax
 804f323:	89 45 14             	mov    %eax,0x14(%ebp)
 804f326:	e9 e4 f8 ff ff       	jmp    804ec0f <_vfiprintf_r+0x9f>
 804f32b:	90                   	nop
 804f32c:	8d 74 26 00          	lea    0x0(%esi,%eiz,1),%esi
 804f330:	8b 55 0c             	mov    0xc(%ebp),%edx
 804f333:	8d 8d 74 ff ff ff    	lea    -0x8c(%ebp),%ecx
 804f339:	8b 45 08             	mov    0x8(%ebp),%eax
 804f33c:	e8 1f f7 ff ff       	call   804ea60 <__sprint_r.part.0>
 804f341:	85 c0                	test   %eax,%eax
 804f343:	0f 85 4f 01 00 00    	jne    804f498 <_vfiprintf_r+0x928>
 804f349:	8b bd 78 ff ff ff    	mov    -0x88(%ebp),%edi
 804f34f:	8d 75 a8             	lea    -0x58(%ebp),%esi
 804f352:	8b 95 7c ff ff ff    	mov    -0x84(%ebp),%edx
 804f358:	8d 47 01             	lea    0x1(%edi),%eax
 804f35b:	e9 88 fb ff ff       	jmp    804eee8 <_vfiprintf_r+0x378>
 804f360:	8b 85 78 ff ff ff    	mov    -0x88(%ebp),%eax
 804f366:	8b 95 7c ff ff ff    	mov    -0x84(%ebp),%edx
 804f36c:	8d 48 01             	lea    0x1(%eax),%ecx
 804f36f:	80 bd 71 ff ff ff 00 	cmpb   $0x0,-0x8f(%ebp)
 804f376:	74 2f                	je     804f3a7 <_vfiprintf_r+0x837>
 804f378:	83 c2 01             	add    $0x1,%edx
 804f37b:	83 f9 07             	cmp    $0x7,%ecx
 804f37e:	8d 85 71 ff ff ff    	lea    -0x8f(%ebp),%eax
 804f384:	89 06                	mov    %eax,(%esi)
 804f386:	c7 46 04 01 00 00 00 	movl   $0x1,0x4(%esi)
 804f38d:	89 95 7c ff ff ff    	mov    %edx,-0x84(%ebp)
 804f393:	89 8d 78 ff ff ff    	mov    %ecx,-0x88(%ebp)
 804f399:	0f 8f 41 04 00 00    	jg     804f7e0 <_vfiprintf_r+0xc70>
 804f39f:	89 c8                	mov    %ecx,%eax
 804f3a1:	83 c6 08             	add    $0x8,%esi
 804f3a4:	83 c1 01             	add    $0x1,%ecx
 804f3a7:	8b 9d 4c ff ff ff    	mov    -0xb4(%ebp),%ebx
 804f3ad:	85 db                	test   %ebx,%ebx
 804f3af:	74 2f                	je     804f3e0 <_vfiprintf_r+0x870>
 804f3b1:	83 c2 02             	add    $0x2,%edx
 804f3b4:	83 f9 07             	cmp    $0x7,%ecx
 804f3b7:	8d 85 72 ff ff ff    	lea    -0x8e(%ebp),%eax
 804f3bd:	89 06                	mov    %eax,(%esi)
 804f3bf:	c7 46 04 02 00 00 00 	movl   $0x2,0x4(%esi)
 804f3c6:	89 95 7c ff ff ff    	mov    %edx,-0x84(%ebp)
 804f3cc:	89 8d 78 ff ff ff    	mov    %ecx,-0x88(%ebp)
 804f3d2:	0f 8f 20 04 00 00    	jg     804f7f8 <_vfiprintf_r+0xc88>
 804f3d8:	89 c8                	mov    %ecx,%eax
 804f3da:	83 c6 08             	add    $0x8,%esi
 804f3dd:	83 c1 01             	add    $0x1,%ecx
 804f3e0:	81 bd 48 ff ff ff 80 	cmpl   $0x80,-0xb8(%ebp)
 804f3e7:	00 00 00 
 804f3ea:	0f 84 28 03 00 00    	je     804f718 <_vfiprintf_r+0xba8>
 804f3f0:	8b 9d 5c ff ff ff    	mov    -0xa4(%ebp),%ebx
 804f3f6:	2b 9d 58 ff ff ff    	sub    -0xa8(%ebp),%ebx
 804f3fc:	85 db                	test   %ebx,%ebx
 804f3fe:	7f 13                	jg     804f413 <_vfiprintf_r+0x8a3>
 804f400:	e9 db 00 00 00       	jmp    804f4e0 <_vfiprintf_r+0x970>
 804f405:	8d 76 00             	lea    0x0(%esi),%esi
 804f408:	8d 48 02             	lea    0x2(%eax),%ecx
 804f40b:	83 c6 08             	add    $0x8,%esi
 804f40e:	89 f8                	mov    %edi,%eax
 804f410:	83 eb 10             	sub    $0x10,%ebx
 804f413:	83 fb 10             	cmp    $0x10,%ebx
 804f416:	c7 06 6c 0a 05 08    	movl   $0x8050a6c,(%esi)
 804f41c:	0f 8e 4e 02 00 00    	jle    804f670 <_vfiprintf_r+0xb00>
 804f422:	8d 78 01             	lea    0x1(%eax),%edi
 804f425:	83 c2 10             	add    $0x10,%edx
 804f428:	83 ff 07             	cmp    $0x7,%edi
 804f42b:	c7 46 04 10 00 00 00 	movl   $0x10,0x4(%esi)
 804f432:	89 95 7c ff ff ff    	mov    %edx,-0x84(%ebp)
 804f438:	89 bd 78 ff ff ff    	mov    %edi,-0x88(%ebp)
 804f43e:	7e c8                	jle    804f408 <_vfiprintf_r+0x898>
 804f440:	85 d2                	test   %edx,%edx
 804f442:	75 0c                	jne    804f450 <_vfiprintf_r+0x8e0>
 804f444:	b9 01 00 00 00       	mov    $0x1,%ecx
 804f449:	31 c0                	xor    %eax,%eax
 804f44b:	8d 75 a8             	lea    -0x58(%ebp),%esi
 804f44e:	eb c0                	jmp    804f410 <_vfiprintf_r+0x8a0>
 804f450:	8b 55 0c             	mov    0xc(%ebp),%edx
 804f453:	8d 8d 74 ff ff ff    	lea    -0x8c(%ebp),%ecx
 804f459:	8b 45 08             	mov    0x8(%ebp),%eax
 804f45c:	e8 ff f5 ff ff       	call   804ea60 <__sprint_r.part.0>
 804f461:	85 c0                	test   %eax,%eax
 804f463:	75 33                	jne    804f498 <_vfiprintf_r+0x928>
 804f465:	8b 85 78 ff ff ff    	mov    -0x88(%ebp),%eax
 804f46b:	8d 75 a8             	lea    -0x58(%ebp),%esi
 804f46e:	8b 95 7c ff ff ff    	mov    -0x84(%ebp),%edx
 804f474:	8d 48 01             	lea    0x1(%eax),%ecx
 804f477:	eb 97                	jmp    804f410 <_vfiprintf_r+0x8a0>
 804f479:	8b 85 7c ff ff ff    	mov    -0x84(%ebp),%eax
 804f47f:	85 c0                	test   %eax,%eax
 804f481:	74 15                	je     804f498 <_vfiprintf_r+0x928>
 804f483:	8b 55 0c             	mov    0xc(%ebp),%edx
 804f486:	8d 8d 74 ff ff ff    	lea    -0x8c(%ebp),%ecx
 804f48c:	8b 45 08             	mov    0x8(%ebp),%eax
 804f48f:	e8 cc f5 ff ff       	call   804ea60 <__sprint_r.part.0>
 804f494:	8d 74 26 00          	lea    0x0(%esi,%eiz,1),%esi
 804f498:	8b 45 0c             	mov    0xc(%ebp),%eax
 804f49b:	f6 40 0c 40          	testb  $0x40,0xc(%eax)
 804f49f:	0f 85 a3 f8 ff ff    	jne    804ed48 <_vfiprintf_r+0x1d8>
 804f4a5:	8b 85 50 ff ff ff    	mov    -0xb0(%ebp),%eax
 804f4ab:	81 c4 cc 00 00 00    	add    $0xcc,%esp
 804f4b1:	5b                   	pop    %ebx
 804f4b2:	5e                   	pop    %esi
 804f4b3:	5f                   	pop    %edi
 804f4b4:	5d                   	pop    %ebp
 804f4b5:	c3                   	ret    
 804f4b6:	8b 55 0c             	mov    0xc(%ebp),%edx
 804f4b9:	8d 8d 74 ff ff ff    	lea    -0x8c(%ebp),%ecx
 804f4bf:	8b 45 08             	mov    0x8(%ebp),%eax
 804f4c2:	e8 99 f5 ff ff       	call   804ea60 <__sprint_r.part.0>
 804f4c7:	85 c0                	test   %eax,%eax
 804f4c9:	75 cd                	jne    804f498 <_vfiprintf_r+0x928>
 804f4cb:	8b 85 78 ff ff ff    	mov    -0x88(%ebp),%eax
 804f4d1:	8d 75 a8             	lea    -0x58(%ebp),%esi
 804f4d4:	8b 95 7c ff ff ff    	mov    -0x84(%ebp),%edx
 804f4da:	8d 48 01             	lea    0x1(%eax),%ecx
 804f4dd:	8d 76 00             	lea    0x0(%esi),%esi
 804f4e0:	8b 85 44 ff ff ff    	mov    -0xbc(%ebp),%eax
 804f4e6:	89 8d 78 ff ff ff    	mov    %ecx,-0x88(%ebp)
 804f4ec:	89 06                	mov    %eax,(%esi)
 804f4ee:	8b 85 58 ff ff ff    	mov    -0xa8(%ebp),%eax
 804f4f4:	01 c2                	add    %eax,%edx
 804f4f6:	83 f9 07             	cmp    $0x7,%ecx
 804f4f9:	89 46 04             	mov    %eax,0x4(%esi)
 804f4fc:	89 95 7c ff ff ff    	mov    %edx,-0x84(%ebp)
 804f502:	0f 8e ef 01 00 00    	jle    804f6f7 <_vfiprintf_r+0xb87>
 804f508:	85 d2                	test   %edx,%edx
 804f50a:	0f 85 81 03 00 00    	jne    804f891 <_vfiprintf_r+0xd21>
 804f510:	c7 85 78 ff ff ff 00 	movl   $0x0,-0x88(%ebp)
 804f517:	00 00 00 
 804f51a:	8d 75 a8             	lea    -0x58(%ebp),%esi
 804f51d:	f6 85 64 ff ff ff 04 	testb  $0x4,-0x9c(%ebp)
 804f524:	0f 84 ce 00 00 00    	je     804f5f8 <_vfiprintf_r+0xa88>
 804f52a:	8b 9d 54 ff ff ff    	mov    -0xac(%ebp),%ebx
 804f530:	2b 9d 60 ff ff ff    	sub    -0xa0(%ebp),%ebx
 804f536:	85 db                	test   %ebx,%ebx
 804f538:	0f 8e ba 00 00 00    	jle    804f5f8 <_vfiprintf_r+0xa88>
 804f53e:	8b 8d 78 ff ff ff    	mov    -0x88(%ebp),%ecx
 804f544:	83 fb 10             	cmp    $0x10,%ebx
 804f547:	8d 79 01             	lea    0x1(%ecx),%edi
 804f54a:	7f 14                	jg     804f560 <_vfiprintf_r+0x9f0>
 804f54c:	eb 50                	jmp    804f59e <_vfiprintf_r+0xa2e>
 804f54e:	66 90                	xchg   %ax,%ax
 804f550:	8d 79 02             	lea    0x2(%ecx),%edi
 804f553:	83 c6 08             	add    $0x8,%esi
 804f556:	89 c1                	mov    %eax,%ecx
 804f558:	83 eb 10             	sub    $0x10,%ebx
 804f55b:	83 fb 10             	cmp    $0x10,%ebx
 804f55e:	7e 3e                	jle    804f59e <_vfiprintf_r+0xa2e>
 804f560:	8d 41 01             	lea    0x1(%ecx),%eax
 804f563:	83 c2 10             	add    $0x10,%edx
 804f566:	83 f8 07             	cmp    $0x7,%eax
 804f569:	c7 06 7c 0a 05 08    	movl   $0x8050a7c,(%esi)
 804f56f:	c7 46 04 10 00 00 00 	movl   $0x10,0x4(%esi)
 804f576:	89 95 7c ff ff ff    	mov    %edx,-0x84(%ebp)
 804f57c:	89 85 78 ff ff ff    	mov    %eax,-0x88(%ebp)
 804f582:	7e cc                	jle    804f550 <_vfiprintf_r+0x9e0>
 804f584:	85 d2                	test   %edx,%edx
 804f586:	0f 85 b4 00 00 00    	jne    804f640 <_vfiprintf_r+0xad0>
 804f58c:	83 eb 10             	sub    $0x10,%ebx
 804f58f:	31 c9                	xor    %ecx,%ecx
 804f591:	83 fb 10             	cmp    $0x10,%ebx
 804f594:	bf 01 00 00 00       	mov    $0x1,%edi
 804f599:	8d 75 a8             	lea    -0x58(%ebp),%esi
 804f59c:	7f c2                	jg     804f560 <_vfiprintf_r+0x9f0>
 804f59e:	01 da                	add    %ebx,%edx
 804f5a0:	83 ff 07             	cmp    $0x7,%edi
 804f5a3:	c7 06 7c 0a 05 08    	movl   $0x8050a7c,(%esi)
 804f5a9:	89 5e 04             	mov    %ebx,0x4(%esi)
 804f5ac:	89 95 7c ff ff ff    	mov    %edx,-0x84(%ebp)
 804f5b2:	89 bd 78 ff ff ff    	mov    %edi,-0x88(%ebp)
 804f5b8:	7e 3e                	jle    804f5f8 <_vfiprintf_r+0xa88>
 804f5ba:	85 d2                	test   %edx,%edx
 804f5bc:	75 19                	jne    804f5d7 <_vfiprintf_r+0xa67>
 804f5be:	8b 85 54 ff ff ff    	mov    -0xac(%ebp),%eax
 804f5c4:	8b bd 60 ff ff ff    	mov    -0xa0(%ebp),%edi
 804f5ca:	39 c7                	cmp    %eax,%edi
 804f5cc:	0f 4d c7             	cmovge %edi,%eax
 804f5cf:	01 85 50 ff ff ff    	add    %eax,-0xb0(%ebp)
 804f5d5:	eb 55                	jmp    804f62c <_vfiprintf_r+0xabc>
 804f5d7:	8b 55 0c             	mov    0xc(%ebp),%edx
 804f5da:	8d 8d 74 ff ff ff    	lea    -0x8c(%ebp),%ecx
 804f5e0:	8b 45 08             	mov    0x8(%ebp),%eax
 804f5e3:	e8 78 f4 ff ff       	call   804ea60 <__sprint_r.part.0>
 804f5e8:	85 c0                	test   %eax,%eax
 804f5ea:	0f 85 a8 fe ff ff    	jne    804f498 <_vfiprintf_r+0x928>
 804f5f0:	8b 95 7c ff ff ff    	mov    -0x84(%ebp),%edx
 804f5f6:	66 90                	xchg   %ax,%ax
 804f5f8:	8b 85 54 ff ff ff    	mov    -0xac(%ebp),%eax
 804f5fe:	8b bd 60 ff ff ff    	mov    -0xa0(%ebp),%edi
 804f604:	39 c7                	cmp    %eax,%edi
 804f606:	0f 4d c7             	cmovge %edi,%eax
 804f609:	01 85 50 ff ff ff    	add    %eax,-0xb0(%ebp)
 804f60f:	85 d2                	test   %edx,%edx
 804f611:	74 19                	je     804f62c <_vfiprintf_r+0xabc>
 804f613:	8b 55 0c             	mov    0xc(%ebp),%edx
 804f616:	8d 8d 74 ff ff ff    	lea    -0x8c(%ebp),%ecx
 804f61c:	8b 45 08             	mov    0x8(%ebp),%eax
 804f61f:	e8 3c f4 ff ff       	call   804ea60 <__sprint_r.part.0>
 804f624:	85 c0                	test   %eax,%eax
 804f626:	0f 85 6c fe ff ff    	jne    804f498 <_vfiprintf_r+0x928>
 804f62c:	c7 85 78 ff ff ff 00 	movl   $0x0,-0x88(%ebp)
 804f633:	00 00 00 
 804f636:	8d 75 a8             	lea    -0x58(%ebp),%esi
 804f639:	e9 d1 f5 ff ff       	jmp    804ec0f <_vfiprintf_r+0x9f>
 804f63e:	66 90                	xchg   %ax,%ax
 804f640:	8b 55 0c             	mov    0xc(%ebp),%edx
 804f643:	8d 8d 74 ff ff ff    	lea    -0x8c(%ebp),%ecx
 804f649:	8b 45 08             	mov    0x8(%ebp),%eax
 804f64c:	e8 0f f4 ff ff       	call   804ea60 <__sprint_r.part.0>
 804f651:	85 c0                	test   %eax,%eax
 804f653:	0f 85 3f fe ff ff    	jne    804f498 <_vfiprintf_r+0x928>
 804f659:	8b 8d 78 ff ff ff    	mov    -0x88(%ebp),%ecx
 804f65f:	8d 75 a8             	lea    -0x58(%ebp),%esi
 804f662:	8b 95 7c ff ff ff    	mov    -0x84(%ebp),%edx
 804f668:	8d 79 01             	lea    0x1(%ecx),%edi
 804f66b:	e9 e8 fe ff ff       	jmp    804f558 <_vfiprintf_r+0x9e8>
 804f670:	01 da                	add    %ebx,%edx
 804f672:	83 f9 07             	cmp    $0x7,%ecx
 804f675:	89 5e 04             	mov    %ebx,0x4(%esi)
 804f678:	89 95 7c ff ff ff    	mov    %edx,-0x84(%ebp)
 804f67e:	89 8d 78 ff ff ff    	mov    %ecx,-0x88(%ebp)
 804f684:	7f 42                	jg     804f6c8 <_vfiprintf_r+0xb58>
 804f686:	83 c6 08             	add    $0x8,%esi
 804f689:	83 c1 01             	add    $0x1,%ecx
 804f68c:	e9 4f fe ff ff       	jmp    804f4e0 <_vfiprintf_r+0x970>
 804f691:	8d b4 26 00 00 00 00 	lea    0x0(%esi,%eiz,1),%esi
 804f698:	84 d2                	test   %dl,%dl
 804f69a:	75 64                	jne    804f700 <_vfiprintf_r+0xb90>
 804f69c:	f6 85 64 ff ff ff 01 	testb  $0x1,-0x9c(%ebp)
 804f6a3:	74 5b                	je     804f700 <_vfiprintf_r+0xb90>
 804f6a5:	8b 85 3c ff ff ff    	mov    -0xc4(%ebp),%eax
 804f6ab:	c6 45 a7 30          	movb   $0x30,-0x59(%ebp)
 804f6af:	89 85 58 ff ff ff    	mov    %eax,-0xa8(%ebp)
 804f6b5:	8d 45 a7             	lea    -0x59(%ebp),%eax
 804f6b8:	89 85 44 ff ff ff    	mov    %eax,-0xbc(%ebp)
 804f6be:	e9 8d f7 ff ff       	jmp    804ee50 <_vfiprintf_r+0x2e0>
 804f6c3:	90                   	nop
 804f6c4:	8d 74 26 00          	lea    0x0(%esi,%eiz,1),%esi
 804f6c8:	85 d2                	test   %edx,%edx
 804f6ca:	0f 85 e6 fd ff ff    	jne    804f4b6 <_vfiprintf_r+0x946>
 804f6d0:	8b 85 44 ff ff ff    	mov    -0xbc(%ebp),%eax
 804f6d6:	8d 75 a8             	lea    -0x58(%ebp),%esi
 804f6d9:	c7 85 78 ff ff ff 01 	movl   $0x1,-0x88(%ebp)
 804f6e0:	00 00 00 
 804f6e3:	89 45 a8             	mov    %eax,-0x58(%ebp)
 804f6e6:	8b 85 58 ff ff ff    	mov    -0xa8(%ebp),%eax
 804f6ec:	89 45 ac             	mov    %eax,-0x54(%ebp)
 804f6ef:	89 c2                	mov    %eax,%edx
 804f6f1:	89 85 7c ff ff ff    	mov    %eax,-0x84(%ebp)
 804f6f7:	83 c6 08             	add    $0x8,%esi
 804f6fa:	e9 1e fe ff ff       	jmp    804f51d <_vfiprintf_r+0x9ad>
 804f6ff:	90                   	nop
 804f700:	8d 45 a8             	lea    -0x58(%ebp),%eax
 804f703:	c7 85 58 ff ff ff 00 	movl   $0x0,-0xa8(%ebp)
 804f70a:	00 00 00 
 804f70d:	89 85 44 ff ff ff    	mov    %eax,-0xbc(%ebp)
 804f713:	e9 38 f7 ff ff       	jmp    804ee50 <_vfiprintf_r+0x2e0>
 804f718:	8b bd 54 ff ff ff    	mov    -0xac(%ebp),%edi
 804f71e:	2b bd 60 ff ff ff    	sub    -0xa0(%ebp),%edi
 804f724:	85 ff                	test   %edi,%edi
 804f726:	0f 8e c4 fc ff ff    	jle    804f3f0 <_vfiprintf_r+0x880>
 804f72c:	83 ff 10             	cmp    $0x10,%edi
 804f72f:	7f 17                	jg     804f748 <_vfiprintf_r+0xbd8>
 804f731:	e9 88 03 00 00       	jmp    804fabe <_vfiprintf_r+0xf4e>
 804f736:	66 90                	xchg   %ax,%ax
 804f738:	8d 58 02             	lea    0x2(%eax),%ebx
 804f73b:	83 c6 08             	add    $0x8,%esi
 804f73e:	89 c8                	mov    %ecx,%eax
 804f740:	83 ef 10             	sub    $0x10,%edi
 804f743:	83 ff 10             	cmp    $0x10,%edi
 804f746:	7e 3a                	jle    804f782 <_vfiprintf_r+0xc12>
 804f748:	8d 48 01             	lea    0x1(%eax),%ecx
 804f74b:	83 c2 10             	add    $0x10,%edx
 804f74e:	83 f9 07             	cmp    $0x7,%ecx
 804f751:	c7 06 6c 0a 05 08    	movl   $0x8050a6c,(%esi)
 804f757:	c7 46 04 10 00 00 00 	movl   $0x10,0x4(%esi)
 804f75e:	89 95 7c ff ff ff    	mov    %edx,-0x84(%ebp)
 804f764:	89 8d 78 ff ff ff    	mov    %ecx,-0x88(%ebp)
 804f76a:	7e cc                	jle    804f738 <_vfiprintf_r+0xbc8>
 804f76c:	85 d2                	test   %edx,%edx
 804f76e:	75 40                	jne    804f7b0 <_vfiprintf_r+0xc40>
 804f770:	83 ef 10             	sub    $0x10,%edi
 804f773:	31 c0                	xor    %eax,%eax
 804f775:	83 ff 10             	cmp    $0x10,%edi
 804f778:	bb 01 00 00 00       	mov    $0x1,%ebx
 804f77d:	8d 75 a8             	lea    -0x58(%ebp),%esi
 804f780:	7f c6                	jg     804f748 <_vfiprintf_r+0xbd8>
 804f782:	01 fa                	add    %edi,%edx
 804f784:	83 fb 07             	cmp    $0x7,%ebx
 804f787:	c7 06 6c 0a 05 08    	movl   $0x8050a6c,(%esi)
 804f78d:	89 7e 04             	mov    %edi,0x4(%esi)
 804f790:	89 95 7c ff ff ff    	mov    %edx,-0x84(%ebp)
 804f796:	89 9d 78 ff ff ff    	mov    %ebx,-0x88(%ebp)
 804f79c:	0f 8f 97 01 00 00    	jg     804f939 <_vfiprintf_r+0xdc9>
 804f7a2:	83 c6 08             	add    $0x8,%esi
 804f7a5:	89 d8                	mov    %ebx,%eax
 804f7a7:	8d 4b 01             	lea    0x1(%ebx),%ecx
 804f7aa:	e9 41 fc ff ff       	jmp    804f3f0 <_vfiprintf_r+0x880>
 804f7af:	90                   	nop
 804f7b0:	8b 55 0c             	mov    0xc(%ebp),%edx
 804f7b3:	8d 8d 74 ff ff ff    	lea    -0x8c(%ebp),%ecx
 804f7b9:	8b 45 08             	mov    0x8(%ebp),%eax
 804f7bc:	e8 9f f2 ff ff       	call   804ea60 <__sprint_r.part.0>
 804f7c1:	85 c0                	test   %eax,%eax
 804f7c3:	0f 85 cf fc ff ff    	jne    804f498 <_vfiprintf_r+0x928>
 804f7c9:	8b 85 78 ff ff ff    	mov    -0x88(%ebp),%eax
 804f7cf:	8d 75 a8             	lea    -0x58(%ebp),%esi
 804f7d2:	8b 95 7c ff ff ff    	mov    -0x84(%ebp),%edx
 804f7d8:	8d 58 01             	lea    0x1(%eax),%ebx
 804f7db:	e9 60 ff ff ff       	jmp    804f740 <_vfiprintf_r+0xbd0>
 804f7e0:	85 d2                	test   %edx,%edx
 804f7e2:	0f 85 f1 00 00 00    	jne    804f8d9 <_vfiprintf_r+0xd69>
 804f7e8:	b9 01 00 00 00       	mov    $0x1,%ecx
 804f7ed:	31 c0                	xor    %eax,%eax
 804f7ef:	8d 75 a8             	lea    -0x58(%ebp),%esi
 804f7f2:	e9 b0 fb ff ff       	jmp    804f3a7 <_vfiprintf_r+0x837>
 804f7f7:	90                   	nop
 804f7f8:	85 d2                	test   %edx,%edx
 804f7fa:	0f 85 09 01 00 00    	jne    804f909 <_vfiprintf_r+0xd99>
 804f800:	b9 01 00 00 00       	mov    $0x1,%ecx
 804f805:	31 c0                	xor    %eax,%eax
 804f807:	8d 75 a8             	lea    -0x58(%ebp),%esi
 804f80a:	e9 d1 fb ff ff       	jmp    804f3e0 <_vfiprintf_r+0x870>
 804f80f:	90                   	nop
 804f810:	89 c2                	mov    %eax,%edx
 804f812:	8d b6 00 00 00 00    	lea    0x0(%esi),%esi
 804f818:	89 c8                	mov    %ecx,%eax
 804f81a:	83 ea 01             	sub    $0x1,%edx
 804f81d:	83 e0 07             	and    $0x7,%eax
 804f820:	c1 e9 03             	shr    $0x3,%ecx
 804f823:	83 c0 30             	add    $0x30,%eax
 804f826:	85 c9                	test   %ecx,%ecx
 804f828:	88 02                	mov    %al,(%edx)
 804f82a:	75 ec                	jne    804f818 <_vfiprintf_r+0xca8>
 804f82c:	f6 85 64 ff ff ff 01 	testb  $0x1,-0x9c(%ebp)
 804f833:	89 95 44 ff ff ff    	mov    %edx,-0xbc(%ebp)
 804f839:	0f 85 5b 01 00 00    	jne    804f99a <_vfiprintf_r+0xe2a>
 804f83f:	8d 45 a8             	lea    -0x58(%ebp),%eax
 804f842:	29 d0                	sub    %edx,%eax
 804f844:	89 85 58 ff ff ff    	mov    %eax,-0xa8(%ebp)
 804f84a:	e9 01 f6 ff ff       	jmp    804ee50 <_vfiprintf_r+0x2e0>
 804f84f:	90                   	nop
 804f850:	85 d2                	test   %edx,%edx
 804f852:	0f 85 7d 01 00 00    	jne    804f9d5 <_vfiprintf_r+0xe65>
 804f858:	31 c0                	xor    %eax,%eax
 804f85a:	b9 01 00 00 00       	mov    $0x1,%ecx
 804f85f:	8d 75 a8             	lea    -0x58(%ebp),%esi
 804f862:	e9 08 fb ff ff       	jmp    804f36f <_vfiprintf_r+0x7ff>
 804f867:	90                   	nop
 804f868:	83 f9 09             	cmp    $0x9,%ecx
 804f86b:	0f 87 df 00 00 00    	ja     804f950 <_vfiprintf_r+0xde0>
 804f871:	8b 85 3c ff ff ff    	mov    -0xc4(%ebp),%eax
 804f877:	83 c1 30             	add    $0x30,%ecx
 804f87a:	88 4d a7             	mov    %cl,-0x59(%ebp)
 804f87d:	89 85 58 ff ff ff    	mov    %eax,-0xa8(%ebp)
 804f883:	8d 45 a7             	lea    -0x59(%ebp),%eax
 804f886:	89 85 44 ff ff ff    	mov    %eax,-0xbc(%ebp)
 804f88c:	e9 bf f5 ff ff       	jmp    804ee50 <_vfiprintf_r+0x2e0>
 804f891:	8b 55 0c             	mov    0xc(%ebp),%edx
 804f894:	8d 8d 74 ff ff ff    	lea    -0x8c(%ebp),%ecx
 804f89a:	8b 45 08             	mov    0x8(%ebp),%eax
 804f89d:	e8 be f1 ff ff       	call   804ea60 <__sprint_r.part.0>
 804f8a2:	85 c0                	test   %eax,%eax
 804f8a4:	0f 85 ee fb ff ff    	jne    804f498 <_vfiprintf_r+0x928>
 804f8aa:	8b 95 7c ff ff ff    	mov    -0x84(%ebp),%edx
 804f8b0:	8d 75 a8             	lea    -0x58(%ebp),%esi
 804f8b3:	e9 65 fc ff ff       	jmp    804f51d <_vfiprintf_r+0x9ad>
 804f8b8:	8b 55 0c             	mov    0xc(%ebp),%edx
 804f8bb:	8d 8d 74 ff ff ff    	lea    -0x8c(%ebp),%ecx
 804f8c1:	8b 45 08             	mov    0x8(%ebp),%eax
 804f8c4:	e8 97 f1 ff ff       	call   804ea60 <__sprint_r.part.0>
 804f8c9:	85 c0                	test   %eax,%eax
 804f8cb:	0f 85 c7 fb ff ff    	jne    804f498 <_vfiprintf_r+0x928>
 804f8d1:	8d 75 a8             	lea    -0x58(%ebp),%esi
 804f8d4:	e9 98 f3 ff ff       	jmp    804ec71 <_vfiprintf_r+0x101>
 804f8d9:	8b 55 0c             	mov    0xc(%ebp),%edx
 804f8dc:	8d 8d 74 ff ff ff    	lea    -0x8c(%ebp),%ecx
 804f8e2:	8b 45 08             	mov    0x8(%ebp),%eax
 804f8e5:	e8 76 f1 ff ff       	call   804ea60 <__sprint_r.part.0>
 804f8ea:	85 c0                	test   %eax,%eax
 804f8ec:	0f 85 a6 fb ff ff    	jne    804f498 <_vfiprintf_r+0x928>
 804f8f2:	8b 85 78 ff ff ff    	mov    -0x88(%ebp),%eax
 804f8f8:	8d 75 a8             	lea    -0x58(%ebp),%esi
 804f8fb:	8b 95 7c ff ff ff    	mov    -0x84(%ebp),%edx
 804f901:	8d 48 01             	lea    0x1(%eax),%ecx
 804f904:	e9 9e fa ff ff       	jmp    804f3a7 <_vfiprintf_r+0x837>
 804f909:	8b 55 0c             	mov    0xc(%ebp),%edx
 804f90c:	8d 8d 74 ff ff ff    	lea    -0x8c(%ebp),%ecx
 804f912:	8b 45 08             	mov    0x8(%ebp),%eax
 804f915:	e8 46 f1 ff ff       	call   804ea60 <__sprint_r.part.0>
 804f91a:	85 c0                	test   %eax,%eax
 804f91c:	0f 85 76 fb ff ff    	jne    804f498 <_vfiprintf_r+0x928>
 804f922:	8b 85 78 ff ff ff    	mov    -0x88(%ebp),%eax
 804f928:	8d 75 a8             	lea    -0x58(%ebp),%esi
 804f92b:	8b 95 7c ff ff ff    	mov    -0x84(%ebp),%edx
 804f931:	8d 48 01             	lea    0x1(%eax),%ecx
 804f934:	e9 a7 fa ff ff       	jmp    804f3e0 <_vfiprintf_r+0x870>
 804f939:	85 d2                	test   %edx,%edx
 804f93b:	0f 85 f1 00 00 00    	jne    804fa32 <_vfiprintf_r+0xec2>
 804f941:	b9 01 00 00 00       	mov    $0x1,%ecx
 804f946:	31 c0                	xor    %eax,%eax
 804f948:	8d 75 a8             	lea    -0x58(%ebp),%esi
 804f94b:	e9 a0 fa ff ff       	jmp    804f3f0 <_vfiprintf_r+0x880>
 804f950:	8d 45 a8             	lea    -0x58(%ebp),%eax
 804f953:	bb cd cc cc cc       	mov    $0xcccccccd,%ebx
 804f958:	89 b5 60 ff ff ff    	mov    %esi,-0xa0(%ebp)
 804f95e:	89 c6                	mov    %eax,%esi
 804f960:	89 c8                	mov    %ecx,%eax
 804f962:	83 ee 01             	sub    $0x1,%esi
 804f965:	f7 e3                	mul    %ebx
 804f967:	c1 ea 03             	shr    $0x3,%edx
 804f96a:	8d 04 92             	lea    (%edx,%edx,4),%eax
 804f96d:	01 c0                	add    %eax,%eax
 804f96f:	29 c1                	sub    %eax,%ecx
 804f971:	83 c1 30             	add    $0x30,%ecx
 804f974:	85 d2                	test   %edx,%edx
 804f976:	88 0e                	mov    %cl,(%esi)
 804f978:	89 d1                	mov    %edx,%ecx
 804f97a:	75 e4                	jne    804f960 <_vfiprintf_r+0xdf0>
 804f97c:	89 f1                	mov    %esi,%ecx
 804f97e:	8d 45 a8             	lea    -0x58(%ebp),%eax
 804f981:	29 c8                	sub    %ecx,%eax
 804f983:	89 b5 44 ff ff ff    	mov    %esi,-0xbc(%ebp)
 804f989:	8b b5 60 ff ff ff    	mov    -0xa0(%ebp),%esi
 804f98f:	89 85 58 ff ff ff    	mov    %eax,-0xa8(%ebp)
 804f995:	e9 b6 f4 ff ff       	jmp    804ee50 <_vfiprintf_r+0x2e0>
 804f99a:	3c 30                	cmp    $0x30,%al
 804f99c:	74 0b                	je     804f9a9 <_vfiprintf_r+0xe39>
 804f99e:	83 ad 44 ff ff ff 01 	subl   $0x1,-0xbc(%ebp)
 804f9a5:	c6 42 ff 30          	movb   $0x30,-0x1(%edx)
 804f9a9:	8d 45 a8             	lea    -0x58(%ebp),%eax
 804f9ac:	2b 85 44 ff ff ff    	sub    -0xbc(%ebp),%eax
 804f9b2:	89 85 58 ff ff ff    	mov    %eax,-0xa8(%ebp)
 804f9b8:	e9 93 f4 ff ff       	jmp    804ee50 <_vfiprintf_r+0x2e0>
 804f9bd:	f7 d9                	neg    %ecx
 804f9bf:	bf 2d 00 00 00       	mov    $0x2d,%edi
 804f9c4:	c6 85 71 ff ff ff 2d 	movb   $0x2d,-0x8f(%ebp)
 804f9cb:	ba 01 00 00 00       	mov    $0x1,%edx
 804f9d0:	e9 0c f4 ff ff       	jmp    804ede1 <_vfiprintf_r+0x271>
 804f9d5:	8b 55 0c             	mov    0xc(%ebp),%edx
 804f9d8:	8d 8d 74 ff ff ff    	lea    -0x8c(%ebp),%ecx
 804f9de:	8b 45 08             	mov    0x8(%ebp),%eax
 804f9e1:	e8 7a f0 ff ff       	call   804ea60 <__sprint_r.part.0>
 804f9e6:	85 c0                	test   %eax,%eax
 804f9e8:	0f 85 aa fa ff ff    	jne    804f498 <_vfiprintf_r+0x928>
 804f9ee:	8b 85 78 ff ff ff    	mov    -0x88(%ebp),%eax
 804f9f4:	8d 75 a8             	lea    -0x58(%ebp),%esi
 804f9f7:	8b 95 7c ff ff ff    	mov    -0x84(%ebp),%edx
 804f9fd:	8d 48 01             	lea    0x1(%eax),%ecx
 804fa00:	e9 6a f9 ff ff       	jmp    804f36f <_vfiprintf_r+0x7ff>
 804fa05:	8b 85 44 ff ff ff    	mov    -0xbc(%ebp),%eax
 804fa0b:	89 04 24             	mov    %eax,(%esp)
 804fa0e:	e8 cd 88 ff ff       	call   80482e0 <strlen>
 804fa13:	0f b6 bd 71 ff ff ff 	movzbl -0x8f(%ebp),%edi
 804fa1a:	89 5d 14             	mov    %ebx,0x14(%ebp)
 804fa1d:	c7 85 5c ff ff ff 00 	movl   $0x0,-0xa4(%ebp)
 804fa24:	00 00 00 
 804fa27:	89 85 58 ff ff ff    	mov    %eax,-0xa8(%ebp)
 804fa2d:	e9 1e f4 ff ff       	jmp    804ee50 <_vfiprintf_r+0x2e0>
 804fa32:	8b 55 0c             	mov    0xc(%ebp),%edx
 804fa35:	8d 8d 74 ff ff ff    	lea    -0x8c(%ebp),%ecx
 804fa3b:	8b 45 08             	mov    0x8(%ebp),%eax
 804fa3e:	e8 1d f0 ff ff       	call   804ea60 <__sprint_r.part.0>
 804fa43:	85 c0                	test   %eax,%eax
 804fa45:	0f 85 4d fa ff ff    	jne    804f498 <_vfiprintf_r+0x928>
 804fa4b:	8b 85 78 ff ff ff    	mov    -0x88(%ebp),%eax
 804fa51:	8d 75 a8             	lea    -0x58(%ebp),%esi
 804fa54:	8b 95 7c ff ff ff    	mov    -0x84(%ebp),%edx
 804fa5a:	8d 48 01             	lea    0x1(%eax),%ecx
 804fa5d:	e9 8e f9 ff ff       	jmp    804f3f0 <_vfiprintf_r+0x880>
 804fa62:	8b bd 5c ff ff ff    	mov    -0xa4(%ebp),%edi
 804fa68:	b0 06                	mov    $0x6,%al
 804fa6a:	89 5d 14             	mov    %ebx,0x14(%ebp)
 804fa6d:	83 ff 06             	cmp    $0x6,%edi
 804fa70:	0f 46 c7             	cmovbe %edi,%eax
 804fa73:	8b bd 44 ff ff ff    	mov    -0xbc(%ebp),%edi
 804fa79:	85 c0                	test   %eax,%eax
 804fa7b:	89 85 58 ff ff ff    	mov    %eax,-0xa8(%ebp)
 804fa81:	c7 85 44 ff ff ff af 	movl   $0x80505af,-0xbc(%ebp)
 804fa88:	05 05 08 
 804fa8b:	0f 49 f8             	cmovns %eax,%edi
 804fa8e:	89 bd 60 ff ff ff    	mov    %edi,-0xa0(%ebp)
 804fa94:	e9 f6 f6 ff ff       	jmp    804f18f <_vfiprintf_r+0x61f>
 804fa99:	8b 85 5c ff ff ff    	mov    -0xa4(%ebp),%eax
 804fa9f:	0f b6 bd 71 ff ff ff 	movzbl -0x8f(%ebp),%edi
 804faa6:	89 5d 14             	mov    %ebx,0x14(%ebp)
 804faa9:	c7 85 5c ff ff ff 00 	movl   $0x0,-0xa4(%ebp)
 804fab0:	00 00 00 
 804fab3:	89 85 58 ff ff ff    	mov    %eax,-0xa8(%ebp)
 804fab9:	e9 92 f3 ff ff       	jmp    804ee50 <_vfiprintf_r+0x2e0>
 804fabe:	89 cb                	mov    %ecx,%ebx
 804fac0:	e9 bd fc ff ff       	jmp    804f782 <_vfiprintf_r+0xc12>
 804fac5:	89 da                	mov    %ebx,%edx
 804fac7:	c7 85 5c ff ff ff 00 	movl   $0x0,-0xa4(%ebp)
 804face:	00 00 00 
 804fad1:	e9 da f1 ff ff       	jmp    804ecb0 <_vfiprintf_r+0x140>
 804fad6:	8b 4d 14             	mov    0x14(%ebp),%ecx
 804fad9:	89 da                	mov    %ebx,%edx
 804fadb:	8b 45 14             	mov    0x14(%ebp),%eax
 804fade:	8b 09                	mov    (%ecx),%ecx
 804fae0:	83 c0 04             	add    $0x4,%eax
 804fae3:	89 45 14             	mov    %eax,0x14(%ebp)
 804fae6:	85 c9                	test   %ecx,%ecx
 804fae8:	89 8d 5c ff ff ff    	mov    %ecx,-0xa4(%ebp)
 804faee:	0f 89 f3 f1 ff ff    	jns    804ece7 <_vfiprintf_r+0x177>
 804faf4:	c7 85 5c ff ff ff ff 	movl   $0xffffffff,-0xa4(%ebp)
 804fafb:	ff ff ff 
 804fafe:	89 d3                	mov    %edx,%ebx
 804fb00:	e9 a5 f1 ff ff       	jmp    804ecaa <_vfiprintf_r+0x13a>
 804fb05:	8d 74 26 00          	lea    0x0(%esi,%eiz,1),%esi
 804fb09:	8d bc 27 00 00 00 00 	lea    0x0(%edi,%eiz,1),%edi

0804fb10 <vfiprintf>:
 804fb10:	55                   	push   %ebp
 804fb11:	89 e5                	mov    %esp,%ebp
 804fb13:	83 ec 18             	sub    $0x18,%esp
 804fb16:	e8 a5 cd ff ff       	call   804c8c0 <__getreent>
 804fb1b:	8b 55 10             	mov    0x10(%ebp),%edx
 804fb1e:	89 54 24 0c          	mov    %edx,0xc(%esp)
 804fb22:	8b 55 0c             	mov    0xc(%ebp),%edx
 804fb25:	89 04 24             	mov    %eax,(%esp)
 804fb28:	89 54 24 08          	mov    %edx,0x8(%esp)
 804fb2c:	8b 55 08             	mov    0x8(%ebp),%edx
 804fb2f:	89 54 24 04          	mov    %edx,0x4(%esp)
 804fb33:	e8 38 f0 ff ff       	call   804eb70 <_vfiprintf_r>
 804fb38:	c9                   	leave  
 804fb39:	c3                   	ret    
 804fb3a:	8d b6 00 00 00 00    	lea    0x0(%esi),%esi

0804fb40 <__sbprintf>:
 804fb40:	55                   	push   %ebp
 804fb41:	89 e5                	mov    %esp,%ebp
 804fb43:	57                   	push   %edi
 804fb44:	89 c7                	mov    %eax,%edi
 804fb46:	56                   	push   %esi
 804fb47:	53                   	push   %ebx
 804fb48:	89 d3                	mov    %edx,%ebx
 804fb4a:	81 ec 9c 04 00 00    	sub    $0x49c,%esp
 804fb50:	0f b7 42 0c          	movzwl 0xc(%edx),%eax
 804fb54:	c7 85 88 fb ff ff 00 	movl   $0x400,-0x478(%ebp)
 804fb5b:	04 00 00 
 804fb5e:	c7 85 94 fb ff ff 00 	movl   $0x400,-0x46c(%ebp)
 804fb65:	04 00 00 
 804fb68:	c7 85 98 fb ff ff 00 	movl   $0x0,-0x468(%ebp)
 804fb6f:	00 00 00 
 804fb72:	83 e0 fd             	and    $0xfffffffd,%eax
 804fb75:	66 89 85 8c fb ff ff 	mov    %ax,-0x474(%ebp)
 804fb7c:	8b 42 64             	mov    0x64(%edx),%eax
 804fb7f:	89 85 e4 fb ff ff    	mov    %eax,-0x41c(%ebp)
 804fb85:	0f b7 42 0e          	movzwl 0xe(%edx),%eax
 804fb89:	66 89 85 8e fb ff ff 	mov    %ax,-0x472(%ebp)
 804fb90:	8b 42 1c             	mov    0x1c(%edx),%eax
 804fb93:	89 85 9c fb ff ff    	mov    %eax,-0x464(%ebp)
 804fb99:	8b 42 24             	mov    0x24(%edx),%eax
 804fb9c:	8d 95 80 fb ff ff    	lea    -0x480(%ebp),%edx
 804fba2:	89 4c 24 08          	mov    %ecx,0x8(%esp)
 804fba6:	89 54 24 04          	mov    %edx,0x4(%esp)
 804fbaa:	89 3c 24             	mov    %edi,(%esp)
 804fbad:	89 85 a4 fb ff ff    	mov    %eax,-0x45c(%ebp)
 804fbb3:	8d 85 e8 fb ff ff    	lea    -0x418(%ebp),%eax
 804fbb9:	89 85 80 fb ff ff    	mov    %eax,-0x480(%ebp)
 804fbbf:	89 85 90 fb ff ff    	mov    %eax,-0x470(%ebp)
 804fbc5:	8b 45 08             	mov    0x8(%ebp),%eax
 804fbc8:	89 95 74 fb ff ff    	mov    %edx,-0x48c(%ebp)
 804fbce:	89 44 24 0c          	mov    %eax,0xc(%esp)
 804fbd2:	e8 99 ef ff ff       	call   804eb70 <_vfiprintf_r>
 804fbd7:	85 c0                	test   %eax,%eax
 804fbd9:	89 c6                	mov    %eax,%esi
 804fbdb:	78 1c                	js     804fbf9 <__sbprintf+0xb9>
 804fbdd:	8b 95 74 fb ff ff    	mov    -0x48c(%ebp),%edx
 804fbe3:	89 3c 24             	mov    %edi,(%esp)
 804fbe6:	89 54 24 04          	mov    %edx,0x4(%esp)
 804fbea:	e8 f1 be ff ff       	call   804bae0 <_fflush_r>
 804fbef:	85 c0                	test   %eax,%eax
 804fbf1:	b8 ff ff ff ff       	mov    $0xffffffff,%eax
 804fbf6:	0f 45 f0             	cmovne %eax,%esi
 804fbf9:	f6 85 8c fb ff ff 40 	testb  $0x40,-0x474(%ebp)
 804fc00:	74 05                	je     804fc07 <__sbprintf+0xc7>
 804fc02:	66 83 4b 0c 40       	orw    $0x40,0xc(%ebx)
 804fc07:	81 c4 9c 04 00 00    	add    $0x49c,%esp
 804fc0d:	89 f0                	mov    %esi,%eax
 804fc0f:	5b                   	pop    %ebx
 804fc10:	5e                   	pop    %esi
 804fc11:	5f                   	pop    %edi
 804fc12:	5d                   	pop    %ebp
 804fc13:	c3                   	ret    
 804fc14:	66 90                	xchg   %ax,%ax
 804fc16:	66 90                	xchg   %ax,%ax
 804fc18:	66 90                	xchg   %ax,%ax
 804fc1a:	66 90                	xchg   %ax,%ax
 804fc1c:	66 90                	xchg   %ax,%ax
 804fc1e:	66 90                	xchg   %ax,%ax

0804fc20 <_write_r>:
 804fc20:	55                   	push   %ebp
 804fc21:	89 e5                	mov    %esp,%ebp
 804fc23:	83 ec 18             	sub    $0x18,%esp
 804fc26:	8b 45 14             	mov    0x14(%ebp),%eax
 804fc29:	c7 05 74 29 05 08 00 	movl   $0x0,0x8052974
 804fc30:	00 00 00 
 804fc33:	89 44 24 08          	mov    %eax,0x8(%esp)
 804fc37:	8b 45 10             	mov    0x10(%ebp),%eax
 804fc3a:	89 44 24 04          	mov    %eax,0x4(%esp)
 804fc3e:	8b 45 0c             	mov    0xc(%ebp),%eax
 804fc41:	89 04 24             	mov    %eax,(%esp)
 804fc44:	e8 99 84 ff ff       	call   80480e2 <write>
 804fc49:	83 f8 ff             	cmp    $0xffffffff,%eax
 804fc4c:	74 02                	je     804fc50 <_write_r+0x30>
 804fc4e:	c9                   	leave  
 804fc4f:	c3                   	ret    
 804fc50:	8b 15 74 29 05 08    	mov    0x8052974,%edx
 804fc56:	85 d2                	test   %edx,%edx
 804fc58:	74 f4                	je     804fc4e <_write_r+0x2e>
 804fc5a:	8b 4d 08             	mov    0x8(%ebp),%ecx
 804fc5d:	89 11                	mov    %edx,(%ecx)
 804fc5f:	c9                   	leave  
 804fc60:	c3                   	ret    
 804fc61:	66 90                	xchg   %ax,%ax
 804fc63:	66 90                	xchg   %ax,%ax
 804fc65:	66 90                	xchg   %ax,%ax
 804fc67:	66 90                	xchg   %ax,%ax
 804fc69:	66 90                	xchg   %ax,%ax
 804fc6b:	66 90                	xchg   %ax,%ax
 804fc6d:	66 90                	xchg   %ax,%ax
 804fc6f:	90                   	nop

0804fc70 <_calloc_r>:
 804fc70:	55                   	push   %ebp
 804fc71:	89 e5                	mov    %esp,%ebp
 804fc73:	53                   	push   %ebx
 804fc74:	83 ec 14             	sub    $0x14,%esp
 804fc77:	8b 45 10             	mov    0x10(%ebp),%eax
 804fc7a:	0f af 45 0c          	imul   0xc(%ebp),%eax
 804fc7e:	89 44 24 04          	mov    %eax,0x4(%esp)
 804fc82:	8b 45 08             	mov    0x8(%ebp),%eax
 804fc85:	89 04 24             	mov    %eax,(%esp)
 804fc88:	e8 93 ce ff ff       	call   804cb20 <_malloc_r>
 804fc8d:	85 c0                	test   %eax,%eax
 804fc8f:	89 c3                	mov    %eax,%ebx
 804fc91:	0f 84 91 00 00 00    	je     804fd28 <_calloc_r+0xb8>
 804fc97:	8b 40 fc             	mov    -0x4(%eax),%eax
 804fc9a:	83 e0 fc             	and    $0xfffffffc,%eax
 804fc9d:	83 e8 04             	sub    $0x4,%eax
 804fca0:	83 f8 24             	cmp    $0x24,%eax
 804fca3:	77 63                	ja     804fd08 <_calloc_r+0x98>
 804fca5:	83 f8 13             	cmp    $0x13,%eax
 804fca8:	89 da                	mov    %ebx,%edx
 804fcaa:	77 1c                	ja     804fcc8 <_calloc_r+0x58>
 804fcac:	c7 02 00 00 00 00    	movl   $0x0,(%edx)
 804fcb2:	89 d8                	mov    %ebx,%eax
 804fcb4:	c7 42 04 00 00 00 00 	movl   $0x0,0x4(%edx)
 804fcbb:	c7 42 08 00 00 00 00 	movl   $0x0,0x8(%edx)
 804fcc2:	83 c4 14             	add    $0x14,%esp
 804fcc5:	5b                   	pop    %ebx
 804fcc6:	5d                   	pop    %ebp
 804fcc7:	c3                   	ret    
 804fcc8:	83 f8 1b             	cmp    $0x1b,%eax
 804fccb:	c7 03 00 00 00 00    	movl   $0x0,(%ebx)
 804fcd1:	8d 53 08             	lea    0x8(%ebx),%edx
 804fcd4:	c7 43 04 00 00 00 00 	movl   $0x0,0x4(%ebx)
 804fcdb:	76 cf                	jbe    804fcac <_calloc_r+0x3c>
 804fcdd:	83 f8 24             	cmp    $0x24,%eax
 804fce0:	c7 43 08 00 00 00 00 	movl   $0x0,0x8(%ebx)
 804fce7:	8d 53 10             	lea    0x10(%ebx),%edx
 804fcea:	c7 43 0c 00 00 00 00 	movl   $0x0,0xc(%ebx)
 804fcf1:	75 b9                	jne    804fcac <_calloc_r+0x3c>
 804fcf3:	c7 43 10 00 00 00 00 	movl   $0x0,0x10(%ebx)
 804fcfa:	8d 53 18             	lea    0x18(%ebx),%edx
 804fcfd:	c7 43 14 00 00 00 00 	movl   $0x0,0x14(%ebx)
 804fd04:	eb a6                	jmp    804fcac <_calloc_r+0x3c>
 804fd06:	66 90                	xchg   %ax,%ax
 804fd08:	89 1c 24             	mov    %ebx,(%esp)
 804fd0b:	89 44 24 08          	mov    %eax,0x8(%esp)
 804fd0f:	c7 44 24 04 00 00 00 	movl   $0x0,0x4(%esp)
 804fd16:	00 
 804fd17:	e8 b1 d6 ff ff       	call   804d3cd <memset>
 804fd1c:	83 c4 14             	add    $0x14,%esp
 804fd1f:	89 d8                	mov    %ebx,%eax
 804fd21:	5b                   	pop    %ebx
 804fd22:	5d                   	pop    %ebp
 804fd23:	c3                   	ret    
 804fd24:	8d 74 26 00          	lea    0x0(%esi,%eiz,1),%esi
 804fd28:	31 c0                	xor    %eax,%eax
 804fd2a:	eb 96                	jmp    804fcc2 <_calloc_r+0x52>
 804fd2c:	66 90                	xchg   %ax,%ax
 804fd2e:	66 90                	xchg   %ax,%ax

0804fd30 <_close_r>:
 804fd30:	55                   	push   %ebp
 804fd31:	89 e5                	mov    %esp,%ebp
 804fd33:	83 ec 18             	sub    $0x18,%esp
 804fd36:	8b 45 0c             	mov    0xc(%ebp),%eax
 804fd39:	c7 05 74 29 05 08 00 	movl   $0x0,0x8052974
 804fd40:	00 00 00 
 804fd43:	89 04 24             	mov    %eax,(%esp)
 804fd46:	e8 1f 84 ff ff       	call   804816a <close>
 804fd4b:	83 f8 ff             	cmp    $0xffffffff,%eax
 804fd4e:	74 08                	je     804fd58 <_close_r+0x28>
 804fd50:	c9                   	leave  
 804fd51:	c3                   	ret    
 804fd52:	8d b6 00 00 00 00    	lea    0x0(%esi),%esi
 804fd58:	8b 15 74 29 05 08    	mov    0x8052974,%edx
 804fd5e:	85 d2                	test   %edx,%edx
 804fd60:	74 ee                	je     804fd50 <_close_r+0x20>
 804fd62:	8b 4d 08             	mov    0x8(%ebp),%ecx
 804fd65:	89 11                	mov    %edx,(%ecx)
 804fd67:	c9                   	leave  
 804fd68:	c3                   	ret    
 804fd69:	66 90                	xchg   %ax,%ax
 804fd6b:	66 90                	xchg   %ax,%ax
 804fd6d:	66 90                	xchg   %ax,%ax
 804fd6f:	90                   	nop

0804fd70 <_fclose_r>:
 804fd70:	55                   	push   %ebp
 804fd71:	89 e5                	mov    %esp,%ebp
 804fd73:	57                   	push   %edi
 804fd74:	56                   	push   %esi
 804fd75:	53                   	push   %ebx
 804fd76:	83 ec 1c             	sub    $0x1c,%esp
 804fd79:	8b 5d 0c             	mov    0xc(%ebp),%ebx
 804fd7c:	8b 75 08             	mov    0x8(%ebp),%esi
 804fd7f:	85 db                	test   %ebx,%ebx
 804fd81:	74 16                	je     804fd99 <_fclose_r+0x29>
 804fd83:	85 f6                	test   %esi,%esi
 804fd85:	74 0b                	je     804fd92 <_fclose_r+0x22>
 804fd87:	8b 56 38             	mov    0x38(%esi),%edx
 804fd8a:	85 d2                	test   %edx,%edx
 804fd8c:	0f 84 9e 00 00 00    	je     804fe30 <_fclose_r+0xc0>
 804fd92:	66 83 7b 0c 00       	cmpw   $0x0,0xc(%ebx)
 804fd97:	75 0f                	jne    804fda8 <_fclose_r+0x38>
 804fd99:	83 c4 1c             	add    $0x1c,%esp
 804fd9c:	31 c0                	xor    %eax,%eax
 804fd9e:	5b                   	pop    %ebx
 804fd9f:	5e                   	pop    %esi
 804fda0:	5f                   	pop    %edi
 804fda1:	5d                   	pop    %ebp
 804fda2:	c3                   	ret    
 804fda3:	90                   	nop
 804fda4:	8d 74 26 00          	lea    0x0(%esi,%eiz,1),%esi
 804fda8:	89 5c 24 04          	mov    %ebx,0x4(%esp)
 804fdac:	89 34 24             	mov    %esi,(%esp)
 804fdaf:	e8 2c bd ff ff       	call   804bae0 <_fflush_r>
 804fdb4:	89 c7                	mov    %eax,%edi
 804fdb6:	8b 43 2c             	mov    0x2c(%ebx),%eax
 804fdb9:	85 c0                	test   %eax,%eax
 804fdbb:	74 16                	je     804fdd3 <_fclose_r+0x63>
 804fdbd:	8b 53 1c             	mov    0x1c(%ebx),%edx
 804fdc0:	89 34 24             	mov    %esi,(%esp)
 804fdc3:	89 54 24 04          	mov    %edx,0x4(%esp)
 804fdc7:	ff d0                	call   *%eax
 804fdc9:	85 c0                	test   %eax,%eax
 804fdcb:	b8 ff ff ff ff       	mov    $0xffffffff,%eax
 804fdd0:	0f 48 f8             	cmovs  %eax,%edi
 804fdd3:	f6 43 0c 80          	testb  $0x80,0xc(%ebx)
 804fdd7:	75 67                	jne    804fe40 <_fclose_r+0xd0>
 804fdd9:	8b 43 30             	mov    0x30(%ebx),%eax
 804fddc:	85 c0                	test   %eax,%eax
 804fdde:	74 1a                	je     804fdfa <_fclose_r+0x8a>
 804fde0:	8d 53 40             	lea    0x40(%ebx),%edx
 804fde3:	39 d0                	cmp    %edx,%eax
 804fde5:	74 0c                	je     804fdf3 <_fclose_r+0x83>
 804fde7:	89 44 24 04          	mov    %eax,0x4(%esp)
 804fdeb:	89 34 24             	mov    %esi,(%esp)
 804fdee:	e8 ad c2 ff ff       	call   804c0a0 <_free_r>
 804fdf3:	c7 43 30 00 00 00 00 	movl   $0x0,0x30(%ebx)
 804fdfa:	8b 43 44             	mov    0x44(%ebx),%eax
 804fdfd:	85 c0                	test   %eax,%eax
 804fdff:	74 13                	je     804fe14 <_fclose_r+0xa4>
 804fe01:	89 44 24 04          	mov    %eax,0x4(%esp)
 804fe05:	89 34 24             	mov    %esi,(%esp)
 804fe08:	e8 93 c2 ff ff       	call   804c0a0 <_free_r>
 804fe0d:	c7 43 44 00 00 00 00 	movl   $0x0,0x44(%ebx)
 804fe14:	e8 17 c1 ff ff       	call   804bf30 <__sfp_lock_acquire>
 804fe19:	31 c0                	xor    %eax,%eax
 804fe1b:	66 89 43 0c          	mov    %ax,0xc(%ebx)
 804fe1f:	e8 1c c1 ff ff       	call   804bf40 <__sfp_lock_release>
 804fe24:	83 c4 1c             	add    $0x1c,%esp
 804fe27:	89 f8                	mov    %edi,%eax
 804fe29:	5b                   	pop    %ebx
 804fe2a:	5e                   	pop    %esi
 804fe2b:	5f                   	pop    %edi
 804fe2c:	5d                   	pop    %ebp
 804fe2d:	c3                   	ret    
 804fe2e:	66 90                	xchg   %ax,%ax
 804fe30:	89 34 24             	mov    %esi,(%esp)
 804fe33:	e8 18 be ff ff       	call   804bc50 <__sinit>
 804fe38:	e9 55 ff ff ff       	jmp    804fd92 <_fclose_r+0x22>
 804fe3d:	8d 76 00             	lea    0x0(%esi),%esi
 804fe40:	8b 43 10             	mov    0x10(%ebx),%eax
 804fe43:	89 34 24             	mov    %esi,(%esp)
 804fe46:	89 44 24 04          	mov    %eax,0x4(%esp)
 804fe4a:	e8 51 c2 ff ff       	call   804c0a0 <_free_r>
 804fe4f:	eb 88                	jmp    804fdd9 <_fclose_r+0x69>
 804fe51:	eb 0d                	jmp    804fe60 <fclose>
 804fe53:	90                   	nop
 804fe54:	90                   	nop
 804fe55:	90                   	nop
 804fe56:	90                   	nop
 804fe57:	90                   	nop
 804fe58:	90                   	nop
 804fe59:	90                   	nop
 804fe5a:	90                   	nop
 804fe5b:	90                   	nop
 804fe5c:	90                   	nop
 804fe5d:	90                   	nop
 804fe5e:	90                   	nop
 804fe5f:	90                   	nop

0804fe60 <fclose>:
 804fe60:	55                   	push   %ebp
 804fe61:	89 e5                	mov    %esp,%ebp
 804fe63:	83 ec 18             	sub    $0x18,%esp
 804fe66:	e8 55 ca ff ff       	call   804c8c0 <__getreent>
 804fe6b:	8b 55 08             	mov    0x8(%ebp),%edx
 804fe6e:	89 54 24 04          	mov    %edx,0x4(%esp)
 804fe72:	89 04 24             	mov    %eax,(%esp)
 804fe75:	e8 f6 fe ff ff       	call   804fd70 <_fclose_r>
 804fe7a:	c9                   	leave  
 804fe7b:	c3                   	ret    
 804fe7c:	66 90                	xchg   %ax,%ax
 804fe7e:	66 90                	xchg   %ax,%ax

0804fe80 <_fputwc_r>:
 804fe80:	55                   	push   %ebp
 804fe81:	89 e5                	mov    %esp,%ebp
 804fe83:	57                   	push   %edi
 804fe84:	56                   	push   %esi
 804fe85:	53                   	push   %ebx
 804fe86:	83 ec 2c             	sub    $0x2c,%esp
 804fe89:	8b 5d 10             	mov    0x10(%ebp),%ebx
 804fe8c:	0f b7 43 0c          	movzwl 0xc(%ebx),%eax
 804fe90:	f6 c4 20             	test   $0x20,%ah
 804fe93:	75 0e                	jne    804fea3 <_fputwc_r+0x23>
 804fe95:	81 4b 64 00 20 00 00 	orl    $0x2000,0x64(%ebx)
 804fe9c:	80 cc 20             	or     $0x20,%ah
 804fe9f:	66 89 43 0c          	mov    %ax,0xc(%ebx)
 804fea3:	e8 a8 ca ff ff       	call   804c950 <__locale_mb_cur_max>
 804fea8:	83 f8 01             	cmp    $0x1,%eax
 804feab:	0f 84 cf 00 00 00    	je     804ff80 <_fputwc_r+0x100>
 804feb1:	8d 43 5c             	lea    0x5c(%ebx),%eax
 804feb4:	89 44 24 0c          	mov    %eax,0xc(%esp)
 804feb8:	8b 45 0c             	mov    0xc(%ebp),%eax
 804febb:	89 44 24 08          	mov    %eax,0x8(%esp)
 804febf:	8d 45 e7             	lea    -0x19(%ebp),%eax
 804fec2:	89 44 24 04          	mov    %eax,0x4(%esp)
 804fec6:	8b 45 08             	mov    0x8(%ebp),%eax
 804fec9:	89 04 24             	mov    %eax,(%esp)
 804fecc:	e8 df 04 00 00       	call   80503b0 <_wcrtomb_r>
 804fed1:	83 f8 ff             	cmp    $0xffffffff,%eax
 804fed4:	89 c7                	mov    %eax,%edi
 804fed6:	74 60                	je     804ff38 <_fputwc_r+0xb8>
 804fed8:	85 ff                	test   %edi,%edi
 804feda:	0f b6 45 e7          	movzbl -0x19(%ebp),%eax
 804fede:	74 48                	je     804ff28 <_fputwc_r+0xa8>
 804fee0:	31 f6                	xor    %esi,%esi
 804fee2:	eb 17                	jmp    804fefb <_fputwc_r+0x7b>
 804fee4:	8d 74 26 00          	lea    0x0(%esi,%eiz,1),%esi
 804fee8:	8b 13                	mov    (%ebx),%edx
 804feea:	88 02                	mov    %al,(%edx)
 804feec:	83 03 01             	addl   $0x1,(%ebx)
 804feef:	83 c6 01             	add    $0x1,%esi
 804fef2:	39 fe                	cmp    %edi,%esi
 804fef4:	73 32                	jae    804ff28 <_fputwc_r+0xa8>
 804fef6:	0f b6 44 35 e7       	movzbl -0x19(%ebp,%esi,1),%eax
 804fefb:	8b 4b 08             	mov    0x8(%ebx),%ecx
 804fefe:	8d 51 ff             	lea    -0x1(%ecx),%edx
 804ff01:	85 d2                	test   %edx,%edx
 804ff03:	89 53 08             	mov    %edx,0x8(%ebx)
 804ff06:	79 e0                	jns    804fee8 <_fputwc_r+0x68>
 804ff08:	3b 53 18             	cmp    0x18(%ebx),%edx
 804ff0b:	7c 43                	jl     804ff50 <_fputwc_r+0xd0>
 804ff0d:	8b 13                	mov    (%ebx),%edx
 804ff0f:	88 02                	mov    %al,(%edx)
 804ff11:	8b 03                	mov    (%ebx),%eax
 804ff13:	80 38 0a             	cmpb   $0xa,(%eax)
 804ff16:	0f 84 8c 00 00 00    	je     804ffa8 <_fputwc_r+0x128>
 804ff1c:	83 c6 01             	add    $0x1,%esi
 804ff1f:	83 c0 01             	add    $0x1,%eax
 804ff22:	39 fe                	cmp    %edi,%esi
 804ff24:	89 03                	mov    %eax,(%ebx)
 804ff26:	72 ce                	jb     804fef6 <_fputwc_r+0x76>
 804ff28:	8b 45 0c             	mov    0xc(%ebp),%eax
 804ff2b:	83 c4 2c             	add    $0x2c,%esp
 804ff2e:	5b                   	pop    %ebx
 804ff2f:	5e                   	pop    %esi
 804ff30:	5f                   	pop    %edi
 804ff31:	5d                   	pop    %ebp
 804ff32:	c3                   	ret    
 804ff33:	90                   	nop
 804ff34:	8d 74 26 00          	lea    0x0(%esi,%eiz,1),%esi
 804ff38:	66 83 4b 0c 40       	orw    $0x40,0xc(%ebx)
 804ff3d:	83 c4 2c             	add    $0x2c,%esp
 804ff40:	5b                   	pop    %ebx
 804ff41:	b8 ff ff ff ff       	mov    $0xffffffff,%eax
 804ff46:	5e                   	pop    %esi
 804ff47:	5f                   	pop    %edi
 804ff48:	5d                   	pop    %ebp
 804ff49:	c3                   	ret    
 804ff4a:	8d b6 00 00 00 00    	lea    0x0(%esi),%esi
 804ff50:	89 5c 24 08          	mov    %ebx,0x8(%esp)
 804ff54:	89 44 24 04          	mov    %eax,0x4(%esp)
 804ff58:	8b 45 08             	mov    0x8(%ebp),%eax
 804ff5b:	89 04 24             	mov    %eax,(%esp)
 804ff5e:	e8 fd 02 00 00       	call   8050260 <__swbuf_r>
 804ff63:	83 f8 ff             	cmp    $0xffffffff,%eax
 804ff66:	0f 94 c0             	sete   %al
 804ff69:	84 c0                	test   %al,%al
 804ff6b:	74 82                	je     804feef <_fputwc_r+0x6f>
 804ff6d:	83 c4 2c             	add    $0x2c,%esp
 804ff70:	b8 ff ff ff ff       	mov    $0xffffffff,%eax
 804ff75:	5b                   	pop    %ebx
 804ff76:	5e                   	pop    %esi
 804ff77:	5f                   	pop    %edi
 804ff78:	5d                   	pop    %ebp
 804ff79:	c3                   	ret    
 804ff7a:	8d b6 00 00 00 00    	lea    0x0(%esi),%esi
 804ff80:	8b 45 0c             	mov    0xc(%ebp),%eax
 804ff83:	83 e8 01             	sub    $0x1,%eax
 804ff86:	3d fe 00 00 00       	cmp    $0xfe,%eax
 804ff8b:	0f 87 20 ff ff ff    	ja     804feb1 <_fputwc_r+0x31>
 804ff91:	0f b6 45 0c          	movzbl 0xc(%ebp),%eax
 804ff95:	bf 01 00 00 00       	mov    $0x1,%edi
 804ff9a:	88 45 e7             	mov    %al,-0x19(%ebp)
 804ff9d:	e9 3e ff ff ff       	jmp    804fee0 <_fputwc_r+0x60>
 804ffa2:	8d b6 00 00 00 00    	lea    0x0(%esi),%esi
 804ffa8:	89 5c 24 08          	mov    %ebx,0x8(%esp)
 804ffac:	c7 44 24 04 0a 00 00 	movl   $0xa,0x4(%esp)
 804ffb3:	00 
 804ffb4:	eb a2                	jmp    804ff58 <_fputwc_r+0xd8>
 804ffb6:	8d 76 00             	lea    0x0(%esi),%esi
 804ffb9:	8d bc 27 00 00 00 00 	lea    0x0(%edi,%eiz,1),%edi

0804ffc0 <fputwc>:
 804ffc0:	55                   	push   %ebp
 804ffc1:	89 e5                	mov    %esp,%ebp
 804ffc3:	83 ec 18             	sub    $0x18,%esp
 804ffc6:	e8 f5 c8 ff ff       	call   804c8c0 <__getreent>
 804ffcb:	85 c0                	test   %eax,%eax
 804ffcd:	74 15                	je     804ffe4 <fputwc+0x24>
 804ffcf:	8b 50 38             	mov    0x38(%eax),%edx
 804ffd2:	85 d2                	test   %edx,%edx
 804ffd4:	75 0e                	jne    804ffe4 <fputwc+0x24>
 804ffd6:	89 04 24             	mov    %eax,(%esp)
 804ffd9:	89 45 f4             	mov    %eax,-0xc(%ebp)
 804ffdc:	e8 6f bc ff ff       	call   804bc50 <__sinit>
 804ffe1:	8b 45 f4             	mov    -0xc(%ebp),%eax
 804ffe4:	8b 55 0c             	mov    0xc(%ebp),%edx
 804ffe7:	89 04 24             	mov    %eax,(%esp)
 804ffea:	89 54 24 08          	mov    %edx,0x8(%esp)
 804ffee:	8b 55 08             	mov    0x8(%ebp),%edx
 804fff1:	89 54 24 04          	mov    %edx,0x4(%esp)
 804fff5:	e8 86 fe ff ff       	call   804fe80 <_fputwc_r>
 804fffa:	c9                   	leave  
 804fffb:	c3                   	ret    
 804fffc:	66 90                	xchg   %ax,%ax
 804fffe:	66 90                	xchg   %ax,%ax

08050000 <_fstat_r>:
 8050000:	55                   	push   %ebp
 8050001:	89 e5                	mov    %esp,%ebp
 8050003:	83 ec 18             	sub    $0x18,%esp
 8050006:	8b 45 10             	mov    0x10(%ebp),%eax
 8050009:	c7 05 74 29 05 08 00 	movl   $0x0,0x8052974
 8050010:	00 00 00 
 8050013:	89 44 24 04          	mov    %eax,0x4(%esp)
 8050017:	8b 45 0c             	mov    0xc(%ebp),%eax
 805001a:	89 04 24             	mov    %eax,(%esp)
 805001d:	e8 52 81 ff ff       	call   8048174 <fstat>
 8050022:	83 f8 ff             	cmp    $0xffffffff,%eax
 8050025:	74 09                	je     8050030 <_fstat_r+0x30>
 8050027:	c9                   	leave  
 8050028:	c3                   	ret    
 8050029:	8d b4 26 00 00 00 00 	lea    0x0(%esi,%eiz,1),%esi
 8050030:	8b 15 74 29 05 08    	mov    0x8052974,%edx
 8050036:	85 d2                	test   %edx,%edx
 8050038:	74 ed                	je     8050027 <_fstat_r+0x27>
 805003a:	8b 4d 08             	mov    0x8(%ebp),%ecx
 805003d:	89 11                	mov    %edx,(%ecx)
 805003f:	c9                   	leave  
 8050040:	c3                   	ret    
 8050041:	66 90                	xchg   %ax,%ax
 8050043:	66 90                	xchg   %ax,%ax
 8050045:	66 90                	xchg   %ax,%ax
 8050047:	66 90                	xchg   %ax,%ax
 8050049:	66 90                	xchg   %ax,%ax
 805004b:	66 90                	xchg   %ax,%ax
 805004d:	66 90                	xchg   %ax,%ax
 805004f:	90                   	nop

08050050 <_isatty_r>:
 8050050:	55                   	push   %ebp
 8050051:	89 e5                	mov    %esp,%ebp
 8050053:	83 ec 18             	sub    $0x18,%esp
 8050056:	8b 45 0c             	mov    0xc(%ebp),%eax
 8050059:	c7 05 74 29 05 08 00 	movl   $0x0,0x8052974
 8050060:	00 00 00 
 8050063:	89 04 24             	mov    %eax,(%esp)
 8050066:	e8 13 81 ff ff       	call   804817e <isatty>
 805006b:	83 f8 ff             	cmp    $0xffffffff,%eax
 805006e:	74 08                	je     8050078 <_isatty_r+0x28>
 8050070:	c9                   	leave  
 8050071:	c3                   	ret    
 8050072:	8d b6 00 00 00 00    	lea    0x0(%esi),%esi
 8050078:	8b 15 74 29 05 08    	mov    0x8052974,%edx
 805007e:	85 d2                	test   %edx,%edx
 8050080:	74 ee                	je     8050070 <_isatty_r+0x20>
 8050082:	8b 4d 08             	mov    0x8(%ebp),%ecx
 8050085:	89 11                	mov    %edx,(%ecx)
 8050087:	c9                   	leave  
 8050088:	c3                   	ret    
 8050089:	66 90                	xchg   %ax,%ax
 805008b:	66 90                	xchg   %ax,%ax
 805008d:	66 90                	xchg   %ax,%ax
 805008f:	90                   	nop

08050090 <_lseek_r>:
 8050090:	55                   	push   %ebp
 8050091:	89 e5                	mov    %esp,%ebp
 8050093:	83 ec 18             	sub    $0x18,%esp
 8050096:	8b 45 14             	mov    0x14(%ebp),%eax
 8050099:	c7 05 74 29 05 08 00 	movl   $0x0,0x8052974
 80500a0:	00 00 00 
 80500a3:	89 44 24 08          	mov    %eax,0x8(%esp)
 80500a7:	8b 45 10             	mov    0x10(%ebp),%eax
 80500aa:	89 44 24 04          	mov    %eax,0x4(%esp)
 80500ae:	8b 45 0c             	mov    0xc(%ebp),%eax
 80500b1:	89 04 24             	mov    %eax,(%esp)
 80500b4:	e8 52 80 ff ff       	call   804810b <lseek>
 80500b9:	83 f8 ff             	cmp    $0xffffffff,%eax
 80500bc:	74 02                	je     80500c0 <_lseek_r+0x30>
 80500be:	c9                   	leave  
 80500bf:	c3                   	ret    
 80500c0:	8b 15 74 29 05 08    	mov    0x8052974,%edx
 80500c6:	85 d2                	test   %edx,%edx
 80500c8:	74 f4                	je     80500be <_lseek_r+0x2e>
 80500ca:	8b 4d 08             	mov    0x8(%ebp),%ecx
 80500cd:	89 11                	mov    %edx,(%ecx)
 80500cf:	c9                   	leave  
 80500d0:	c3                   	ret    
 80500d1:	66 90                	xchg   %ax,%ax
 80500d3:	66 90                	xchg   %ax,%ax
 80500d5:	66 90                	xchg   %ax,%ax
 80500d7:	66 90                	xchg   %ax,%ax
 80500d9:	66 90                	xchg   %ax,%ax
 80500db:	66 90                	xchg   %ax,%ax
 80500dd:	66 90                	xchg   %ax,%ax
 80500df:	90                   	nop

080500e0 <_read_r>:
 80500e0:	55                   	push   %ebp
 80500e1:	89 e5                	mov    %esp,%ebp
 80500e3:	83 ec 18             	sub    $0x18,%esp
 80500e6:	8b 45 14             	mov    0x14(%ebp),%eax
 80500e9:	c7 05 74 29 05 08 00 	movl   $0x0,0x8052974
 80500f0:	00 00 00 
 80500f3:	89 44 24 08          	mov    %eax,0x8(%esp)
 80500f7:	8b 45 10             	mov    0x10(%ebp),%eax
 80500fa:	89 44 24 04          	mov    %eax,0x4(%esp)
 80500fe:	8b 45 0c             	mov    0xc(%ebp),%eax
 8050101:	89 04 24             	mov    %eax,(%esp)
 8050104:	e8 cf 7f ff ff       	call   80480d8 <read>
 8050109:	83 f8 ff             	cmp    $0xffffffff,%eax
 805010c:	74 02                	je     8050110 <_read_r+0x30>
 805010e:	c9                   	leave  
 805010f:	c3                   	ret    
 8050110:	8b 15 74 29 05 08    	mov    0x8052974,%edx
 8050116:	85 d2                	test   %edx,%edx
 8050118:	74 f4                	je     805010e <_read_r+0x2e>
 805011a:	8b 4d 08             	mov    0x8(%ebp),%ecx
 805011d:	89 11                	mov    %edx,(%ecx)
 805011f:	c9                   	leave  
 8050120:	c3                   	ret    
 8050121:	66 90                	xchg   %ax,%ax
 8050123:	66 90                	xchg   %ax,%ax
 8050125:	66 90                	xchg   %ax,%ax
 8050127:	66 90                	xchg   %ax,%ax
 8050129:	66 90                	xchg   %ax,%ax
 805012b:	66 90                	xchg   %ax,%ax
 805012d:	66 90                	xchg   %ax,%ax
 805012f:	90                   	nop

08050130 <cleanup_glue>:
 8050130:	55                   	push   %ebp
 8050131:	89 e5                	mov    %esp,%ebp
 8050133:	56                   	push   %esi
 8050134:	53                   	push   %ebx
 8050135:	83 ec 10             	sub    $0x10,%esp
 8050138:	8b 5d 0c             	mov    0xc(%ebp),%ebx
 805013b:	8b 75 08             	mov    0x8(%ebp),%esi
 805013e:	8b 03                	mov    (%ebx),%eax
 8050140:	85 c0                	test   %eax,%eax
 8050142:	74 0c                	je     8050150 <cleanup_glue+0x20>
 8050144:	89 44 24 04          	mov    %eax,0x4(%esp)
 8050148:	89 34 24             	mov    %esi,(%esp)
 805014b:	e8 e0 ff ff ff       	call   8050130 <cleanup_glue>
 8050150:	89 5d 0c             	mov    %ebx,0xc(%ebp)
 8050153:	89 75 08             	mov    %esi,0x8(%ebp)
 8050156:	83 c4 10             	add    $0x10,%esp
 8050159:	5b                   	pop    %ebx
 805015a:	5e                   	pop    %esi
 805015b:	5d                   	pop    %ebp
 805015c:	e9 3f bf ff ff       	jmp    804c0a0 <_free_r>
 8050161:	eb 0d                	jmp    8050170 <_reclaim_reent>
 8050163:	90                   	nop
 8050164:	90                   	nop
 8050165:	90                   	nop
 8050166:	90                   	nop
 8050167:	90                   	nop
 8050168:	90                   	nop
 8050169:	90                   	nop
 805016a:	90                   	nop
 805016b:	90                   	nop
 805016c:	90                   	nop
 805016d:	90                   	nop
 805016e:	90                   	nop
 805016f:	90                   	nop

08050170 <_reclaim_reent>:
 8050170:	55                   	push   %ebp
 8050171:	89 e5                	mov    %esp,%ebp
 8050173:	57                   	push   %edi
 8050174:	56                   	push   %esi
 8050175:	53                   	push   %ebx
 8050176:	83 ec 1c             	sub    $0x1c,%esp
 8050179:	8b 5d 08             	mov    0x8(%ebp),%ebx
 805017c:	3b 1d 00 20 05 08    	cmp    0x8052000,%ebx
 8050182:	0f 84 a6 00 00 00    	je     805022e <_reclaim_reent+0xbe>
 8050188:	8b 53 4c             	mov    0x4c(%ebx),%edx
 805018b:	85 d2                	test   %edx,%edx
 805018d:	74 46                	je     80501d5 <_reclaim_reent+0x65>
 805018f:	31 c0                	xor    %eax,%eax
 8050191:	31 f6                	xor    %esi,%esi
 8050193:	90                   	nop
 8050194:	8d 74 26 00          	lea    0x0(%esi,%eiz,1),%esi
 8050198:	8b 04 82             	mov    (%edx,%eax,4),%eax
 805019b:	85 c0                	test   %eax,%eax
 805019d:	75 0b                	jne    80501aa <_reclaim_reent+0x3a>
 805019f:	eb 1e                	jmp    80501bf <_reclaim_reent+0x4f>
 80501a1:	8d b4 26 00 00 00 00 	lea    0x0(%esi,%eiz,1),%esi
 80501a8:	89 f8                	mov    %edi,%eax
 80501aa:	8b 38                	mov    (%eax),%edi
 80501ac:	89 44 24 04          	mov    %eax,0x4(%esp)
 80501b0:	89 1c 24             	mov    %ebx,(%esp)
 80501b3:	e8 e8 be ff ff       	call   804c0a0 <_free_r>
 80501b8:	85 ff                	test   %edi,%edi
 80501ba:	75 ec                	jne    80501a8 <_reclaim_reent+0x38>
 80501bc:	8b 53 4c             	mov    0x4c(%ebx),%edx
 80501bf:	83 c6 01             	add    $0x1,%esi
 80501c2:	83 fe 20             	cmp    $0x20,%esi
 80501c5:	89 f0                	mov    %esi,%eax
 80501c7:	75 cf                	jne    8050198 <_reclaim_reent+0x28>
 80501c9:	89 54 24 04          	mov    %edx,0x4(%esp)
 80501cd:	89 1c 24             	mov    %ebx,(%esp)
 80501d0:	e8 cb be ff ff       	call   804c0a0 <_free_r>
 80501d5:	8b 43 40             	mov    0x40(%ebx),%eax
 80501d8:	85 c0                	test   %eax,%eax
 80501da:	74 0c                	je     80501e8 <_reclaim_reent+0x78>
 80501dc:	89 44 24 04          	mov    %eax,0x4(%esp)
 80501e0:	89 1c 24             	mov    %ebx,(%esp)
 80501e3:	e8 b8 be ff ff       	call   804c0a0 <_free_r>
 80501e8:	8b 83 48 01 00 00    	mov    0x148(%ebx),%eax
 80501ee:	85 c0                	test   %eax,%eax
 80501f0:	74 22                	je     8050214 <_reclaim_reent+0xa4>
 80501f2:	8d b3 4c 01 00 00    	lea    0x14c(%ebx),%esi
 80501f8:	39 f0                	cmp    %esi,%eax
 80501fa:	75 06                	jne    8050202 <_reclaim_reent+0x92>
 80501fc:	eb 16                	jmp    8050214 <_reclaim_reent+0xa4>
 80501fe:	66 90                	xchg   %ax,%ax
 8050200:	89 f8                	mov    %edi,%eax
 8050202:	8b 38                	mov    (%eax),%edi
 8050204:	89 44 24 04          	mov    %eax,0x4(%esp)
 8050208:	89 1c 24             	mov    %ebx,(%esp)
 805020b:	e8 90 be ff ff       	call   804c0a0 <_free_r>
 8050210:	39 fe                	cmp    %edi,%esi
 8050212:	75 ec                	jne    8050200 <_reclaim_reent+0x90>
 8050214:	8b 43 54             	mov    0x54(%ebx),%eax
 8050217:	85 c0                	test   %eax,%eax
 8050219:	74 0c                	je     8050227 <_reclaim_reent+0xb7>
 805021b:	89 44 24 04          	mov    %eax,0x4(%esp)
 805021f:	89 1c 24             	mov    %ebx,(%esp)
 8050222:	e8 79 be ff ff       	call   804c0a0 <_free_r>
 8050227:	8b 43 38             	mov    0x38(%ebx),%eax
 805022a:	85 c0                	test   %eax,%eax
 805022c:	75 08                	jne    8050236 <_reclaim_reent+0xc6>
 805022e:	83 c4 1c             	add    $0x1c,%esp
 8050231:	5b                   	pop    %ebx
 8050232:	5e                   	pop    %esi
 8050233:	5f                   	pop    %edi
 8050234:	5d                   	pop    %ebp
 8050235:	c3                   	ret    
 8050236:	89 1c 24             	mov    %ebx,(%esp)
 8050239:	ff 53 3c             	call   *0x3c(%ebx)
 805023c:	8b 83 e0 02 00 00    	mov    0x2e0(%ebx),%eax
 8050242:	85 c0                	test   %eax,%eax
 8050244:	74 e8                	je     805022e <_reclaim_reent+0xbe>
 8050246:	89 1c 24             	mov    %ebx,(%esp)
 8050249:	89 44 24 04          	mov    %eax,0x4(%esp)
 805024d:	e8 de fe ff ff       	call   8050130 <cleanup_glue>
 8050252:	83 c4 1c             	add    $0x1c,%esp
 8050255:	5b                   	pop    %ebx
 8050256:	5e                   	pop    %esi
 8050257:	5f                   	pop    %edi
 8050258:	5d                   	pop    %ebp
 8050259:	c3                   	ret    
 805025a:	66 90                	xchg   %ax,%ax
 805025c:	66 90                	xchg   %ax,%ax
 805025e:	66 90                	xchg   %ax,%ax

08050260 <__swbuf_r>:
 8050260:	55                   	push   %ebp
 8050261:	89 e5                	mov    %esp,%ebp
 8050263:	57                   	push   %edi
 8050264:	56                   	push   %esi
 8050265:	53                   	push   %ebx
 8050266:	83 ec 1c             	sub    $0x1c,%esp
 8050269:	8b 75 08             	mov    0x8(%ebp),%esi
 805026c:	8b 5d 10             	mov    0x10(%ebp),%ebx
 805026f:	85 f6                	test   %esi,%esi
 8050271:	74 0b                	je     805027e <__swbuf_r+0x1e>
 8050273:	8b 46 38             	mov    0x38(%esi),%eax
 8050276:	85 c0                	test   %eax,%eax
 8050278:	0f 84 da 00 00 00    	je     8050358 <__swbuf_r+0xf8>
 805027e:	8b 43 18             	mov    0x18(%ebx),%eax
 8050281:	89 43 08             	mov    %eax,0x8(%ebx)
 8050284:	0f b7 43 0c          	movzwl 0xc(%ebx),%eax
 8050288:	a8 08                	test   $0x8,%al
 805028a:	0f 84 a8 00 00 00    	je     8050338 <__swbuf_r+0xd8>
 8050290:	8b 53 10             	mov    0x10(%ebx),%edx
 8050293:	85 d2                	test   %edx,%edx
 8050295:	0f 84 9d 00 00 00    	je     8050338 <__swbuf_r+0xd8>
 805029b:	f6 c4 20             	test   $0x20,%ah
 805029e:	0f b6 7d 0c          	movzbl 0xc(%ebp),%edi
 80502a2:	74 3c                	je     80502e0 <__swbuf_r+0x80>
 80502a4:	8b 03                	mov    (%ebx),%eax
 80502a6:	89 c1                	mov    %eax,%ecx
 80502a8:	29 d1                	sub    %edx,%ecx
 80502aa:	3b 4b 14             	cmp    0x14(%ebx),%ecx
 80502ad:	89 ca                	mov    %ecx,%edx
 80502af:	7d 4a                	jge    80502fb <__swbuf_r+0x9b>
 80502b1:	83 c2 01             	add    $0x1,%edx
 80502b4:	8d 48 01             	lea    0x1(%eax),%ecx
 80502b7:	89 0b                	mov    %ecx,(%ebx)
 80502b9:	89 f9                	mov    %edi,%ecx
 80502bb:	83 6b 08 01          	subl   $0x1,0x8(%ebx)
 80502bf:	88 08                	mov    %cl,(%eax)
 80502c1:	39 53 14             	cmp    %edx,0x14(%ebx)
 80502c4:	74 52                	je     8050318 <__swbuf_r+0xb8>
 80502c6:	f6 43 0c 01          	testb  $0x1,0xc(%ebx)
 80502ca:	89 f8                	mov    %edi,%eax
 80502cc:	74 05                	je     80502d3 <__swbuf_r+0x73>
 80502ce:	83 ff 0a             	cmp    $0xa,%edi
 80502d1:	74 45                	je     8050318 <__swbuf_r+0xb8>
 80502d3:	83 c4 1c             	add    $0x1c,%esp
 80502d6:	5b                   	pop    %ebx
 80502d7:	5e                   	pop    %esi
 80502d8:	5f                   	pop    %edi
 80502d9:	5d                   	pop    %ebp
 80502da:	c3                   	ret    
 80502db:	90                   	nop
 80502dc:	8d 74 26 00          	lea    0x0(%esi,%eiz,1),%esi
 80502e0:	80 cc 20             	or     $0x20,%ah
 80502e3:	66 89 43 0c          	mov    %ax,0xc(%ebx)
 80502e7:	8b 03                	mov    (%ebx),%eax
 80502e9:	81 63 64 ff df ff ff 	andl   $0xffffdfff,0x64(%ebx)
 80502f0:	89 c1                	mov    %eax,%ecx
 80502f2:	29 d1                	sub    %edx,%ecx
 80502f4:	3b 4b 14             	cmp    0x14(%ebx),%ecx
 80502f7:	89 ca                	mov    %ecx,%edx
 80502f9:	7c b6                	jl     80502b1 <__swbuf_r+0x51>
 80502fb:	89 5c 24 04          	mov    %ebx,0x4(%esp)
 80502ff:	89 34 24             	mov    %esi,(%esp)
 8050302:	e8 d9 b7 ff ff       	call   804bae0 <_fflush_r>
 8050307:	85 c0                	test   %eax,%eax
 8050309:	75 5d                	jne    8050368 <__swbuf_r+0x108>
 805030b:	8b 03                	mov    (%ebx),%eax
 805030d:	ba 01 00 00 00       	mov    $0x1,%edx
 8050312:	eb a0                	jmp    80502b4 <__swbuf_r+0x54>
 8050314:	8d 74 26 00          	lea    0x0(%esi,%eiz,1),%esi
 8050318:	89 5c 24 04          	mov    %ebx,0x4(%esp)
 805031c:	89 34 24             	mov    %esi,(%esp)
 805031f:	e8 bc b7 ff ff       	call   804bae0 <_fflush_r>
 8050324:	85 c0                	test   %eax,%eax
 8050326:	75 40                	jne    8050368 <__swbuf_r+0x108>
 8050328:	83 c4 1c             	add    $0x1c,%esp
 805032b:	89 f8                	mov    %edi,%eax
 805032d:	5b                   	pop    %ebx
 805032e:	5e                   	pop    %esi
 805032f:	5f                   	pop    %edi
 8050330:	5d                   	pop    %ebp
 8050331:	c3                   	ret    
 8050332:	8d b6 00 00 00 00    	lea    0x0(%esi),%esi
 8050338:	89 5c 24 04          	mov    %ebx,0x4(%esp)
 805033c:	89 34 24             	mov    %esi,(%esp)
 805033f:	e8 9c a0 ff ff       	call   804a3e0 <__swsetup_r>
 8050344:	85 c0                	test   %eax,%eax
 8050346:	75 20                	jne    8050368 <__swbuf_r+0x108>
 8050348:	0f b7 43 0c          	movzwl 0xc(%ebx),%eax
 805034c:	8b 53 10             	mov    0x10(%ebx),%edx
 805034f:	e9 47 ff ff ff       	jmp    805029b <__swbuf_r+0x3b>
 8050354:	8d 74 26 00          	lea    0x0(%esi,%eiz,1),%esi
 8050358:	89 34 24             	mov    %esi,(%esp)
 805035b:	e8 f0 b8 ff ff       	call   804bc50 <__sinit>
 8050360:	e9 19 ff ff ff       	jmp    805027e <__swbuf_r+0x1e>
 8050365:	8d 76 00             	lea    0x0(%esi),%esi
 8050368:	b8 ff ff ff ff       	mov    $0xffffffff,%eax
 805036d:	e9 61 ff ff ff       	jmp    80502d3 <__swbuf_r+0x73>
 8050372:	8d b4 26 00 00 00 00 	lea    0x0(%esi,%eiz,1),%esi
 8050379:	8d bc 27 00 00 00 00 	lea    0x0(%edi,%eiz,1),%edi

08050380 <__swbuf>:
 8050380:	55                   	push   %ebp
 8050381:	89 e5                	mov    %esp,%ebp
 8050383:	83 ec 18             	sub    $0x18,%esp
 8050386:	e8 35 c5 ff ff       	call   804c8c0 <__getreent>
 805038b:	8b 55 0c             	mov    0xc(%ebp),%edx
 805038e:	89 54 24 08          	mov    %edx,0x8(%esp)
 8050392:	8b 55 08             	mov    0x8(%ebp),%edx
 8050395:	89 04 24             	mov    %eax,(%esp)
 8050398:	89 54 24 04          	mov    %edx,0x4(%esp)
 805039c:	e8 bf fe ff ff       	call   8050260 <__swbuf_r>
 80503a1:	c9                   	leave  
 80503a2:	c3                   	ret    
 80503a3:	66 90                	xchg   %ax,%ax
 80503a5:	66 90                	xchg   %ax,%ax
 80503a7:	66 90                	xchg   %ax,%ax
 80503a9:	66 90                	xchg   %ax,%ax
 80503ab:	66 90                	xchg   %ax,%ax
 80503ad:	66 90                	xchg   %ax,%ax
 80503af:	90                   	nop

080503b0 <_wcrtomb_r>:
 80503b0:	55                   	push   %ebp
 80503b1:	89 e5                	mov    %esp,%ebp
 80503b3:	57                   	push   %edi
 80503b4:	56                   	push   %esi
 80503b5:	53                   	push   %ebx
 80503b6:	83 ec 3c             	sub    $0x3c,%esp
 80503b9:	8b 7d 0c             	mov    0xc(%ebp),%edi
 80503bc:	8b 75 14             	mov    0x14(%ebp),%esi
 80503bf:	85 ff                	test   %edi,%edi
 80503c1:	74 45                	je     8050408 <_wcrtomb_r+0x58>
 80503c3:	8b 1d 08 29 05 08    	mov    0x8052908,%ebx
 80503c9:	e8 72 c5 ff ff       	call   804c940 <__locale_charset>
 80503ce:	89 74 24 10          	mov    %esi,0x10(%esp)
 80503d2:	89 7c 24 04          	mov    %edi,0x4(%esp)
 80503d6:	89 44 24 0c          	mov    %eax,0xc(%esp)
 80503da:	8b 45 10             	mov    0x10(%ebp),%eax
 80503dd:	89 44 24 08          	mov    %eax,0x8(%esp)
 80503e1:	8b 45 08             	mov    0x8(%ebp),%eax
 80503e4:	89 04 24             	mov    %eax,(%esp)
 80503e7:	ff d3                	call   *%ebx
 80503e9:	83 f8 ff             	cmp    $0xffffffff,%eax
 80503ec:	75 0f                	jne    80503fd <_wcrtomb_r+0x4d>
 80503ee:	8b 55 08             	mov    0x8(%ebp),%edx
 80503f1:	c7 06 00 00 00 00    	movl   $0x0,(%esi)
 80503f7:	c7 02 8a 00 00 00    	movl   $0x8a,(%edx)
 80503fd:	83 c4 3c             	add    $0x3c,%esp
 8050400:	5b                   	pop    %ebx
 8050401:	5e                   	pop    %esi
 8050402:	5f                   	pop    %edi
 8050403:	5d                   	pop    %ebp
 8050404:	c3                   	ret    
 8050405:	8d 76 00             	lea    0x0(%esi),%esi
 8050408:	8b 3d 08 29 05 08    	mov    0x8052908,%edi
 805040e:	e8 2d c5 ff ff       	call   804c940 <__locale_charset>
 8050413:	89 74 24 10          	mov    %esi,0x10(%esp)
 8050417:	c7 44 24 08 00 00 00 	movl   $0x0,0x8(%esp)
 805041e:	00 
 805041f:	89 44 24 0c          	mov    %eax,0xc(%esp)
 8050423:	8d 45 de             	lea    -0x22(%ebp),%eax
 8050426:	89 44 24 04          	mov    %eax,0x4(%esp)
 805042a:	8b 45 08             	mov    0x8(%ebp),%eax
 805042d:	89 04 24             	mov    %eax,(%esp)
 8050430:	ff d7                	call   *%edi
 8050432:	eb b5                	jmp    80503e9 <_wcrtomb_r+0x39>
 8050434:	8d b6 00 00 00 00    	lea    0x0(%esi),%esi
 805043a:	8d bf 00 00 00 00    	lea    0x0(%edi),%edi

08050440 <wcrtomb>:
 8050440:	55                   	push   %ebp
 8050441:	89 e5                	mov    %esp,%ebp
 8050443:	57                   	push   %edi
 8050444:	56                   	push   %esi
 8050445:	53                   	push   %ebx
 8050446:	83 ec 3c             	sub    $0x3c,%esp
 8050449:	8b 7d 08             	mov    0x8(%ebp),%edi
 805044c:	e8 6f c4 ff ff       	call   804c8c0 <__getreent>
 8050451:	85 ff                	test   %edi,%edi
 8050453:	89 c3                	mov    %eax,%ebx
 8050455:	74 49                	je     80504a0 <wcrtomb+0x60>
 8050457:	8b 35 08 29 05 08    	mov    0x8052908,%esi
 805045d:	e8 de c4 ff ff       	call   804c940 <__locale_charset>
 8050462:	8b 55 10             	mov    0x10(%ebp),%edx
 8050465:	89 7c 24 04          	mov    %edi,0x4(%esp)
 8050469:	89 1c 24             	mov    %ebx,(%esp)
 805046c:	89 54 24 10          	mov    %edx,0x10(%esp)
 8050470:	89 44 24 0c          	mov    %eax,0xc(%esp)
 8050474:	8b 45 0c             	mov    0xc(%ebp),%eax
 8050477:	89 44 24 08          	mov    %eax,0x8(%esp)
 805047b:	ff d6                	call   *%esi
 805047d:	83 f8 ff             	cmp    $0xffffffff,%eax
 8050480:	75 0f                	jne    8050491 <wcrtomb+0x51>
 8050482:	8b 4d 10             	mov    0x10(%ebp),%ecx
 8050485:	c7 01 00 00 00 00    	movl   $0x0,(%ecx)
 805048b:	c7 03 8a 00 00 00    	movl   $0x8a,(%ebx)
 8050491:	83 c4 3c             	add    $0x3c,%esp
 8050494:	5b                   	pop    %ebx
 8050495:	5e                   	pop    %esi
 8050496:	5f                   	pop    %edi
 8050497:	5d                   	pop    %ebp
 8050498:	c3                   	ret    
 8050499:	8d b4 26 00 00 00 00 	lea    0x0(%esi,%eiz,1),%esi
 80504a0:	8b 3d 08 29 05 08    	mov    0x8052908,%edi
 80504a6:	e8 95 c4 ff ff       	call   804c940 <__locale_charset>
 80504ab:	8b 4d 10             	mov    0x10(%ebp),%ecx
 80504ae:	c7 44 24 08 00 00 00 	movl   $0x0,0x8(%esp)
 80504b5:	00 
 80504b6:	89 1c 24             	mov    %ebx,(%esp)
 80504b9:	89 4c 24 10          	mov    %ecx,0x10(%esp)
 80504bd:	89 44 24 0c          	mov    %eax,0xc(%esp)
 80504c1:	8d 45 de             	lea    -0x22(%ebp),%eax
 80504c4:	89 44 24 04          	mov    %eax,0x4(%esp)
 80504c8:	ff d7                	call   *%edi
 80504ca:	eb b1                	jmp    805047d <wcrtomb+0x3d>
 80504cc:	66 90                	xchg   %ax,%ax
 80504ce:	66 90                	xchg   %ax,%ax

080504d0 <__ascii_wctomb>:
 80504d0:	55                   	push   %ebp
 80504d1:	89 e5                	mov    %esp,%ebp
 80504d3:	8b 45 0c             	mov    0xc(%ebp),%eax
 80504d6:	8b 55 10             	mov    0x10(%ebp),%edx
 80504d9:	85 c0                	test   %eax,%eax
 80504db:	74 13                	je     80504f0 <__ascii_wctomb+0x20>
 80504dd:	81 fa ff 00 00 00    	cmp    $0xff,%edx
 80504e3:	77 13                	ja     80504f8 <__ascii_wctomb+0x28>
 80504e5:	88 10                	mov    %dl,(%eax)
 80504e7:	b8 01 00 00 00       	mov    $0x1,%eax
 80504ec:	5d                   	pop    %ebp
 80504ed:	c3                   	ret    
 80504ee:	66 90                	xchg   %ax,%ax
 80504f0:	31 c0                	xor    %eax,%eax
 80504f2:	5d                   	pop    %ebp
 80504f3:	c3                   	ret    
 80504f4:	8d 74 26 00          	lea    0x0(%esi,%eiz,1),%esi
 80504f8:	8b 45 08             	mov    0x8(%ebp),%eax
 80504fb:	c7 00 8a 00 00 00    	movl   $0x8a,(%eax)
 8050501:	b8 ff ff ff ff       	mov    $0xffffffff,%eax
 8050506:	5d                   	pop    %ebp
 8050507:	c3                   	ret    
 8050508:	90                   	nop
 8050509:	8d b4 26 00 00 00 00 	lea    0x0(%esi,%eiz,1),%esi

08050510 <_wctomb_r>:
 8050510:	55                   	push   %ebp
 8050511:	89 e5                	mov    %esp,%ebp
 8050513:	53                   	push   %ebx
 8050514:	83 ec 24             	sub    $0x24,%esp
 8050517:	8b 1d 08 29 05 08    	mov    0x8052908,%ebx
 805051d:	e8 1e c4 ff ff       	call   804c940 <__locale_charset>
 8050522:	8b 55 14             	mov    0x14(%ebp),%edx
 8050525:	89 54 24 10          	mov    %edx,0x10(%esp)
 8050529:	89 44 24 0c          	mov    %eax,0xc(%esp)
 805052d:	8b 45 10             	mov    0x10(%ebp),%eax
 8050530:	89 44 24 08          	mov    %eax,0x8(%esp)
 8050534:	8b 45 0c             	mov    0xc(%ebp),%eax
 8050537:	89 44 24 04          	mov    %eax,0x4(%esp)
 805053b:	8b 45 08             	mov    0x8(%ebp),%eax
 805053e:	89 04 24             	mov    %eax,(%esp)
 8050541:	ff d3                	call   *%ebx
 8050543:	83 c4 24             	add    $0x24,%esp
 8050546:	5b                   	pop    %ebx
 8050547:	5d                   	pop    %ebp
 8050548:	c3                   	ret    
